<?xml version="1.0" encoding="utf-8"?>
<?xml-stylesheet type="text/xsl" href="pdml2html.xsl"?>
<!-- You can find pdml2html.xsl in /usr/share/wireshark or at https://code.wireshark.org/review/gitweb?p=wireshark.git;a=blob_plain;f=pdml2html.xsl. -->
<pdml version="0" creator="wireshark/3.2.3" time="Sat May 20 00:54:44 2023" capture_file="/home/lily/5G/PCAPS/Core/Background/start_one_upf.pcapng">
<packet>
  <proto name="geninfo" pos="0" showname="General information" size="58">
    <field name="num" pos="0" show="1" showname="Number" value="1" size="58"/>
    <field name="len" pos="0" show="58" showname="Frame Length" value="3a" size="58"/>
    <field name="caplen" pos="0" show="58" showname="Captured Length" value="3a" size="58"/>
    <field name="timestamp" pos="0" show="May 19, 2023 23:00:05.478764786 CEST" showname="Captured Time" value="1684530005.478764786" size="58"/>
  </proto>
  <proto name="frame" showname="Frame 1: 58 bytes on wire (464 bits), 58 bytes captured (464 bits) on interface veth_upf, id 0" size="58" pos="0">
    <field name="filtered" value="frame" />
  </proto>
  <proto name="eth" showname="Ethernet II, Src: ca:af:68:06:90:ef, Dst: 2a:84:b5:31:92:1e" size="14" pos="0">
    <field name="filtered" value="eth" />
  </proto>
  <proto name="ip" showname="Internet Protocol Version 4, Src: 10.0.14.1, Dst: 10.0.17.1" size="20" pos="14">
    <field name="filtered" value="ip" />
  </proto>
  <proto name="udp" showname="User Datagram Protocol, Src Port: 8805, Dst Port: 8805" size="8" pos="34">
    <field name="filtered" value="udp" />
  </proto>
  <proto name="pfcp" showname="Packet Forwarding Control Protocol" size="16" pos="42">
    <field name="pfcp.flags" showname="Flags: 0x20" size="1" pos="42" show="0x00000020" value="20">
      <field name="pfcp.version" showname="001. .... = Version: 1" size="1" pos="42" show="1" value="1" unmaskedvalue="20"/>
      <field name="pfcp.spare_b4" showname="...0 .... = Spare: 0" size="1" pos="42" show="0" value="0" unmaskedvalue="20"/>
      <field name="pfcp.spare_b3" showname=".... 0... = Spare: 0" size="1" pos="42" show="0" value="0" unmaskedvalue="20"/>
      <field name="pfcp.spare_b2" showname=".... .0.. = Spare: 0" size="1" pos="42" show="0" value="0" unmaskedvalue="20"/>
      <field name="pfcp.mp_flag" showname=".... ..0. = Message Priority (MP): False" size="1" pos="42" show="0" value="0" unmaskedvalue="20"/>
      <field name="pfcp.s" showname=".... ...0 = SEID (S): False" size="1" pos="42" show="0" value="0" unmaskedvalue="20"/>
    </field>
    <field name="pfcp.msg_type" showname="Message Type: PFCP Heartbeat Request (1)" size="1" pos="43" show="1" value="01"/>
    <field name="pfcp.length" showname="Length: 12" size="2" pos="44" show="12" value="000c"/>
    <field name="pfcp.seqno" showname="Sequence Number: 19" size="3" pos="46" show="19" value="000013"/>
    <field name="pfcp.spare_oct" showname="Spare: 0" size="1" pos="49" show="0" value="00"/>
    <field name="" show="Recovery Time Stamp : May 19, 2023 20:57:06.000000000 UTC" size="8" pos="50" value="00600004e8126122">
      <field name="pfcp.ie_type" showname="IE Type: Recovery Time Stamp (96)" size="2" pos="50" show="96" value="0060"/>
      <field name="pfcp.ie_len" showname="IE Length: 4" size="2" pos="52" show="4" value="0004"/>
      <field name="pfcp.recovery_time_stamp" showname="Recovery Time Stamp: May 19, 2023 20:57:06.000000000 UTC" size="4" pos="54" show="May 19, 2023 22:57:06.000000000 CEST" value="e8126122"/>
    </field>
    <field name="pfcp.response_in" showname="Response In: 3" size="0" pos="42" show="3"/>
  </proto>
</packet>


<packet>
  <proto name="geninfo" pos="0" showname="General information" size="58">
    <field name="num" pos="0" show="2" showname="Number" value="2" size="58"/>
    <field name="len" pos="0" show="58" showname="Frame Length" value="3a" size="58"/>
    <field name="caplen" pos="0" show="58" showname="Captured Length" value="3a" size="58"/>
    <field name="timestamp" pos="0" show="May 19, 2023 23:00:05.479574187 CEST" showname="Captured Time" value="1684530005.479574187" size="58"/>
  </proto>
  <proto name="frame" showname="Frame 2: 58 bytes on wire (464 bits), 58 bytes captured (464 bits) on interface veth_upf, id 0" size="58" pos="0">
    <field name="filtered" value="frame" />
  </proto>
  <proto name="eth" showname="Ethernet II, Src: 2a:84:b5:31:92:1e, Dst: ca:af:68:06:90:ef" size="14" pos="0">
    <field name="filtered" value="eth" />
  </proto>
  <proto name="ip" showname="Internet Protocol Version 4, Src: 10.0.17.1, Dst: 10.0.14.1" size="20" pos="14">
    <field name="filtered" value="ip" />
  </proto>
  <proto name="udp" showname="User Datagram Protocol, Src Port: 8805, Dst Port: 8805" size="8" pos="34">
    <field name="filtered" value="udp" />
  </proto>
  <proto name="pfcp" showname="Packet Forwarding Control Protocol" size="16" pos="42">
    <field name="pfcp.flags" showname="Flags: 0x20" size="1" pos="42" show="0x00000020" value="20">
      <field name="pfcp.version" showname="001. .... = Version: 1" size="1" pos="42" show="1" value="1" unmaskedvalue="20"/>
      <field name="pfcp.spare_b4" showname="...0 .... = Spare: 0" size="1" pos="42" show="0" value="0" unmaskedvalue="20"/>
      <field name="pfcp.spare_b3" showname=".... 0... = Spare: 0" size="1" pos="42" show="0" value="0" unmaskedvalue="20"/>
      <field name="pfcp.spare_b2" showname=".... .0.. = Spare: 0" size="1" pos="42" show="0" value="0" unmaskedvalue="20"/>
      <field name="pfcp.mp_flag" showname=".... ..0. = Message Priority (MP): False" size="1" pos="42" show="0" value="0" unmaskedvalue="20"/>
      <field name="pfcp.s" showname=".... ...0 = SEID (S): False" size="1" pos="42" show="0" value="0" unmaskedvalue="20"/>
    </field>
    <field name="pfcp.msg_type" showname="Message Type: PFCP Heartbeat Request (1)" size="1" pos="43" show="1" value="01"/>
    <field name="pfcp.length" showname="Length: 12" size="2" pos="44" show="12" value="000c"/>
    <field name="pfcp.seqno" showname="Sequence Number: 15" size="3" pos="46" show="15" value="00000f"/>
    <field name="pfcp.spare_oct" showname="Spare: 0" size="1" pos="49" show="0" value="00"/>
    <field name="" show="Recovery Time Stamp : May 19, 2023 20:57:14.000000000 UTC" size="8" pos="50" value="00600004e812612a">
      <field name="pfcp.ie_type" showname="IE Type: Recovery Time Stamp (96)" size="2" pos="50" show="96" value="0060"/>
      <field name="pfcp.ie_len" showname="IE Length: 4" size="2" pos="52" show="4" value="0004"/>
      <field name="pfcp.recovery_time_stamp" showname="Recovery Time Stamp: May 19, 2023 20:57:14.000000000 UTC" size="4" pos="54" show="May 19, 2023 22:57:14.000000000 CEST" value="e812612a"/>
    </field>
    <field name="pfcp.response_in" showname="Response In: 4" size="0" pos="42" show="4"/>
  </proto>
</packet>


<packet>
  <proto name="geninfo" pos="0" showname="General information" size="58">
    <field name="num" pos="0" show="3" showname="Number" value="3" size="58"/>
    <field name="len" pos="0" show="58" showname="Frame Length" value="3a" size="58"/>
    <field name="caplen" pos="0" show="58" showname="Captured Length" value="3a" size="58"/>
    <field name="timestamp" pos="0" show="May 19, 2023 23:00:05.479676962 CEST" showname="Captured Time" value="1684530005.479676962" size="58"/>
  </proto>
  <proto name="frame" showname="Frame 3: 58 bytes on wire (464 bits), 58 bytes captured (464 bits) on interface veth_upf, id 0" size="58" pos="0">
    <field name="filtered" value="frame" />
  </proto>
  <proto name="eth" showname="Ethernet II, Src: 2a:84:b5:31:92:1e, Dst: ca:af:68:06:90:ef" size="14" pos="0">
    <field name="filtered" value="eth" />
  </proto>
  <proto name="ip" showname="Internet Protocol Version 4, Src: 10.0.17.1, Dst: 10.0.14.1" size="20" pos="14">
    <field name="filtered" value="ip" />
  </proto>
  <proto name="udp" showname="User Datagram Protocol, Src Port: 8805, Dst Port: 8805" size="8" pos="34">
    <field name="filtered" value="udp" />
  </proto>
  <proto name="pfcp" showname="Packet Forwarding Control Protocol" size="16" pos="42">
    <field name="pfcp.flags" showname="Flags: 0x20" size="1" pos="42" show="0x00000020" value="20">
      <field name="pfcp.version" showname="001. .... = Version: 1" size="1" pos="42" show="1" value="1" unmaskedvalue="20"/>
      <field name="pfcp.spare_b4" showname="...0 .... = Spare: 0" size="1" pos="42" show="0" value="0" unmaskedvalue="20"/>
      <field name="pfcp.spare_b3" showname=".... 0... = Spare: 0" size="1" pos="42" show="0" value="0" unmaskedvalue="20"/>
      <field name="pfcp.spare_b2" showname=".... .0.. = Spare: 0" size="1" pos="42" show="0" value="0" unmaskedvalue="20"/>
      <field name="pfcp.mp_flag" showname=".... ..0. = Message Priority (MP): False" size="1" pos="42" show="0" value="0" unmaskedvalue="20"/>
      <field name="pfcp.s" showname=".... ...0 = SEID (S): False" size="1" pos="42" show="0" value="0" unmaskedvalue="20"/>
    </field>
    <field name="pfcp.msg_type" showname="Message Type: PFCP Heartbeat Response (2)" size="1" pos="43" show="2" value="02"/>
    <field name="pfcp.length" showname="Length: 12" size="2" pos="44" show="12" value="000c"/>
    <field name="pfcp.seqno" showname="Sequence Number: 19" size="3" pos="46" show="19" value="000013"/>
    <field name="pfcp.spare_oct" showname="Spare: 0" size="1" pos="49" show="0" value="00"/>
    <field name="" show="Recovery Time Stamp : May 19, 2023 20:57:14.000000000 UTC" size="8" pos="50" value="00600004e812612a">
      <field name="pfcp.ie_type" showname="IE Type: Recovery Time Stamp (96)" size="2" pos="50" show="96" value="0060"/>
      <field name="pfcp.ie_len" showname="IE Length: 4" size="2" pos="52" show="4" value="0004"/>
      <field name="pfcp.recovery_time_stamp" showname="Recovery Time Stamp: May 19, 2023 20:57:14.000000000 UTC" size="4" pos="54" show="May 19, 2023 22:57:14.000000000 CEST" value="e812612a"/>
    </field>
    <field name="pfcp.response_to" showname="Response To: 1" size="0" pos="42" show="1"/>
    <field name="pfcp.response_time" showname="Response Time: 0.000912176 seconds" size="0" pos="42" show="0.000912176"/>
  </proto>
</packet>


<packet>
  <proto name="geninfo" pos="0" showname="General information" size="58">
    <field name="num" pos="0" show="4" showname="Number" value="4" size="58"/>
    <field name="len" pos="0" show="58" showname="Frame Length" value="3a" size="58"/>
    <field name="caplen" pos="0" show="58" showname="Captured Length" value="3a" size="58"/>
    <field name="timestamp" pos="0" show="May 19, 2023 23:00:05.479800916 CEST" showname="Captured Time" value="1684530005.479800916" size="58"/>
  </proto>
  <proto name="frame" showname="Frame 4: 58 bytes on wire (464 bits), 58 bytes captured (464 bits) on interface veth_upf, id 0" size="58" pos="0">
    <field name="filtered" value="frame" />
  </proto>
  <proto name="eth" showname="Ethernet II, Src: ca:af:68:06:90:ef, Dst: 2a:84:b5:31:92:1e" size="14" pos="0">
    <field name="filtered" value="eth" />
  </proto>
  <proto name="ip" showname="Internet Protocol Version 4, Src: 10.0.14.1, Dst: 10.0.17.1" size="20" pos="14">
    <field name="filtered" value="ip" />
  </proto>
  <proto name="udp" showname="User Datagram Protocol, Src Port: 8805, Dst Port: 8805" size="8" pos="34">
    <field name="filtered" value="udp" />
  </proto>
  <proto name="pfcp" showname="Packet Forwarding Control Protocol" size="16" pos="42">
    <field name="pfcp.flags" showname="Flags: 0x20" size="1" pos="42" show="0x00000020" value="20">
      <field name="pfcp.version" showname="001. .... = Version: 1" size="1" pos="42" show="1" value="1" unmaskedvalue="20"/>
      <field name="pfcp.spare_b4" showname="...0 .... = Spare: 0" size="1" pos="42" show="0" value="0" unmaskedvalue="20"/>
      <field name="pfcp.spare_b3" showname=".... 0... = Spare: 0" size="1" pos="42" show="0" value="0" unmaskedvalue="20"/>
      <field name="pfcp.spare_b2" showname=".... .0.. = Spare: 0" size="1" pos="42" show="0" value="0" unmaskedvalue="20"/>
      <field name="pfcp.mp_flag" showname=".... ..0. = Message Priority (MP): False" size="1" pos="42" show="0" value="0" unmaskedvalue="20"/>
      <field name="pfcp.s" showname=".... ...0 = SEID (S): False" size="1" pos="42" show="0" value="0" unmaskedvalue="20"/>
    </field>
    <field name="pfcp.msg_type" showname="Message Type: PFCP Heartbeat Response (2)" size="1" pos="43" show="2" value="02"/>
    <field name="pfcp.length" showname="Length: 12" size="2" pos="44" show="12" value="000c"/>
    <field name="pfcp.seqno" showname="Sequence Number: 15" size="3" pos="46" show="15" value="00000f"/>
    <field name="pfcp.spare_oct" showname="Spare: 0" size="1" pos="49" show="0" value="00"/>
    <field name="" show="Recovery Time Stamp : May 19, 2023 20:57:06.000000000 UTC" size="8" pos="50" value="00600004e8126122">
      <field name="pfcp.ie_type" showname="IE Type: Recovery Time Stamp (96)" size="2" pos="50" show="96" value="0060"/>
      <field name="pfcp.ie_len" showname="IE Length: 4" size="2" pos="52" show="4" value="0004"/>
      <field name="pfcp.recovery_time_stamp" showname="Recovery Time Stamp: May 19, 2023 20:57:06.000000000 UTC" size="4" pos="54" show="May 19, 2023 22:57:06.000000000 CEST" value="e8126122"/>
    </field>
    <field name="pfcp.response_to" showname="Response To: 2" size="0" pos="42" show="2"/>
    <field name="pfcp.response_time" showname="Response Time: 0.000226729 seconds" size="0" pos="42" show="0.000226729"/>
  </proto>
</packet>


<packet>
  <proto name="geninfo" pos="0" showname="General information" size="58">
    <field name="num" pos="0" show="5" showname="Number" value="5" size="58"/>
    <field name="len" pos="0" show="58" showname="Frame Length" value="3a" size="58"/>
    <field name="caplen" pos="0" show="58" showname="Captured Length" value="3a" size="58"/>
    <field name="timestamp" pos="0" show="May 19, 2023 23:00:16.493712484 CEST" showname="Captured Time" value="1684530016.493712484" size="58"/>
  </proto>
  <proto name="frame" showname="Frame 5: 58 bytes on wire (464 bits), 58 bytes captured (464 bits) on interface veth_upf, id 0" size="58" pos="0">
    <field name="filtered" value="frame" />
  </proto>
  <proto name="eth" showname="Ethernet II, Src: ca:af:68:06:90:ef, Dst: 2a:84:b5:31:92:1e" size="14" pos="0">
    <field name="filtered" value="eth" />
  </proto>
  <proto name="ip" showname="Internet Protocol Version 4, Src: 10.0.14.1, Dst: 10.0.17.1" size="20" pos="14">
    <field name="filtered" value="ip" />
  </proto>
  <proto name="udp" showname="User Datagram Protocol, Src Port: 8805, Dst Port: 8805" size="8" pos="34">
    <field name="filtered" value="udp" />
  </proto>
  <proto name="pfcp" showname="Packet Forwarding Control Protocol" size="16" pos="42">
    <field name="pfcp.flags" showname="Flags: 0x20" size="1" pos="42" show="0x00000020" value="20">
      <field name="pfcp.version" showname="001. .... = Version: 1" size="1" pos="42" show="1" value="1" unmaskedvalue="20"/>
      <field name="pfcp.spare_b4" showname="...0 .... = Spare: 0" size="1" pos="42" show="0" value="0" unmaskedvalue="20"/>
      <field name="pfcp.spare_b3" showname=".... 0... = Spare: 0" size="1" pos="42" show="0" value="0" unmaskedvalue="20"/>
      <field name="pfcp.spare_b2" showname=".... .0.. = Spare: 0" size="1" pos="42" show="0" value="0" unmaskedvalue="20"/>
      <field name="pfcp.mp_flag" showname=".... ..0. = Message Priority (MP): False" size="1" pos="42" show="0" value="0" unmaskedvalue="20"/>
      <field name="pfcp.s" showname=".... ...0 = SEID (S): False" size="1" pos="42" show="0" value="0" unmaskedvalue="20"/>
    </field>
    <field name="pfcp.msg_type" showname="Message Type: PFCP Heartbeat Request (1)" size="1" pos="43" show="1" value="01"/>
    <field name="pfcp.length" showname="Length: 12" size="2" pos="44" show="12" value="000c"/>
    <field name="pfcp.seqno" showname="Sequence Number: 20" size="3" pos="46" show="20" value="000014"/>
    <field name="pfcp.spare_oct" showname="Spare: 0" size="1" pos="49" show="0" value="00"/>
    <field name="" show="Recovery Time Stamp : May 19, 2023 20:57:06.000000000 UTC" size="8" pos="50" value="00600004e8126122">
      <field name="pfcp.ie_type" showname="IE Type: Recovery Time Stamp (96)" size="2" pos="50" show="96" value="0060"/>
      <field name="pfcp.ie_len" showname="IE Length: 4" size="2" pos="52" show="4" value="0004"/>
      <field name="pfcp.recovery_time_stamp" showname="Recovery Time Stamp: May 19, 2023 20:57:06.000000000 UTC" size="4" pos="54" show="May 19, 2023 22:57:06.000000000 CEST" value="e8126122"/>
    </field>
    <field name="pfcp.response_in" showname="Response In: 7" size="0" pos="42" show="7"/>
  </proto>
</packet>


<packet>
  <proto name="geninfo" pos="0" showname="General information" size="58">
    <field name="num" pos="0" show="6" showname="Number" value="6" size="58"/>
    <field name="len" pos="0" show="58" showname="Frame Length" value="3a" size="58"/>
    <field name="caplen" pos="0" show="58" showname="Captured Length" value="3a" size="58"/>
    <field name="timestamp" pos="0" show="May 19, 2023 23:00:16.495418294 CEST" showname="Captured Time" value="1684530016.495418294" size="58"/>
  </proto>
  <proto name="frame" showname="Frame 6: 58 bytes on wire (464 bits), 58 bytes captured (464 bits) on interface veth_upf, id 0" size="58" pos="0">
    <field name="filtered" value="frame" />
  </proto>
  <proto name="eth" showname="Ethernet II, Src: 2a:84:b5:31:92:1e, Dst: ca:af:68:06:90:ef" size="14" pos="0">
    <field name="filtered" value="eth" />
  </proto>
  <proto name="ip" showname="Internet Protocol Version 4, Src: 10.0.17.1, Dst: 10.0.14.1" size="20" pos="14">
    <field name="filtered" value="ip" />
  </proto>
  <proto name="udp" showname="User Datagram Protocol, Src Port: 8805, Dst Port: 8805" size="8" pos="34">
    <field name="filtered" value="udp" />
  </proto>
  <proto name="pfcp" showname="Packet Forwarding Control Protocol" size="16" pos="42">
    <field name="pfcp.flags" showname="Flags: 0x20" size="1" pos="42" show="0x00000020" value="20">
      <field name="pfcp.version" showname="001. .... = Version: 1" size="1" pos="42" show="1" value="1" unmaskedvalue="20"/>
      <field name="pfcp.spare_b4" showname="...0 .... = Spare: 0" size="1" pos="42" show="0" value="0" unmaskedvalue="20"/>
      <field name="pfcp.spare_b3" showname=".... 0... = Spare: 0" size="1" pos="42" show="0" value="0" unmaskedvalue="20"/>
      <field name="pfcp.spare_b2" showname=".... .0.. = Spare: 0" size="1" pos="42" show="0" value="0" unmaskedvalue="20"/>
      <field name="pfcp.mp_flag" showname=".... ..0. = Message Priority (MP): False" size="1" pos="42" show="0" value="0" unmaskedvalue="20"/>
      <field name="pfcp.s" showname=".... ...0 = SEID (S): False" size="1" pos="42" show="0" value="0" unmaskedvalue="20"/>
    </field>
    <field name="pfcp.msg_type" showname="Message Type: PFCP Heartbeat Request (1)" size="1" pos="43" show="1" value="01"/>
    <field name="pfcp.length" showname="Length: 12" size="2" pos="44" show="12" value="000c"/>
    <field name="pfcp.seqno" showname="Sequence Number: 16" size="3" pos="46" show="16" value="000010"/>
    <field name="pfcp.spare_oct" showname="Spare: 0" size="1" pos="49" show="0" value="00"/>
    <field name="" show="Recovery Time Stamp : May 19, 2023 20:57:14.000000000 UTC" size="8" pos="50" value="00600004e812612a">
      <field name="pfcp.ie_type" showname="IE Type: Recovery Time Stamp (96)" size="2" pos="50" show="96" value="0060"/>
      <field name="pfcp.ie_len" showname="IE Length: 4" size="2" pos="52" show="4" value="0004"/>
      <field name="pfcp.recovery_time_stamp" showname="Recovery Time Stamp: May 19, 2023 20:57:14.000000000 UTC" size="4" pos="54" show="May 19, 2023 22:57:14.000000000 CEST" value="e812612a"/>
    </field>
    <field name="pfcp.response_in" showname="Response In: 8" size="0" pos="42" show="8"/>
  </proto>
</packet>


<packet>
  <proto name="geninfo" pos="0" showname="General information" size="58">
    <field name="num" pos="0" show="7" showname="Number" value="7" size="58"/>
    <field name="len" pos="0" show="58" showname="Frame Length" value="3a" size="58"/>
    <field name="caplen" pos="0" show="58" showname="Captured Length" value="3a" size="58"/>
    <field name="timestamp" pos="0" show="May 19, 2023 23:00:16.495699644 CEST" showname="Captured Time" value="1684530016.495699644" size="58"/>
  </proto>
  <proto name="frame" showname="Frame 7: 58 bytes on wire (464 bits), 58 bytes captured (464 bits) on interface veth_upf, id 0" size="58" pos="0">
    <field name="filtered" value="frame" />
  </proto>
  <proto name="eth" showname="Ethernet II, Src: 2a:84:b5:31:92:1e, Dst: ca:af:68:06:90:ef" size="14" pos="0">
    <field name="filtered" value="eth" />
  </proto>
  <proto name="ip" showname="Internet Protocol Version 4, Src: 10.0.17.1, Dst: 10.0.14.1" size="20" pos="14">
    <field name="filtered" value="ip" />
  </proto>
  <proto name="udp" showname="User Datagram Protocol, Src Port: 8805, Dst Port: 8805" size="8" pos="34">
    <field name="filtered" value="udp" />
  </proto>
  <proto name="pfcp" showname="Packet Forwarding Control Protocol" size="16" pos="42">
    <field name="pfcp.flags" showname="Flags: 0x20" size="1" pos="42" show="0x00000020" value="20">
      <field name="pfcp.version" showname="001. .... = Version: 1" size="1" pos="42" show="1" value="1" unmaskedvalue="20"/>
      <field name="pfcp.spare_b4" showname="...0 .... = Spare: 0" size="1" pos="42" show="0" value="0" unmaskedvalue="20"/>
      <field name="pfcp.spare_b3" showname=".... 0... = Spare: 0" size="1" pos="42" show="0" value="0" unmaskedvalue="20"/>
      <field name="pfcp.spare_b2" showname=".... .0.. = Spare: 0" size="1" pos="42" show="0" value="0" unmaskedvalue="20"/>
      <field name="pfcp.mp_flag" showname=".... ..0. = Message Priority (MP): False" size="1" pos="42" show="0" value="0" unmaskedvalue="20"/>
      <field name="pfcp.s" showname=".... ...0 = SEID (S): False" size="1" pos="42" show="0" value="0" unmaskedvalue="20"/>
    </field>
    <field name="pfcp.msg_type" showname="Message Type: PFCP Heartbeat Response (2)" size="1" pos="43" show="2" value="02"/>
    <field name="pfcp.length" showname="Length: 12" size="2" pos="44" show="12" value="000c"/>
    <field name="pfcp.seqno" showname="Sequence Number: 20" size="3" pos="46" show="20" value="000014"/>
    <field name="pfcp.spare_oct" showname="Spare: 0" size="1" pos="49" show="0" value="00"/>
    <field name="" show="Recovery Time Stamp : May 19, 2023 20:57:14.000000000 UTC" size="8" pos="50" value="00600004e812612a">
      <field name="pfcp.ie_type" showname="IE Type: Recovery Time Stamp (96)" size="2" pos="50" show="96" value="0060"/>
      <field name="pfcp.ie_len" showname="IE Length: 4" size="2" pos="52" show="4" value="0004"/>
      <field name="pfcp.recovery_time_stamp" showname="Recovery Time Stamp: May 19, 2023 20:57:14.000000000 UTC" size="4" pos="54" show="May 19, 2023 22:57:14.000000000 CEST" value="e812612a"/>
    </field>
    <field name="pfcp.response_to" showname="Response To: 5" size="0" pos="42" show="5"/>
    <field name="pfcp.response_time" showname="Response Time: 0.001987160 seconds" size="0" pos="42" show="0.001987160"/>
  </proto>
</packet>


<packet>
  <proto name="geninfo" pos="0" showname="General information" size="58">
    <field name="num" pos="0" show="8" showname="Number" value="8" size="58"/>
    <field name="len" pos="0" show="58" showname="Frame Length" value="3a" size="58"/>
    <field name="caplen" pos="0" show="58" showname="Captured Length" value="3a" size="58"/>
    <field name="timestamp" pos="0" show="May 19, 2023 23:00:16.496344924 CEST" showname="Captured Time" value="1684530016.496344924" size="58"/>
  </proto>
  <proto name="frame" showname="Frame 8: 58 bytes on wire (464 bits), 58 bytes captured (464 bits) on interface veth_upf, id 0" size="58" pos="0">
    <field name="filtered" value="frame" />
  </proto>
  <proto name="eth" showname="Ethernet II, Src: ca:af:68:06:90:ef, Dst: 2a:84:b5:31:92:1e" size="14" pos="0">
    <field name="filtered" value="eth" />
  </proto>
  <proto name="ip" showname="Internet Protocol Version 4, Src: 10.0.14.1, Dst: 10.0.17.1" size="20" pos="14">
    <field name="filtered" value="ip" />
  </proto>
  <proto name="udp" showname="User Datagram Protocol, Src Port: 8805, Dst Port: 8805" size="8" pos="34">
    <field name="filtered" value="udp" />
  </proto>
  <proto name="pfcp" showname="Packet Forwarding Control Protocol" size="16" pos="42">
    <field name="pfcp.flags" showname="Flags: 0x20" size="1" pos="42" show="0x00000020" value="20">
      <field name="pfcp.version" showname="001. .... = Version: 1" size="1" pos="42" show="1" value="1" unmaskedvalue="20"/>
      <field name="pfcp.spare_b4" showname="...0 .... = Spare: 0" size="1" pos="42" show="0" value="0" unmaskedvalue="20"/>
      <field name="pfcp.spare_b3" showname=".... 0... = Spare: 0" size="1" pos="42" show="0" value="0" unmaskedvalue="20"/>
      <field name="pfcp.spare_b2" showname=".... .0.. = Spare: 0" size="1" pos="42" show="0" value="0" unmaskedvalue="20"/>
      <field name="pfcp.mp_flag" showname=".... ..0. = Message Priority (MP): False" size="1" pos="42" show="0" value="0" unmaskedvalue="20"/>
      <field name="pfcp.s" showname=".... ...0 = SEID (S): False" size="1" pos="42" show="0" value="0" unmaskedvalue="20"/>
    </field>
    <field name="pfcp.msg_type" showname="Message Type: PFCP Heartbeat Response (2)" size="1" pos="43" show="2" value="02"/>
    <field name="pfcp.length" showname="Length: 12" size="2" pos="44" show="12" value="000c"/>
    <field name="pfcp.seqno" showname="Sequence Number: 16" size="3" pos="46" show="16" value="000010"/>
    <field name="pfcp.spare_oct" showname="Spare: 0" size="1" pos="49" show="0" value="00"/>
    <field name="" show="Recovery Time Stamp : May 19, 2023 20:57:06.000000000 UTC" size="8" pos="50" value="00600004e8126122">
      <field name="pfcp.ie_type" showname="IE Type: Recovery Time Stamp (96)" size="2" pos="50" show="96" value="0060"/>
      <field name="pfcp.ie_len" showname="IE Length: 4" size="2" pos="52" show="4" value="0004"/>
      <field name="pfcp.recovery_time_stamp" showname="Recovery Time Stamp: May 19, 2023 20:57:06.000000000 UTC" size="4" pos="54" show="May 19, 2023 22:57:06.000000000 CEST" value="e8126122"/>
    </field>
    <field name="pfcp.response_to" showname="Response To: 6" size="0" pos="42" show="6"/>
    <field name="pfcp.response_time" showname="Response Time: 0.000926630 seconds" size="0" pos="42" show="0.000926630"/>
  </proto>
</packet>


<packet>
  <proto name="geninfo" pos="0" showname="General information" size="58">
    <field name="num" pos="0" show="9" showname="Number" value="9" size="58"/>
    <field name="len" pos="0" show="58" showname="Frame Length" value="3a" size="58"/>
    <field name="caplen" pos="0" show="58" showname="Captured Length" value="3a" size="58"/>
    <field name="timestamp" pos="0" show="May 19, 2023 23:00:27.503854865 CEST" showname="Captured Time" value="1684530027.503854865" size="58"/>
  </proto>
  <proto name="frame" showname="Frame 9: 58 bytes on wire (464 bits), 58 bytes captured (464 bits) on interface veth_upf, id 0" size="58" pos="0">
    <field name="filtered" value="frame" />
  </proto>
  <proto name="eth" showname="Ethernet II, Src: ca:af:68:06:90:ef, Dst: 2a:84:b5:31:92:1e" size="14" pos="0">
    <field name="filtered" value="eth" />
  </proto>
  <proto name="ip" showname="Internet Protocol Version 4, Src: 10.0.14.1, Dst: 10.0.17.1" size="20" pos="14">
    <field name="filtered" value="ip" />
  </proto>
  <proto name="udp" showname="User Datagram Protocol, Src Port: 8805, Dst Port: 8805" size="8" pos="34">
    <field name="filtered" value="udp" />
  </proto>
  <proto name="pfcp" showname="Packet Forwarding Control Protocol" size="16" pos="42">
    <field name="pfcp.flags" showname="Flags: 0x20" size="1" pos="42" show="0x00000020" value="20">
      <field name="pfcp.version" showname="001. .... = Version: 1" size="1" pos="42" show="1" value="1" unmaskedvalue="20"/>
      <field name="pfcp.spare_b4" showname="...0 .... = Spare: 0" size="1" pos="42" show="0" value="0" unmaskedvalue="20"/>
      <field name="pfcp.spare_b3" showname=".... 0... = Spare: 0" size="1" pos="42" show="0" value="0" unmaskedvalue="20"/>
      <field name="pfcp.spare_b2" showname=".... .0.. = Spare: 0" size="1" pos="42" show="0" value="0" unmaskedvalue="20"/>
      <field name="pfcp.mp_flag" showname=".... ..0. = Message Priority (MP): False" size="1" pos="42" show="0" value="0" unmaskedvalue="20"/>
      <field name="pfcp.s" showname=".... ...0 = SEID (S): False" size="1" pos="42" show="0" value="0" unmaskedvalue="20"/>
    </field>
    <field name="pfcp.msg_type" showname="Message Type: PFCP Heartbeat Request (1)" size="1" pos="43" show="1" value="01"/>
    <field name="pfcp.length" showname="Length: 12" size="2" pos="44" show="12" value="000c"/>
    <field name="pfcp.seqno" showname="Sequence Number: 21" size="3" pos="46" show="21" value="000015"/>
    <field name="pfcp.spare_oct" showname="Spare: 0" size="1" pos="49" show="0" value="00"/>
    <field name="" show="Recovery Time Stamp : May 19, 2023 20:57:06.000000000 UTC" size="8" pos="50" value="00600004e8126122">
      <field name="pfcp.ie_type" showname="IE Type: Recovery Time Stamp (96)" size="2" pos="50" show="96" value="0060"/>
      <field name="pfcp.ie_len" showname="IE Length: 4" size="2" pos="52" show="4" value="0004"/>
      <field name="pfcp.recovery_time_stamp" showname="Recovery Time Stamp: May 19, 2023 20:57:06.000000000 UTC" size="4" pos="54" show="May 19, 2023 22:57:06.000000000 CEST" value="e8126122"/>
    </field>
    <field name="pfcp.response_in" showname="Response In: 11" size="0" pos="42" show="11"/>
  </proto>
</packet>


<packet>
  <proto name="geninfo" pos="0" showname="General information" size="58">
    <field name="num" pos="0" show="10" showname="Number" value="a" size="58"/>
    <field name="len" pos="0" show="58" showname="Frame Length" value="3a" size="58"/>
    <field name="caplen" pos="0" show="58" showname="Captured Length" value="3a" size="58"/>
    <field name="timestamp" pos="0" show="May 19, 2023 23:00:27.503707286 CEST" showname="Captured Time" value="1684530027.503707286" size="58"/>
  </proto>
  <proto name="frame" showname="Frame 10: 58 bytes on wire (464 bits), 58 bytes captured (464 bits) on interface veth_upf, id 0" size="58" pos="0">
    <field name="filtered" value="frame" />
  </proto>
  <proto name="eth" showname="Ethernet II, Src: 2a:84:b5:31:92:1e, Dst: ca:af:68:06:90:ef" size="14" pos="0">
    <field name="filtered" value="eth" />
  </proto>
  <proto name="ip" showname="Internet Protocol Version 4, Src: 10.0.17.1, Dst: 10.0.14.1" size="20" pos="14">
    <field name="filtered" value="ip" />
  </proto>
  <proto name="udp" showname="User Datagram Protocol, Src Port: 8805, Dst Port: 8805" size="8" pos="34">
    <field name="filtered" value="udp" />
  </proto>
  <proto name="pfcp" showname="Packet Forwarding Control Protocol" size="16" pos="42">
    <field name="pfcp.flags" showname="Flags: 0x20" size="1" pos="42" show="0x00000020" value="20">
      <field name="pfcp.version" showname="001. .... = Version: 1" size="1" pos="42" show="1" value="1" unmaskedvalue="20"/>
      <field name="pfcp.spare_b4" showname="...0 .... = Spare: 0" size="1" pos="42" show="0" value="0" unmaskedvalue="20"/>
      <field name="pfcp.spare_b3" showname=".... 0... = Spare: 0" size="1" pos="42" show="0" value="0" unmaskedvalue="20"/>
      <field name="pfcp.spare_b2" showname=".... .0.. = Spare: 0" size="1" pos="42" show="0" value="0" unmaskedvalue="20"/>
      <field name="pfcp.mp_flag" showname=".... ..0. = Message Priority (MP): False" size="1" pos="42" show="0" value="0" unmaskedvalue="20"/>
      <field name="pfcp.s" showname=".... ...0 = SEID (S): False" size="1" pos="42" show="0" value="0" unmaskedvalue="20"/>
    </field>
    <field name="pfcp.msg_type" showname="Message Type: PFCP Heartbeat Request (1)" size="1" pos="43" show="1" value="01"/>
    <field name="pfcp.length" showname="Length: 12" size="2" pos="44" show="12" value="000c"/>
    <field name="pfcp.seqno" showname="Sequence Number: 17" size="3" pos="46" show="17" value="000011"/>
    <field name="pfcp.spare_oct" showname="Spare: 0" size="1" pos="49" show="0" value="00"/>
    <field name="" show="Recovery Time Stamp : May 19, 2023 20:57:14.000000000 UTC" size="8" pos="50" value="00600004e812612a">
      <field name="pfcp.ie_type" showname="IE Type: Recovery Time Stamp (96)" size="2" pos="50" show="96" value="0060"/>
      <field name="pfcp.ie_len" showname="IE Length: 4" size="2" pos="52" show="4" value="0004"/>
      <field name="pfcp.recovery_time_stamp" showname="Recovery Time Stamp: May 19, 2023 20:57:14.000000000 UTC" size="4" pos="54" show="May 19, 2023 22:57:14.000000000 CEST" value="e812612a"/>
    </field>
    <field name="pfcp.response_in" showname="Response In: 12" size="0" pos="42" show="12"/>
  </proto>
</packet>


<packet>
  <proto name="geninfo" pos="0" showname="General information" size="58">
    <field name="num" pos="0" show="11" showname="Number" value="b" size="58"/>
    <field name="len" pos="0" show="58" showname="Frame Length" value="3a" size="58"/>
    <field name="caplen" pos="0" show="58" showname="Captured Length" value="3a" size="58"/>
    <field name="timestamp" pos="0" show="May 19, 2023 23:00:27.504004448 CEST" showname="Captured Time" value="1684530027.504004448" size="58"/>
  </proto>
  <proto name="frame" showname="Frame 11: 58 bytes on wire (464 bits), 58 bytes captured (464 bits) on interface veth_upf, id 0" size="58" pos="0">
    <field name="filtered" value="frame" />
  </proto>
  <proto name="eth" showname="Ethernet II, Src: 2a:84:b5:31:92:1e, Dst: ca:af:68:06:90:ef" size="14" pos="0">
    <field name="filtered" value="eth" />
  </proto>
  <proto name="ip" showname="Internet Protocol Version 4, Src: 10.0.17.1, Dst: 10.0.14.1" size="20" pos="14">
    <field name="filtered" value="ip" />
  </proto>
  <proto name="udp" showname="User Datagram Protocol, Src Port: 8805, Dst Port: 8805" size="8" pos="34">
    <field name="filtered" value="udp" />
  </proto>
  <proto name="pfcp" showname="Packet Forwarding Control Protocol" size="16" pos="42">
    <field name="pfcp.flags" showname="Flags: 0x20" size="1" pos="42" show="0x00000020" value="20">
      <field name="pfcp.version" showname="001. .... = Version: 1" size="1" pos="42" show="1" value="1" unmaskedvalue="20"/>
      <field name="pfcp.spare_b4" showname="...0 .... = Spare: 0" size="1" pos="42" show="0" value="0" unmaskedvalue="20"/>
      <field name="pfcp.spare_b3" showname=".... 0... = Spare: 0" size="1" pos="42" show="0" value="0" unmaskedvalue="20"/>
      <field name="pfcp.spare_b2" showname=".... .0.. = Spare: 0" size="1" pos="42" show="0" value="0" unmaskedvalue="20"/>
      <field name="pfcp.mp_flag" showname=".... ..0. = Message Priority (MP): False" size="1" pos="42" show="0" value="0" unmaskedvalue="20"/>
      <field name="pfcp.s" showname=".... ...0 = SEID (S): False" size="1" pos="42" show="0" value="0" unmaskedvalue="20"/>
    </field>
    <field name="pfcp.msg_type" showname="Message Type: PFCP Heartbeat Response (2)" size="1" pos="43" show="2" value="02"/>
    <field name="pfcp.length" showname="Length: 12" size="2" pos="44" show="12" value="000c"/>
    <field name="pfcp.seqno" showname="Sequence Number: 21" size="3" pos="46" show="21" value="000015"/>
    <field name="pfcp.spare_oct" showname="Spare: 0" size="1" pos="49" show="0" value="00"/>
    <field name="" show="Recovery Time Stamp : May 19, 2023 20:57:14.000000000 UTC" size="8" pos="50" value="00600004e812612a">
      <field name="pfcp.ie_type" showname="IE Type: Recovery Time Stamp (96)" size="2" pos="50" show="96" value="0060"/>
      <field name="pfcp.ie_len" showname="IE Length: 4" size="2" pos="52" show="4" value="0004"/>
      <field name="pfcp.recovery_time_stamp" showname="Recovery Time Stamp: May 19, 2023 20:57:14.000000000 UTC" size="4" pos="54" show="May 19, 2023 22:57:14.000000000 CEST" value="e812612a"/>
    </field>
    <field name="pfcp.response_to" showname="Response To: 9" size="0" pos="42" show="9"/>
    <field name="pfcp.response_time" showname="Response Time: 0.000149583 seconds" size="0" pos="42" show="0.000149583"/>
  </proto>
</packet>


<packet>
  <proto name="geninfo" pos="0" showname="General information" size="58">
    <field name="num" pos="0" show="12" showname="Number" value="c" size="58"/>
    <field name="len" pos="0" show="58" showname="Frame Length" value="3a" size="58"/>
    <field name="caplen" pos="0" show="58" showname="Captured Length" value="3a" size="58"/>
    <field name="timestamp" pos="0" show="May 19, 2023 23:00:27.504247007 CEST" showname="Captured Time" value="1684530027.504247007" size="58"/>
  </proto>
  <proto name="frame" showname="Frame 12: 58 bytes on wire (464 bits), 58 bytes captured (464 bits) on interface veth_upf, id 0" size="58" pos="0">
    <field name="filtered" value="frame" />
  </proto>
  <proto name="eth" showname="Ethernet II, Src: ca:af:68:06:90:ef, Dst: 2a:84:b5:31:92:1e" size="14" pos="0">
    <field name="filtered" value="eth" />
  </proto>
  <proto name="ip" showname="Internet Protocol Version 4, Src: 10.0.14.1, Dst: 10.0.17.1" size="20" pos="14">
    <field name="filtered" value="ip" />
  </proto>
  <proto name="udp" showname="User Datagram Protocol, Src Port: 8805, Dst Port: 8805" size="8" pos="34">
    <field name="filtered" value="udp" />
  </proto>
  <proto name="pfcp" showname="Packet Forwarding Control Protocol" size="16" pos="42">
    <field name="pfcp.flags" showname="Flags: 0x20" size="1" pos="42" show="0x00000020" value="20">
      <field name="pfcp.version" showname="001. .... = Version: 1" size="1" pos="42" show="1" value="1" unmaskedvalue="20"/>
      <field name="pfcp.spare_b4" showname="...0 .... = Spare: 0" size="1" pos="42" show="0" value="0" unmaskedvalue="20"/>
      <field name="pfcp.spare_b3" showname=".... 0... = Spare: 0" size="1" pos="42" show="0" value="0" unmaskedvalue="20"/>
      <field name="pfcp.spare_b2" showname=".... .0.. = Spare: 0" size="1" pos="42" show="0" value="0" unmaskedvalue="20"/>
      <field name="pfcp.mp_flag" showname=".... ..0. = Message Priority (MP): False" size="1" pos="42" show="0" value="0" unmaskedvalue="20"/>
      <field name="pfcp.s" showname=".... ...0 = SEID (S): False" size="1" pos="42" show="0" value="0" unmaskedvalue="20"/>
    </field>
    <field name="pfcp.msg_type" showname="Message Type: PFCP Heartbeat Response (2)" size="1" pos="43" show="2" value="02"/>
    <field name="pfcp.length" showname="Length: 12" size="2" pos="44" show="12" value="000c"/>
    <field name="pfcp.seqno" showname="Sequence Number: 17" size="3" pos="46" show="17" value="000011"/>
    <field name="pfcp.spare_oct" showname="Spare: 0" size="1" pos="49" show="0" value="00"/>
    <field name="" show="Recovery Time Stamp : May 19, 2023 20:57:06.000000000 UTC" size="8" pos="50" value="00600004e8126122">
      <field name="pfcp.ie_type" showname="IE Type: Recovery Time Stamp (96)" size="2" pos="50" show="96" value="0060"/>
      <field name="pfcp.ie_len" showname="IE Length: 4" size="2" pos="52" show="4" value="0004"/>
      <field name="pfcp.recovery_time_stamp" showname="Recovery Time Stamp: May 19, 2023 20:57:06.000000000 UTC" size="4" pos="54" show="May 19, 2023 22:57:06.000000000 CEST" value="e8126122"/>
    </field>
    <field name="pfcp.response_to" showname="Response To: 10" size="0" pos="42" show="10"/>
    <field name="pfcp.response_time" showname="Response Time: 0.000539721 seconds" size="0" pos="42" show="0.000539721"/>
  </proto>
</packet>


<packet>
  <proto name="geninfo" pos="0" showname="General information" size="81">
    <field name="num" pos="0" show="13" showname="Number" value="d" size="81"/>
    <field name="len" pos="0" show="81" showname="Frame Length" value="51" size="81"/>
    <field name="caplen" pos="0" show="81" showname="Captured Length" value="51" size="81"/>
    <field name="timestamp" pos="0" show="May 19, 2023 23:00:32.188883932 CEST" showname="Captured Time" value="1684530032.188883932" size="81"/>
  </proto>
  <proto name="frame" showname="Frame 13: 81 bytes on wire (648 bits), 81 bytes captured (648 bits) on interface veth_upf, id 0" size="81" pos="0">
    <field name="filtered" value="frame" />
  </proto>
  <proto name="eth" showname="Ethernet II, Src: ca:af:68:06:90:ef, Dst: 2a:84:b5:31:92:1e" size="14" pos="0">
    <field name="filtered" value="eth" />
  </proto>
  <proto name="ip" showname="Internet Protocol Version 4, Src: 10.0.14.1, Dst: 10.0.17.1" size="20" pos="14">
    <field name="filtered" value="ip" />
  </proto>
  <proto name="udp" showname="User Datagram Protocol, Src Port: 8805, Dst Port: 8805" size="8" pos="34">
    <field name="filtered" value="udp" />
  </proto>
  <proto name="pfcp" showname="Packet Forwarding Control Protocol" size="39" pos="42">
    <field name="pfcp.flags" showname="Flags: 0x21, SEID (S)" size="1" pos="42" show="0x00000021" value="21">
      <field name="pfcp.version" showname="001. .... = Version: 1" size="1" pos="42" show="1" value="1" unmaskedvalue="21"/>
      <field name="pfcp.spare_b4" showname="...0 .... = Spare: 0" size="1" pos="42" show="0" value="0" unmaskedvalue="21"/>
      <field name="pfcp.spare_b3" showname=".... 0... = Spare: 0" size="1" pos="42" show="0" value="0" unmaskedvalue="21"/>
      <field name="pfcp.spare_b2" showname=".... .0.. = Spare: 0" size="1" pos="42" show="0" value="0" unmaskedvalue="21"/>
      <field name="pfcp.mp_flag" showname=".... ..0. = Message Priority (MP): False" size="1" pos="42" show="0" value="0" unmaskedvalue="21"/>
      <field name="pfcp.s" showname=".... ...1 = SEID (S): True" size="1" pos="42" show="1" value="1" unmaskedvalue="21"/>
    </field>
    <field name="pfcp.msg_type" showname="Message Type: PFCP Session Modification Request (52)" size="1" pos="43" show="52" value="34"/>
    <field name="pfcp.length" showname="Length: 35" size="2" pos="44" show="35" value="0023"/>
    <field name="pfcp.seid" showname="SEID: 0x0000000000000001" size="8" pos="46" show="0x0000000000000001" value="0000000000000001"/>
    <field name="pfcp.seqno" showname="Sequence Number: 22" size="3" pos="54" show="22" value="000016"/>
    <field name="pfcp.spare_oct" showname="Spare: 0" size="1" pos="57" show="0" value="00"/>
    <field name="" show="Update FAR : [Grouped IE]" size="23" pos="58" value="000a0013006c000400000001002c00020c000058000101">
      <field name="pfcp.ie_type" showname="IE Type: Update FAR (10)" size="2" pos="58" show="10" value="000a"/>
      <field name="pfcp.ie_len" showname="IE Length: 19" size="2" pos="60" show="19" value="0013"/>
      <field name="" show="FAR ID : Dynamic by CP 1" size="8" pos="62" value="006c000400000001">
        <field name="pfcp.ie_type" showname="IE Type: FAR ID (108)" size="2" pos="62" show="108" value="006c"/>
        <field name="pfcp.ie_len" showname="IE Length: 4" size="2" pos="64" show="4" value="0004"/>
        <field name="pfcp.far_id_flg" showname="0... .... .... .... .... .... .... .... = Allocation type: Dynamic by CP" size="4" pos="66" show="0" value="0" unmaskedvalue="00000001"/>
        <field name="pfcp.far_id" showname=".000 0000 0000 0000 0000 0000 0000 0001 = FAR ID: 1" size="4" pos="66" show="1" value="1" unmaskedvalue="00000001"/>
      </field>
      <field name="" show="Apply Action : " size="6" pos="70" value="002c00020c00">
        <field name="pfcp.ie_type" showname="IE Type: Apply Action (44)" size="2" pos="70" show="44" value="002c"/>
        <field name="pfcp.ie_len" showname="IE Length: 2" size="2" pos="72" show="2" value="0002"/>
        <field name="pfcp.apply_action_flags" showname="Flags: 0x0c, NOCP (Notify the CP function), BUFF (Buffer)" size="1" pos="74" show="0x0000000c" value="0c">
          <field name="pfcp.spare_b7_b5" showname="000. .... = Spare: 0" size="1" pos="74" show="0" value="0" unmaskedvalue="0c"/>
          <field name="pfcp.apply_action.dupl" showname="...0 .... = DUPL (Duplicate): False" size="1" pos="74" show="0" value="0" unmaskedvalue="0c"/>
          <field name="pfcp.apply_action.nocp" showname=".... 1... = NOCP (Notify the CP function): True" size="1" pos="74" show="1" value="1" unmaskedvalue="0c"/>
          <field name="pfcp.apply_action.buff" showname=".... .1.. = BUFF (Buffer): True" size="1" pos="74" show="1" value="1" unmaskedvalue="0c"/>
          <field name="pfcp.apply_action.forw" showname=".... ..0. = FORW (Forward): False" size="1" pos="74" show="0" value="0" unmaskedvalue="0c"/>
          <field name="pfcp.apply_action.drop" showname=".... ...0 = DROP (Drop): False" size="1" pos="74" show="0" value="0" unmaskedvalue="0c"/>
        </field>
        <field name="" show="IE data not decoded by WS yet" size="1" pos="75" value="00">
          <field name="_ws.expert" showname="Expert Info (Note/Undecoded): IE data not decoded by WS yet" size="0" pos="75">
            <field name="pfcp.ie_data_not_decoded" showname="IE data not decoded by WS yet" size="0" pos="0" show="" value=""/>
            <field name="_ws.expert.message" showname="Message: IE data not decoded by WS yet" hide="yes" size="0" pos="0" show="IE data not decoded by WS yet"/>
            <field name="_ws.expert.severity" showname="Severity level: Note" size="0" pos="0" show="4194304"/>
            <field name="_ws.expert.group" showname="Group: Undecoded" size="0" pos="0" show="83886080"/>
          </field>
        </field>
      </field>
      <field name="" show="BAR ID : 1" size="5" pos="76" value="0058000101">
        <field name="pfcp.ie_type" showname="IE Type: BAR ID (88)" size="2" pos="76" show="88" value="0058"/>
        <field name="pfcp.ie_len" showname="IE Length: 1" size="2" pos="78" show="1" value="0001"/>
        <field name="pfcp.bar_id" showname="BAR ID: 1" size="1" pos="80" show="1" value="01"/>
      </field>
    </field>
    <field name="pfcp.response_in" showname="Response In: 14" size="0" pos="42" show="14"/>
  </proto>
</packet>


<packet>
  <proto name="geninfo" pos="0" showname="General information" size="63">
    <field name="num" pos="0" show="14" showname="Number" value="e" size="63"/>
    <field name="len" pos="0" show="63" showname="Frame Length" value="3f" size="63"/>
    <field name="caplen" pos="0" show="63" showname="Captured Length" value="3f" size="63"/>
    <field name="timestamp" pos="0" show="May 19, 2023 23:00:32.210583391 CEST" showname="Captured Time" value="1684530032.210583391" size="63"/>
  </proto>
  <proto name="frame" showname="Frame 14: 63 bytes on wire (504 bits), 63 bytes captured (504 bits) on interface veth_upf, id 0" size="63" pos="0">
    <field name="filtered" value="frame" />
  </proto>
  <proto name="eth" showname="Ethernet II, Src: 2a:84:b5:31:92:1e, Dst: ca:af:68:06:90:ef" size="14" pos="0">
    <field name="filtered" value="eth" />
  </proto>
  <proto name="ip" showname="Internet Protocol Version 4, Src: 10.0.17.1, Dst: 10.0.14.1" size="20" pos="14">
    <field name="filtered" value="ip" />
  </proto>
  <proto name="udp" showname="User Datagram Protocol, Src Port: 8805, Dst Port: 8805" size="8" pos="34">
    <field name="filtered" value="udp" />
  </proto>
  <proto name="pfcp" showname="Packet Forwarding Control Protocol" size="21" pos="42">
    <field name="pfcp.flags" showname="Flags: 0x21, SEID (S)" size="1" pos="42" show="0x00000021" value="21">
      <field name="pfcp.version" showname="001. .... = Version: 1" size="1" pos="42" show="1" value="1" unmaskedvalue="21"/>
      <field name="pfcp.spare_b4" showname="...0 .... = Spare: 0" size="1" pos="42" show="0" value="0" unmaskedvalue="21"/>
      <field name="pfcp.spare_b3" showname=".... 0... = Spare: 0" size="1" pos="42" show="0" value="0" unmaskedvalue="21"/>
      <field name="pfcp.spare_b2" showname=".... .0.. = Spare: 0" size="1" pos="42" show="0" value="0" unmaskedvalue="21"/>
      <field name="pfcp.mp_flag" showname=".... ..0. = Message Priority (MP): False" size="1" pos="42" show="0" value="0" unmaskedvalue="21"/>
      <field name="pfcp.s" showname=".... ...1 = SEID (S): True" size="1" pos="42" show="1" value="1" unmaskedvalue="21"/>
    </field>
    <field name="pfcp.msg_type" showname="Message Type: PFCP Session Modification Response (53)" size="1" pos="43" show="53" value="35"/>
    <field name="pfcp.length" showname="Length: 17" size="2" pos="44" show="17" value="0011"/>
    <field name="pfcp.seid" showname="SEID: 0x0000000000000001" size="8" pos="46" show="0x0000000000000001" value="0000000000000001"/>
    <field name="pfcp.seqno" showname="Sequence Number: 22" size="3" pos="54" show="22" value="000016"/>
    <field name="pfcp.spare_oct" showname="Spare: 0" size="1" pos="57" show="0" value="00"/>
    <field name="" show="Cause : Request accepted(success)" size="5" pos="58" value="0013000101">
      <field name="pfcp.ie_type" showname="IE Type: Cause (19)" size="2" pos="58" show="19" value="0013"/>
      <field name="pfcp.ie_len" showname="IE Length: 1" size="2" pos="60" show="1" value="0001"/>
      <field name="pfcp.cause" showname="Cause: Request accepted(success) (1)" size="1" pos="62" show="1" value="01"/>
    </field>
    <field name="pfcp.response_to" showname="Response To: 13" size="0" pos="42" show="13"/>
    <field name="pfcp.response_time" showname="Response Time: 0.021699459 seconds" size="0" pos="42" show="0.021699459"/>
  </proto>
</packet>


<packet>
  <proto name="geninfo" pos="0" showname="General information" size="58">
    <field name="num" pos="0" show="19" showname="Number" value="13" size="58"/>
    <field name="len" pos="0" show="58" showname="Frame Length" value="3a" size="58"/>
    <field name="caplen" pos="0" show="58" showname="Captured Length" value="3a" size="58"/>
    <field name="timestamp" pos="0" show="May 19, 2023 23:00:38.516730492 CEST" showname="Captured Time" value="1684530038.516730492" size="58"/>
  </proto>
  <proto name="frame" showname="Frame 19: 58 bytes on wire (464 bits), 58 bytes captured (464 bits) on interface veth_upf, id 0" size="58" pos="0">
    <field name="filtered" value="frame" />
  </proto>
  <proto name="eth" showname="Ethernet II, Src: ca:af:68:06:90:ef, Dst: 2a:84:b5:31:92:1e" size="14" pos="0">
    <field name="filtered" value="eth" />
  </proto>
  <proto name="ip" showname="Internet Protocol Version 4, Src: 10.0.14.1, Dst: 10.0.17.1" size="20" pos="14">
    <field name="filtered" value="ip" />
  </proto>
  <proto name="udp" showname="User Datagram Protocol, Src Port: 8805, Dst Port: 8805" size="8" pos="34">
    <field name="filtered" value="udp" />
  </proto>
  <proto name="pfcp" showname="Packet Forwarding Control Protocol" size="16" pos="42">
    <field name="pfcp.flags" showname="Flags: 0x20" size="1" pos="42" show="0x00000020" value="20">
      <field name="pfcp.version" showname="001. .... = Version: 1" size="1" pos="42" show="1" value="1" unmaskedvalue="20"/>
      <field name="pfcp.spare_b4" showname="...0 .... = Spare: 0" size="1" pos="42" show="0" value="0" unmaskedvalue="20"/>
      <field name="pfcp.spare_b3" showname=".... 0... = Spare: 0" size="1" pos="42" show="0" value="0" unmaskedvalue="20"/>
      <field name="pfcp.spare_b2" showname=".... .0.. = Spare: 0" size="1" pos="42" show="0" value="0" unmaskedvalue="20"/>
      <field name="pfcp.mp_flag" showname=".... ..0. = Message Priority (MP): False" size="1" pos="42" show="0" value="0" unmaskedvalue="20"/>
      <field name="pfcp.s" showname=".... ...0 = SEID (S): False" size="1" pos="42" show="0" value="0" unmaskedvalue="20"/>
    </field>
    <field name="pfcp.msg_type" showname="Message Type: PFCP Heartbeat Request (1)" size="1" pos="43" show="1" value="01"/>
    <field name="pfcp.length" showname="Length: 12" size="2" pos="44" show="12" value="000c"/>
    <field name="pfcp.seqno" showname="Sequence Number: 23" size="3" pos="46" show="23" value="000017"/>
    <field name="pfcp.spare_oct" showname="Spare: 0" size="1" pos="49" show="0" value="00"/>
    <field name="" show="Recovery Time Stamp : May 19, 2023 20:57:06.000000000 UTC" size="8" pos="50" value="00600004e8126122">
      <field name="pfcp.ie_type" showname="IE Type: Recovery Time Stamp (96)" size="2" pos="50" show="96" value="0060"/>
      <field name="pfcp.ie_len" showname="IE Length: 4" size="2" pos="52" show="4" value="0004"/>
      <field name="pfcp.recovery_time_stamp" showname="Recovery Time Stamp: May 19, 2023 20:57:06.000000000 UTC" size="4" pos="54" show="May 19, 2023 22:57:06.000000000 CEST" value="e8126122"/>
    </field>
    <field name="pfcp.response_in" showname="Response In: 22" size="0" pos="42" show="22"/>
  </proto>
</packet>


<packet>
  <proto name="geninfo" pos="0" showname="General information" size="58">
    <field name="num" pos="0" show="20" showname="Number" value="14" size="58"/>
    <field name="len" pos="0" show="58" showname="Frame Length" value="3a" size="58"/>
    <field name="caplen" pos="0" show="58" showname="Captured Length" value="3a" size="58"/>
    <field name="timestamp" pos="0" show="May 19, 2023 23:00:38.517073283 CEST" showname="Captured Time" value="1684530038.517073283" size="58"/>
  </proto>
  <proto name="frame" showname="Frame 20: 58 bytes on wire (464 bits), 58 bytes captured (464 bits) on interface veth_upf, id 0" size="58" pos="0">
    <field name="filtered" value="frame" />
  </proto>
  <proto name="eth" showname="Ethernet II, Src: 2a:84:b5:31:92:1e, Dst: ca:af:68:06:90:ef" size="14" pos="0">
    <field name="filtered" value="eth" />
  </proto>
  <proto name="ip" showname="Internet Protocol Version 4, Src: 10.0.17.1, Dst: 10.0.14.1" size="20" pos="14">
    <field name="filtered" value="ip" />
  </proto>
  <proto name="udp" showname="User Datagram Protocol, Src Port: 8805, Dst Port: 8805" size="8" pos="34">
    <field name="filtered" value="udp" />
  </proto>
  <proto name="pfcp" showname="Packet Forwarding Control Protocol" size="16" pos="42">
    <field name="pfcp.flags" showname="Flags: 0x20" size="1" pos="42" show="0x00000020" value="20">
      <field name="pfcp.version" showname="001. .... = Version: 1" size="1" pos="42" show="1" value="1" unmaskedvalue="20"/>
      <field name="pfcp.spare_b4" showname="...0 .... = Spare: 0" size="1" pos="42" show="0" value="0" unmaskedvalue="20"/>
      <field name="pfcp.spare_b3" showname=".... 0... = Spare: 0" size="1" pos="42" show="0" value="0" unmaskedvalue="20"/>
      <field name="pfcp.spare_b2" showname=".... .0.. = Spare: 0" size="1" pos="42" show="0" value="0" unmaskedvalue="20"/>
      <field name="pfcp.mp_flag" showname=".... ..0. = Message Priority (MP): False" size="1" pos="42" show="0" value="0" unmaskedvalue="20"/>
      <field name="pfcp.s" showname=".... ...0 = SEID (S): False" size="1" pos="42" show="0" value="0" unmaskedvalue="20"/>
    </field>
    <field name="pfcp.msg_type" showname="Message Type: PFCP Heartbeat Request (1)" size="1" pos="43" show="1" value="01"/>
    <field name="pfcp.length" showname="Length: 12" size="2" pos="44" show="12" value="000c"/>
    <field name="pfcp.seqno" showname="Sequence Number: 18" size="3" pos="46" show="18" value="000012"/>
    <field name="pfcp.spare_oct" showname="Spare: 0" size="1" pos="49" show="0" value="00"/>
    <field name="" show="Recovery Time Stamp : May 19, 2023 20:57:14.000000000 UTC" size="8" pos="50" value="00600004e812612a">
      <field name="pfcp.ie_type" showname="IE Type: Recovery Time Stamp (96)" size="2" pos="50" show="96" value="0060"/>
      <field name="pfcp.ie_len" showname="IE Length: 4" size="2" pos="52" show="4" value="0004"/>
      <field name="pfcp.recovery_time_stamp" showname="Recovery Time Stamp: May 19, 2023 20:57:14.000000000 UTC" size="4" pos="54" show="May 19, 2023 22:57:14.000000000 CEST" value="e812612a"/>
    </field>
    <field name="pfcp.response_in" showname="Response In: 21" size="0" pos="42" show="21"/>
  </proto>
</packet>


<packet>
  <proto name="geninfo" pos="0" showname="General information" size="58">
    <field name="num" pos="0" show="21" showname="Number" value="15" size="58"/>
    <field name="len" pos="0" show="58" showname="Frame Length" value="3a" size="58"/>
    <field name="caplen" pos="0" show="58" showname="Captured Length" value="3a" size="58"/>
    <field name="timestamp" pos="0" show="May 19, 2023 23:00:38.517170722 CEST" showname="Captured Time" value="1684530038.517170722" size="58"/>
  </proto>
  <proto name="frame" showname="Frame 21: 58 bytes on wire (464 bits), 58 bytes captured (464 bits) on interface veth_upf, id 0" size="58" pos="0">
    <field name="filtered" value="frame" />
  </proto>
  <proto name="eth" showname="Ethernet II, Src: ca:af:68:06:90:ef, Dst: 2a:84:b5:31:92:1e" size="14" pos="0">
    <field name="filtered" value="eth" />
  </proto>
  <proto name="ip" showname="Internet Protocol Version 4, Src: 10.0.14.1, Dst: 10.0.17.1" size="20" pos="14">
    <field name="filtered" value="ip" />
  </proto>
  <proto name="udp" showname="User Datagram Protocol, Src Port: 8805, Dst Port: 8805" size="8" pos="34">
    <field name="filtered" value="udp" />
  </proto>
  <proto name="pfcp" showname="Packet Forwarding Control Protocol" size="16" pos="42">
    <field name="pfcp.flags" showname="Flags: 0x20" size="1" pos="42" show="0x00000020" value="20">
      <field name="pfcp.version" showname="001. .... = Version: 1" size="1" pos="42" show="1" value="1" unmaskedvalue="20"/>
      <field name="pfcp.spare_b4" showname="...0 .... = Spare: 0" size="1" pos="42" show="0" value="0" unmaskedvalue="20"/>
      <field name="pfcp.spare_b3" showname=".... 0... = Spare: 0" size="1" pos="42" show="0" value="0" unmaskedvalue="20"/>
      <field name="pfcp.spare_b2" showname=".... .0.. = Spare: 0" size="1" pos="42" show="0" value="0" unmaskedvalue="20"/>
      <field name="pfcp.mp_flag" showname=".... ..0. = Message Priority (MP): False" size="1" pos="42" show="0" value="0" unmaskedvalue="20"/>
      <field name="pfcp.s" showname=".... ...0 = SEID (S): False" size="1" pos="42" show="0" value="0" unmaskedvalue="20"/>
    </field>
    <field name="pfcp.msg_type" showname="Message Type: PFCP Heartbeat Response (2)" size="1" pos="43" show="2" value="02"/>
    <field name="pfcp.length" showname="Length: 12" size="2" pos="44" show="12" value="000c"/>
    <field name="pfcp.seqno" showname="Sequence Number: 18" size="3" pos="46" show="18" value="000012"/>
    <field name="pfcp.spare_oct" showname="Spare: 0" size="1" pos="49" show="0" value="00"/>
    <field name="" show="Recovery Time Stamp : May 19, 2023 20:57:06.000000000 UTC" size="8" pos="50" value="00600004e8126122">
      <field name="pfcp.ie_type" showname="IE Type: Recovery Time Stamp (96)" size="2" pos="50" show="96" value="0060"/>
      <field name="pfcp.ie_len" showname="IE Length: 4" size="2" pos="52" show="4" value="0004"/>
      <field name="pfcp.recovery_time_stamp" showname="Recovery Time Stamp: May 19, 2023 20:57:06.000000000 UTC" size="4" pos="54" show="May 19, 2023 22:57:06.000000000 CEST" value="e8126122"/>
    </field>
    <field name="pfcp.response_to" showname="Response To: 20" size="0" pos="42" show="20"/>
    <field name="pfcp.response_time" showname="Response Time: 0.000097439 seconds" size="0" pos="42" show="0.000097439"/>
  </proto>
</packet>


<packet>
  <proto name="geninfo" pos="0" showname="General information" size="58">
    <field name="num" pos="0" show="22" showname="Number" value="16" size="58"/>
    <field name="len" pos="0" show="58" showname="Frame Length" value="3a" size="58"/>
    <field name="caplen" pos="0" show="58" showname="Captured Length" value="3a" size="58"/>
    <field name="timestamp" pos="0" show="May 19, 2023 23:00:38.517248991 CEST" showname="Captured Time" value="1684530038.517248991" size="58"/>
  </proto>
  <proto name="frame" showname="Frame 22: 58 bytes on wire (464 bits), 58 bytes captured (464 bits) on interface veth_upf, id 0" size="58" pos="0">
    <field name="filtered" value="frame" />
  </proto>
  <proto name="eth" showname="Ethernet II, Src: 2a:84:b5:31:92:1e, Dst: ca:af:68:06:90:ef" size="14" pos="0">
    <field name="filtered" value="eth" />
  </proto>
  <proto name="ip" showname="Internet Protocol Version 4, Src: 10.0.17.1, Dst: 10.0.14.1" size="20" pos="14">
    <field name="filtered" value="ip" />
  </proto>
  <proto name="udp" showname="User Datagram Protocol, Src Port: 8805, Dst Port: 8805" size="8" pos="34">
    <field name="filtered" value="udp" />
  </proto>
  <proto name="pfcp" showname="Packet Forwarding Control Protocol" size="16" pos="42">
    <field name="pfcp.flags" showname="Flags: 0x20" size="1" pos="42" show="0x00000020" value="20">
      <field name="pfcp.version" showname="001. .... = Version: 1" size="1" pos="42" show="1" value="1" unmaskedvalue="20"/>
      <field name="pfcp.spare_b4" showname="...0 .... = Spare: 0" size="1" pos="42" show="0" value="0" unmaskedvalue="20"/>
      <field name="pfcp.spare_b3" showname=".... 0... = Spare: 0" size="1" pos="42" show="0" value="0" unmaskedvalue="20"/>
      <field name="pfcp.spare_b2" showname=".... .0.. = Spare: 0" size="1" pos="42" show="0" value="0" unmaskedvalue="20"/>
      <field name="pfcp.mp_flag" showname=".... ..0. = Message Priority (MP): False" size="1" pos="42" show="0" value="0" unmaskedvalue="20"/>
      <field name="pfcp.s" showname=".... ...0 = SEID (S): False" size="1" pos="42" show="0" value="0" unmaskedvalue="20"/>
    </field>
    <field name="pfcp.msg_type" showname="Message Type: PFCP Heartbeat Response (2)" size="1" pos="43" show="2" value="02"/>
    <field name="pfcp.length" showname="Length: 12" size="2" pos="44" show="12" value="000c"/>
    <field name="pfcp.seqno" showname="Sequence Number: 23" size="3" pos="46" show="23" value="000017"/>
    <field name="pfcp.spare_oct" showname="Spare: 0" size="1" pos="49" show="0" value="00"/>
    <field name="" show="Recovery Time Stamp : May 19, 2023 20:57:14.000000000 UTC" size="8" pos="50" value="00600004e812612a">
      <field name="pfcp.ie_type" showname="IE Type: Recovery Time Stamp (96)" size="2" pos="50" show="96" value="0060"/>
      <field name="pfcp.ie_len" showname="IE Length: 4" size="2" pos="52" show="4" value="0004"/>
      <field name="pfcp.recovery_time_stamp" showname="Recovery Time Stamp: May 19, 2023 20:57:14.000000000 UTC" size="4" pos="54" show="May 19, 2023 22:57:14.000000000 CEST" value="e812612a"/>
    </field>
    <field name="pfcp.response_to" showname="Response To: 19" size="0" pos="42" show="19"/>
    <field name="pfcp.response_time" showname="Response Time: 0.000518499 seconds" size="0" pos="42" show="0.000518499"/>
  </proto>
</packet>


<packet>
  <proto name="geninfo" pos="0" showname="General information" size="58">
    <field name="num" pos="0" show="23" showname="Number" value="17" size="58"/>
    <field name="len" pos="0" show="58" showname="Frame Length" value="3a" size="58"/>
    <field name="caplen" pos="0" show="58" showname="Captured Length" value="3a" size="58"/>
    <field name="timestamp" pos="0" show="May 19, 2023 23:00:39.123341222 CEST" showname="Captured Time" value="1684530039.123341222" size="58"/>
  </proto>
  <proto name="frame" showname="Frame 23: 58 bytes on wire (464 bits), 58 bytes captured (464 bits) on interface veth_upf, id 0" size="58" pos="0">
    <field name="filtered" value="frame" />
  </proto>
  <proto name="eth" showname="Ethernet II, Src: ca:af:68:06:90:ef, Dst: 2a:84:b5:31:92:1e" size="14" pos="0">
    <field name="filtered" value="eth" />
  </proto>
  <proto name="ip" showname="Internet Protocol Version 4, Src: 10.0.14.1, Dst: 10.0.17.1" size="20" pos="14">
    <field name="filtered" value="ip" />
  </proto>
  <proto name="udp" showname="User Datagram Protocol, Src Port: 8805, Dst Port: 8805" size="8" pos="34">
    <field name="filtered" value="udp" />
  </proto>
  <proto name="pfcp" showname="Packet Forwarding Control Protocol" size="16" pos="42">
    <field name="pfcp.flags" showname="Flags: 0x21, SEID (S)" size="1" pos="42" show="0x00000021" value="21">
      <field name="pfcp.version" showname="001. .... = Version: 1" size="1" pos="42" show="1" value="1" unmaskedvalue="21"/>
      <field name="pfcp.spare_b4" showname="...0 .... = Spare: 0" size="1" pos="42" show="0" value="0" unmaskedvalue="21"/>
      <field name="pfcp.spare_b3" showname=".... 0... = Spare: 0" size="1" pos="42" show="0" value="0" unmaskedvalue="21"/>
      <field name="pfcp.spare_b2" showname=".... .0.. = Spare: 0" size="1" pos="42" show="0" value="0" unmaskedvalue="21"/>
      <field name="pfcp.mp_flag" showname=".... ..0. = Message Priority (MP): False" size="1" pos="42" show="0" value="0" unmaskedvalue="21"/>
      <field name="pfcp.s" showname=".... ...1 = SEID (S): True" size="1" pos="42" show="1" value="1" unmaskedvalue="21"/>
    </field>
    <field name="pfcp.msg_type" showname="Message Type: PFCP Session Deletion Request (54)" size="1" pos="43" show="54" value="36"/>
    <field name="pfcp.length" showname="Length: 12" size="2" pos="44" show="12" value="000c"/>
    <field name="pfcp.seid" showname="SEID: 0x0000000000000001" size="8" pos="46" show="0x0000000000000001" value="0000000000000001"/>
    <field name="pfcp.seqno" showname="Sequence Number: 24" size="3" pos="54" show="24" value="000018"/>
    <field name="pfcp.spare_oct" showname="Spare: 0" size="1" pos="57" show="0" value="00"/>
    <field name="pfcp.response_in" showname="Response In: 24" size="0" pos="42" show="24"/>
  </proto>
</packet>


<packet>
  <proto name="geninfo" pos="0" showname="General information" size="175">
    <field name="num" pos="0" show="24" showname="Number" value="18" size="175"/>
    <field name="len" pos="0" show="175" showname="Frame Length" value="af" size="175"/>
    <field name="caplen" pos="0" show="175" showname="Captured Length" value="af" size="175"/>
    <field name="timestamp" pos="0" show="May 19, 2023 23:00:39.126528983 CEST" showname="Captured Time" value="1684530039.126528983" size="175"/>
  </proto>
  <proto name="frame" showname="Frame 24: 175 bytes on wire (1400 bits), 175 bytes captured (1400 bits) on interface veth_upf, id 0" size="175" pos="0">
    <field name="filtered" value="frame" />
  </proto>
  <proto name="eth" showname="Ethernet II, Src: 2a:84:b5:31:92:1e, Dst: ca:af:68:06:90:ef" size="14" pos="0">
    <field name="filtered" value="eth" />
  </proto>
  <proto name="ip" showname="Internet Protocol Version 4, Src: 10.0.17.1, Dst: 10.0.14.1" size="20" pos="14">
    <field name="filtered" value="ip" />
  </proto>
  <proto name="udp" showname="User Datagram Protocol, Src Port: 8805, Dst Port: 8805" size="8" pos="34">
    <field name="filtered" value="udp" />
  </proto>
  <proto name="pfcp" showname="Packet Forwarding Control Protocol" size="133" pos="42">
    <field name="pfcp.flags" showname="Flags: 0x21, SEID (S)" size="1" pos="42" show="0x00000021" value="21">
      <field name="pfcp.version" showname="001. .... = Version: 1" size="1" pos="42" show="1" value="1" unmaskedvalue="21"/>
      <field name="pfcp.spare_b4" showname="...0 .... = Spare: 0" size="1" pos="42" show="0" value="0" unmaskedvalue="21"/>
      <field name="pfcp.spare_b3" showname=".... 0... = Spare: 0" size="1" pos="42" show="0" value="0" unmaskedvalue="21"/>
      <field name="pfcp.spare_b2" showname=".... .0.. = Spare: 0" size="1" pos="42" show="0" value="0" unmaskedvalue="21"/>
      <field name="pfcp.mp_flag" showname=".... ..0. = Message Priority (MP): False" size="1" pos="42" show="0" value="0" unmaskedvalue="21"/>
      <field name="pfcp.s" showname=".... ...1 = SEID (S): True" size="1" pos="42" show="1" value="1" unmaskedvalue="21"/>
    </field>
    <field name="pfcp.msg_type" showname="Message Type: PFCP Session Deletion Response (55)" size="1" pos="43" show="55" value="37"/>
    <field name="pfcp.length" showname="Length: 129" size="2" pos="44" show="129" value="0081"/>
    <field name="pfcp.seid" showname="SEID: 0x0000000000000001" size="8" pos="46" show="0x0000000000000001" value="0000000000000001"/>
    <field name="pfcp.seqno" showname="Sequence Number: 24" size="3" pos="54" show="24" value="000018"/>
    <field name="pfcp.spare_oct" showname="Spare: 0" size="1" pos="57" show="0" value="00"/>
    <field name="" show="Cause : Request accepted(success)" size="5" pos="58" value="0013000101">
      <field name="pfcp.ie_type" showname="IE Type: Cause (19)" size="2" pos="58" show="19" value="0013"/>
      <field name="pfcp.ie_len" showname="IE Length: 1" size="2" pos="60" show="1" value="0001"/>
      <field name="pfcp.cause" showname="Cause: Request accepted(success) (1)" size="1" pos="62" show="1" value="01"/>
    </field>
    <field name="" show="Usage Report (Session Deletion Response) : [Grouped IE]" size="112" pos="63" value="004f006c00510004000000010068000400000000003f0003000800004c0004e81261f7004200313f000000000000000000000000000000000000000000000000000000000000000000000000000000000000000000000000004300046467e3770045000483aa7e800046000483aa7e80">
      <field name="pfcp.ie_type" showname="IE Type: Usage Report (Session Deletion Response) (79)" size="2" pos="63" show="79" value="004f"/>
      <field name="pfcp.ie_len" showname="IE Length: 108" size="2" pos="65" show="108" value="006c"/>
      <field name="" show="URR ID : Dynamic by CP 1" size="8" pos="67" value="0051000400000001">
        <field name="pfcp.ie_type" showname="IE Type: URR ID (81)" size="2" pos="67" show="81" value="0051"/>
        <field name="pfcp.ie_len" showname="IE Length: 4" size="2" pos="69" show="4" value="0004"/>
        <field name="pfcp.urr_id_flg" showname="0... .... .... .... .... .... .... .... = Allocation type: Dynamic by CP" size="4" pos="71" show="0" value="0" unmaskedvalue="00000001"/>
        <field name="pfcp.urr_id" showname=".000 0000 0000 0000 0000 0000 0000 0001 = URR ID: 1" size="4" pos="71" show="1" value="1" unmaskedvalue="00000001"/>
      </field>
      <field name="" show="UR-SEQN : 0" size="8" pos="75" value="0068000400000000">
        <field name="pfcp.ie_type" showname="IE Type: UR-SEQN (104)" size="2" pos="75" show="104" value="0068"/>
        <field name="pfcp.ie_len" showname="IE Length: 4" size="2" pos="77" show="4" value="0004"/>
        <field name="pfcp.ur_seqn" showname="UR-SEQN: 0" size="4" pos="79" show="0" value="00000000"/>
      </field>
      <field name="" show="Usage Report Trigger : " size="7" pos="83" value="003f0003000800">
        <field name="pfcp.ie_type" showname="IE Type: Usage Report Trigger (63)" size="2" pos="83" show="63" value="003f"/>
        <field name="pfcp.ie_len" showname="IE Length: 3" size="2" pos="85" show="3" value="0003"/>
        <field name="pfcp.usage_report_trigger.immer" showname="0... .... = IMMER (Immediate Report): False" size="1" pos="87" show="0" value="0" unmaskedvalue="00"/>
        <field name="pfcp.usage_report_trigger_flags.droth" showname=".0.. .... = DROTH (Dropped DL Traffic Threshold): False" size="1" pos="87" show="0" value="0" unmaskedvalue="00"/>
        <field name="pfcp.usage_report_trigger_flags.stopt" showname="..0. .... = STOPT (Stop of Traffic): False" size="1" pos="87" show="0" value="0" unmaskedvalue="00"/>
        <field name="pfcp.usage_report_trigger_flags.start" showname="...0 .... = START (Start of Traffic): False" size="1" pos="87" show="0" value="0" unmaskedvalue="00"/>
        <field name="pfcp.usage_report_trigger_flags.quhti" showname=".... 0... = QUHTI (Quota Holding Time): False" size="1" pos="87" show="0" value="0" unmaskedvalue="00"/>
        <field name="pfcp.usage_report_trigger_flags.timth" showname=".... .0.. = TIMTH (Time Threshold): False" size="1" pos="87" show="0" value="0" unmaskedvalue="00"/>
        <field name="pfcp.usage_report_trigger_flags.volth" showname=".... ..0. = VOLTH (Volume Threshold): False" size="1" pos="87" show="0" value="0" unmaskedvalue="00"/>
        <field name="pfcp.usage_report_trigger_flags.perio" showname=".... ...0 = PERIO (Periodic Reporting): False" size="1" pos="87" show="0" value="0" unmaskedvalue="00"/>
        <field name="pfcp.usage_report_trigger_flags.eveth" showname="0... .... = EVETH (Event Threshold): False" size="1" pos="88" show="0" value="0" unmaskedvalue="08"/>
        <field name="pfcp.usage_report_trigger_flags.macar" showname=".0.. .... = MACAR (MAC Addresses Reporting): False" size="1" pos="88" show="0" value="0" unmaskedvalue="08"/>
        <field name="pfcp.usage_report_trigger_flags.envcl" showname="..0. .... = ENVCL (Envelope Closure): False" size="1" pos="88" show="0" value="0" unmaskedvalue="08"/>
        <field name="pfcp.usage_report_trigger.monit" showname="...0 .... = MONIT (Monitoring Time): False" size="1" pos="88" show="0" value="0" unmaskedvalue="08"/>
        <field name="pfcp.usage_report_trigger.term" showname=".... 1... = TERMR (Termination Report): True" size="1" pos="88" show="1" value="1" unmaskedvalue="08"/>
        <field name="pfcp.usage_report_trigger_flags.liusa" showname=".... .0.. = LIUSA (Linked Usage Reporting): False" size="1" pos="88" show="0" value="0" unmaskedvalue="08"/>
        <field name="pfcp.usage_report_trigger_flags.timqu" showname=".... ..0. = TIMQU (Time Quota): False" size="1" pos="88" show="0" value="0" unmaskedvalue="08"/>
        <field name="pfcp.usage_report_trigger_flags.volqu" showname=".... ...0 = VOLQU (Volume Quota): False" size="1" pos="88" show="0" value="0" unmaskedvalue="08"/>
        <field name="pfcp.spare_b7_b2" showname="0000 00.. = Spare: 0" size="1" pos="89" show="0" value="0" unmaskedvalue="00"/>
        <field name="pfcp.usage_report_trigger_flags.tebur" showname=".... ..0. = TEMUR (Termination By UP function Report): False" size="1" pos="89" show="0" value="0" unmaskedvalue="00"/>
        <field name="pfcp.usage_report_trigger_flags.evequ" showname=".... ...0 = EVEQU (Event Quota): False" size="1" pos="89" show="0" value="0" unmaskedvalue="00"/>
      </field>
      <field name="" show="End Time : May 19, 2023 21:00:39.000000000 UTC" size="8" pos="90" value="004c0004e81261f7">
        <field name="pfcp.ie_type" showname="IE Type: End Time (76)" size="2" pos="90" show="76" value="004c"/>
        <field name="pfcp.ie_len" showname="IE Length: 4" size="2" pos="92" show="4" value="0004"/>
        <field name="pfcp.start_time" showname="End Time: May 19, 2023 21:00:39.000000000 UTC" size="4" pos="94" show="May 19, 2023 23:00:39.000000000 CEST" value="e81261f7"/>
      </field>
      <field name="" show="Volume Measurement : " size="53" pos="98" value="004200313f000000000000000000000000000000000000000000000000000000000000000000000000000000000000000000000000">
        <field name="pfcp.ie_type" showname="IE Type: Volume Measurement (66)" size="2" pos="98" show="66" value="0042"/>
        <field name="pfcp.ie_len" showname="IE Length: 49" size="2" pos="100" show="49" value="0031"/>
        <field name="pfcp.volume_measurement" showname="Flags: 0x3f, DLVOL, ULVOL, TOVOL" size="1" pos="102" show="0x0000003f" value="3f">
          <field name="pfcp.spare_b7_b3" showname="0011 1... = Spare: 7" size="1" pos="102" show="7" value="7" unmaskedvalue="3f"/>
          <field name="pfcp.volume_measurement_flags.dlvol" showname=".... .1.. = DLVOL: True" size="1" pos="102" show="1" value="1" unmaskedvalue="3f"/>
          <field name="pfcp.volume_measurement_flags.ulvol" showname=".... ..1. = ULVOL: True" size="1" pos="102" show="1" value="1" unmaskedvalue="3f"/>
          <field name="pfcp.volume_measurement_flags.tovol" showname=".... ...1 = TOVOL: True" size="1" pos="102" show="1" value="1" unmaskedvalue="3f"/>
        </field>
        <field name="pfcp.volume_measurement.tovol" showname="Total Volume: 0" size="8" pos="103" show="0" value="0000000000000000"/>
        <field name="pfcp.volume_measurement.ulvol" showname="Uplink Volume: 0" size="8" pos="111" show="0" value="0000000000000000"/>
        <field name="pfcp.volume_measurement.dlvol" showname="Downlink Volume: 0" size="8" pos="119" show="0" value="0000000000000000"/>
        <field name="" show="IE data not decoded by WS yet" size="24" pos="127" value="000000000000000000000000000000000000000000000000">
          <field name="_ws.expert" showname="Expert Info (Note/Undecoded): IE data not decoded by WS yet" size="0" pos="127">
            <field name="pfcp.ie_data_not_decoded" showname="IE data not decoded by WS yet" size="0" pos="0" show="" value=""/>
            <field name="_ws.expert.message" showname="Message: IE data not decoded by WS yet" hide="yes" size="0" pos="0" show="IE data not decoded by WS yet"/>
            <field name="_ws.expert.severity" showname="Severity level: Note" size="0" pos="0" show="4194304"/>
            <field name="_ws.expert.group" showname="Group: Undecoded" size="0" pos="0" show="83886080"/>
          </field>
        </field>
      </field>
      <field name="" show="Duration Measurement : 1684530039 s" size="8" pos="151" value="004300046467e377">
        <field name="pfcp.ie_type" showname="IE Type: Duration Measurement (67)" size="2" pos="151" show="67" value="0043"/>
        <field name="pfcp.ie_len" showname="IE Length: 4" size="2" pos="153" show="4" value="0004"/>
        <field name="pfcp.duration_measurement" showname="Duration: 1684530039" size="4" pos="155" show="1684530039" value="6467e377"/>
      </field>
      <field name="" show="Time of First Packet : NULL" size="8" pos="159" value="0045000483aa7e80">
        <field name="pfcp.ie_type" showname="IE Type: Time of First Packet (69)" size="2" pos="159" show="69" value="0045"/>
        <field name="pfcp.ie_len" showname="IE Length: 4" size="2" pos="161" show="4" value="0004"/>
        <field name="pfcp.time_of_first_packet" showname="Time of First Packet: NULL" size="4" pos="163" show="Jan  1, 1970 01:00:00.000000000 CET" value="83aa7e80"/>
      </field>
      <field name="" show="Time of Last Packet : NULL" size="8" pos="167" value="0046000483aa7e80">
        <field name="pfcp.ie_type" showname="IE Type: Time of Last Packet (70)" size="2" pos="167" show="70" value="0046"/>
        <field name="pfcp.ie_len" showname="IE Length: 4" size="2" pos="169" show="4" value="0004"/>
        <field name="pfcp.time_of_last_packet" showname="Time of Last Packet: NULL" size="4" pos="171" show="Jan  1, 1970 01:00:00.000000000 CET" value="83aa7e80"/>
      </field>
    </field>
    <field name="pfcp.response_to" showname="Response To: 23" size="0" pos="42" show="23"/>
    <field name="pfcp.response_time" showname="Response Time: 0.003187761 seconds" size="0" pos="42" show="0.003187761"/>
  </proto>
</packet>


<packet>
  <proto name="geninfo" pos="0" showname="General information" size="641">
    <field name="num" pos="0" show="25" showname="Number" value="19" size="641"/>
    <field name="len" pos="0" show="641" showname="Frame Length" value="281" size="641"/>
    <field name="caplen" pos="0" show="641" showname="Captured Length" value="281" size="641"/>
    <field name="timestamp" pos="0" show="May 19, 2023 23:00:39.730559570 CEST" showname="Captured Time" value="1684530039.730559570" size="641"/>
  </proto>
  <proto name="frame" showname="Frame 25: 641 bytes on wire (5128 bits), 641 bytes captured (5128 bits) on interface veth_upf, id 0" size="641" pos="0">
    <field name="filtered" value="frame" />
  </proto>
  <proto name="eth" showname="Ethernet II, Src: ca:af:68:06:90:ef, Dst: 2a:84:b5:31:92:1e" size="14" pos="0">
    <field name="filtered" value="eth" />
  </proto>
  <proto name="ip" showname="Internet Protocol Version 4, Src: 10.0.14.1, Dst: 10.0.17.1" size="20" pos="14">
    <field name="filtered" value="ip" />
  </proto>
  <proto name="udp" showname="User Datagram Protocol, Src Port: 8805, Dst Port: 8805" size="8" pos="34">
    <field name="filtered" value="udp" />
  </proto>
  <proto name="pfcp" showname="Packet Forwarding Control Protocol" size="599" pos="42">
    <field name="pfcp.flags" showname="Flags: 0x21, SEID (S)" size="1" pos="42" show="0x00000021" value="21">
      <field name="pfcp.version" showname="001. .... = Version: 1" size="1" pos="42" show="1" value="1" unmaskedvalue="21"/>
      <field name="pfcp.spare_b4" showname="...0 .... = Spare: 0" size="1" pos="42" show="0" value="0" unmaskedvalue="21"/>
      <field name="pfcp.spare_b3" showname=".... 0... = Spare: 0" size="1" pos="42" show="0" value="0" unmaskedvalue="21"/>
      <field name="pfcp.spare_b2" showname=".... .0.. = Spare: 0" size="1" pos="42" show="0" value="0" unmaskedvalue="21"/>
      <field name="pfcp.mp_flag" showname=".... ..0. = Message Priority (MP): False" size="1" pos="42" show="0" value="0" unmaskedvalue="21"/>
      <field name="pfcp.s" showname=".... ...1 = SEID (S): True" size="1" pos="42" show="1" value="1" unmaskedvalue="21"/>
    </field>
    <field name="pfcp.msg_type" showname="Message Type: PFCP Session Establishment Request (50)" size="1" pos="43" show="50" value="32"/>
    <field name="pfcp.length" showname="Length: 595" size="2" pos="44" show="595" value="0253"/>
    <field name="pfcp.seid" showname="SEID: 0x0000000000000000" size="8" pos="46" show="0x0000000000000000" value="0000000000000000"/>
    <field name="pfcp.seqno" showname="Sequence Number: 25" size="3" pos="54" show="25" value="000019"/>
    <field name="pfcp.spare_oct" showname="Spare: 0" size="1" pos="57" show="0" value="00"/>
    <field name="" show="Node ID : IPv4 address: 10.0.14.1" size="9" pos="58" value="003c0005000a000e01">
      <field name="pfcp.ie_type" showname="IE Type: Node ID (60)" size="2" pos="58" show="60" value="003c"/>
      <field name="pfcp.ie_len" showname="IE Length: 5" size="2" pos="60" show="5" value="0005"/>
      <field name="pfcp.spare_h1" showname="0000 .... = Spare: 0" size="1" pos="62" show="0" value="0" unmaskedvalue="00"/>
      <field name="pfcp.node_id_type" showname=".... 0000 = Node ID Type: IPv4 address (0)" size="1" pos="62" show="0" value="0" unmaskedvalue="00"/>
      <field name="pfcp.node_id_ipv4" showname="Node ID IPv4: 10.0.14.1" size="4" pos="63" show="10.0.14.1" value="0a000e01"/>
    </field>
    <field name="" show="F-SEID : SEID: 0x0000000000000002, IPv4 10.0.14.1" size="17" pos="67" value="0039000d0200000000000000020a000e01">
      <field name="pfcp.ie_type" showname="IE Type: F-SEID (57)" size="2" pos="67" show="57" value="0039"/>
      <field name="pfcp.ie_len" showname="IE Length: 13" size="2" pos="69" show="13" value="000d"/>
      <field name="pfcp.f_seid_flags" showname="Flags: 0x02, V4 (IPv4)" size="1" pos="71" show="0x00000002" value="02">
        <field name="pfcp.spare_b7" showname="0... .... = Spare: 0" size="1" pos="71" show="0" value="0" unmaskedvalue="02"/>
        <field name="pfcp.spare_b6" showname=".0.. .... = Spare: 0" size="1" pos="71" show="0" value="0" unmaskedvalue="02"/>
        <field name="pfcp.spare_b5" showname="..0. .... = Spare: 0" size="1" pos="71" show="0" value="0" unmaskedvalue="02"/>
        <field name="pfcp.spare_b4" showname="...0 .... = Spare: 0" size="1" pos="71" show="0" value="0" unmaskedvalue="02"/>
        <field name="pfcp.spare_b3" showname=".... 0... = Spare: 0" size="1" pos="71" show="0" value="0" unmaskedvalue="02"/>
        <field name="pfcp.spare_b2" showname=".... .0.. = Spare: 0" size="1" pos="71" show="0" value="0" unmaskedvalue="02"/>
        <field name="pfcp.f_seid_flags.v4" showname=".... ..1. = V4 (IPv4): Present" size="1" pos="71" show="1" value="1" unmaskedvalue="02"/>
        <field name="pfcp.f_seid_flags.v6" showname=".... ...0 = V6 (IPv6): Not Present" size="1" pos="71" show="0" value="0" unmaskedvalue="02"/>
      </field>
      <field name="pfcp.seid" showname="SEID: 0x0000000000000002" size="8" pos="72" show="0x0000000000000002" value="0000000000000002"/>
      <field name="pfcp.f_seid.ipv4" showname="IPv4 address: 10.0.14.1" size="4" pos="80" show="10.0.14.1" value="0a000e01"/>
    </field>
    <field name="" show="Create PDR : [Grouped IE]" size="76" pos="84" value="00010048003800020001001d0004000000ff0002001e00140001010016000c0b437573746f6d536c696365005d0005060a2d0003006c0004000000010051000400000001006d000400000001">
      <field name="pfcp.ie_type" showname="IE Type: Create PDR (1)" size="2" pos="84" show="1" value="0001"/>
      <field name="pfcp.ie_len" showname="IE Length: 72" size="2" pos="86" show="72" value="0048"/>
      <field name="" show="PDR ID : 1" size="6" pos="88" value="003800020001">
        <field name="pfcp.ie_type" showname="IE Type: PDR ID (56)" size="2" pos="88" show="56" value="0038"/>
        <field name="pfcp.ie_len" showname="IE Length: 2" size="2" pos="90" show="2" value="0002"/>
        <field name="pfcp.pdr_id" showname="Rule ID: 1" size="2" pos="92" show="1" value="0001"/>
      </field>
      <field name="" show="Precedence : 255" size="8" pos="94" value="001d0004000000ff">
        <field name="pfcp.ie_type" showname="IE Type: Precedence (29)" size="2" pos="94" show="29" value="001d"/>
        <field name="pfcp.ie_len" showname="IE Length: 4" size="2" pos="96" show="4" value="0004"/>
        <field name="pfcp.precedence" showname="Precedence: 255" size="4" pos="98" show="255" value="000000ff"/>
      </field>
      <field name="" show="PDI : [Grouped IE]" size="34" pos="102" value="0002001e00140001010016000c0b437573746f6d536c696365005d0005060a2d0003">
        <field name="pfcp.ie_type" showname="IE Type: PDI (2)" size="2" pos="102" show="2" value="0002"/>
        <field name="pfcp.ie_len" showname="IE Length: 30" size="2" pos="104" show="30" value="001e"/>
        <field name="" show="Source Interface : Core" size="5" pos="106" value="0014000101">
          <field name="pfcp.ie_type" showname="IE Type: Source Interface (20)" size="2" pos="106" show="20" value="0014"/>
          <field name="pfcp.ie_len" showname="IE Length: 1" size="2" pos="108" show="1" value="0001"/>
          <field name="pfcp.spare_h1" showname="0000 .... = Spare: 0" size="1" pos="110" show="0" value="0" unmaskedvalue="01"/>
          <field name="pfcp.source_interface" showname=".... 0001 = Source Interface: Core (1)" size="1" pos="110" show="1" value="1" unmaskedvalue="01"/>
        </field>
        <field name="" show="Network Instance : CustomSlice" size="16" pos="111" value="0016000c0b437573746f6d536c696365">
          <field name="pfcp.ie_type" showname="IE Type: Network Instance (22)" size="2" pos="111" show="22" value="0016"/>
          <field name="pfcp.ie_len" showname="IE Length: 12" size="2" pos="113" show="12" value="000c"/>
          <field name="pfcp.network_instance" showname="Network Instance: CustomSlice" size="12" pos="115" show="CustomSlice" value="0b437573746f6d536c696365"/>
        </field>
        <field name="" show="UE IP Address : " size="9" pos="127" value="005d0005060a2d0003">
          <field name="pfcp.ie_type" showname="IE Type: UE IP Address (93)" size="2" pos="127" show="93" value="005d"/>
          <field name="pfcp.ie_len" showname="IE Length: 5" size="2" pos="129" show="5" value="0005"/>
          <field name="pfcp.ue_ip_address_flags" showname="Flags: 0x06, S/D, V4 (IPv4)" size="1" pos="131" show="0x00000006" value="06">
            <field name="pfcp.spare_b7_b4" showname="0000 .... = Spare: 0" size="1" pos="131" show="0" value="0" unmaskedvalue="06"/>
            <field name="pfcp.ue_ip_address_flag.v6d" showname=".... 0... = IPv6D: Source IP address" size="1" pos="131" show="0" value="0" unmaskedvalue="06"/>
            <field name="pfcp.ue_ip_address_flag.sd" showname=".... .1.. = S/D: Destination IP address" size="1" pos="131" show="1" value="1" unmaskedvalue="06"/>
            <field name="pfcp.ue_ip_address_flag.v4" showname=".... ..1. = V4 (IPv4): Present" size="1" pos="131" show="1" value="1" unmaskedvalue="06"/>
            <field name="pfcp.ue_ip_address_flag.v6" showname=".... ...0 = V6 (IPv6): Not Present" size="1" pos="131" show="0" value="0" unmaskedvalue="06"/>
          </field>
          <field name="pfcp.ue_ip_addr_ipv4" showname="IPv4 address: 10.45.0.3" size="4" pos="132" show="10.45.0.3" value="0a2d0003"/>
        </field>
      </field>
      <field name="" show="FAR ID : Dynamic by CP 1" size="8" pos="136" value="006c000400000001">
        <field name="pfcp.ie_type" showname="IE Type: FAR ID (108)" size="2" pos="136" show="108" value="006c"/>
        <field name="pfcp.ie_len" showname="IE Length: 4" size="2" pos="138" show="4" value="0004"/>
        <field name="pfcp.far_id_flg" showname="0... .... .... .... .... .... .... .... = Allocation type: Dynamic by CP" size="4" pos="140" show="0" value="0" unmaskedvalue="00000001"/>
        <field name="pfcp.far_id" showname=".000 0000 0000 0000 0000 0000 0000 0001 = FAR ID: 1" size="4" pos="140" show="1" value="1" unmaskedvalue="00000001"/>
      </field>
      <field name="" show="URR ID : Dynamic by CP 1" size="8" pos="144" value="0051000400000001">
        <field name="pfcp.ie_type" showname="IE Type: URR ID (81)" size="2" pos="144" show="81" value="0051"/>
        <field name="pfcp.ie_len" showname="IE Length: 4" size="2" pos="146" show="4" value="0004"/>
        <field name="pfcp.urr_id_flg" showname="0... .... .... .... .... .... .... .... = Allocation type: Dynamic by CP" size="4" pos="148" show="0" value="0" unmaskedvalue="00000001"/>
        <field name="pfcp.urr_id" showname=".000 0000 0000 0000 0000 0000 0000 0001 = URR ID: 1" size="4" pos="148" show="1" value="1" unmaskedvalue="00000001"/>
      </field>
      <field name="" show="QER ID : Dynamic by CP 1" size="8" pos="152" value="006d000400000001">
        <field name="pfcp.ie_type" showname="IE Type: QER ID (109)" size="2" pos="152" show="109" value="006d"/>
        <field name="pfcp.ie_len" showname="IE Length: 4" size="2" pos="154" show="4" value="0004"/>
        <field name="pfcp.qer_id_flg" showname="0... .... .... .... .... .... .... .... = Allocation type: Dynamic by CP" size="4" pos="156" show="0" value="0" unmaskedvalue="00000001"/>
        <field name="pfcp.qer_id" showname=".000 0000 0000 0000 0000 0000 0000 0001 = QER ID: 1" size="4" pos="156" show="1" value="1" unmaskedvalue="00000001"/>
      </field>
    </field>
    <field name="" show="Create PDR : [Grouped IE]" size="85" pos="160" value="00010051003800020002001d0004000000ff000200290014000100001500020f050016000c0b437573746f6d536c696365005d0005020a2d0003007c000101005f00020001006c000400000002006d000400000001">
      <field name="pfcp.ie_type" showname="IE Type: Create PDR (1)" size="2" pos="160" show="1" value="0001"/>
      <field name="pfcp.ie_len" showname="IE Length: 81" size="2" pos="162" show="81" value="0051"/>
      <field name="" show="PDR ID : 2" size="6" pos="164" value="003800020002">
        <field name="pfcp.ie_type" showname="IE Type: PDR ID (56)" size="2" pos="164" show="56" value="0038"/>
        <field name="pfcp.ie_len" showname="IE Length: 2" size="2" pos="166" show="2" value="0002"/>
        <field name="pfcp.pdr_id" showname="Rule ID: 2" size="2" pos="168" show="2" value="0002"/>
      </field>
      <field name="" show="Precedence : 255" size="8" pos="170" value="001d0004000000ff">
        <field name="pfcp.ie_type" showname="IE Type: Precedence (29)" size="2" pos="170" show="29" value="001d"/>
        <field name="pfcp.ie_len" showname="IE Length: 4" size="2" pos="172" show="4" value="0004"/>
        <field name="pfcp.precedence" showname="Precedence: 255" size="4" pos="174" show="255" value="000000ff"/>
      </field>
      <field name="" show="PDI : [Grouped IE]" size="45" pos="178" value="000200290014000100001500020f050016000c0b437573746f6d536c696365005d0005020a2d0003007c000101">
        <field name="pfcp.ie_type" showname="IE Type: PDI (2)" size="2" pos="178" show="2" value="0002"/>
        <field name="pfcp.ie_len" showname="IE Length: 41" size="2" pos="180" show="41" value="0029"/>
        <field name="" show="Source Interface : Access" size="5" pos="182" value="0014000100">
          <field name="pfcp.ie_type" showname="IE Type: Source Interface (20)" size="2" pos="182" show="20" value="0014"/>
          <field name="pfcp.ie_len" showname="IE Length: 1" size="2" pos="184" show="1" value="0001"/>
          <field name="pfcp.spare_h1" showname="0000 .... = Spare: 0" size="1" pos="186" show="0" value="0" unmaskedvalue="00"/>
          <field name="pfcp.source_interface" showname=".... 0000 = Source Interface: Access (0)" size="1" pos="186" show="0" value="0" unmaskedvalue="00"/>
        </field>
        <field name="" show="F-TEID : " size="6" pos="187" value="001500020f05">
          <field name="pfcp.ie_type" showname="IE Type: F-TEID (21)" size="2" pos="187" show="21" value="0015"/>
          <field name="pfcp.ie_len" showname="IE Length: 2" size="2" pos="189" show="2" value="0002"/>
          <field name="pfcp.f_teid_flags" showname="Flags: 0x0f, CHID (CHOOSE_ID), CH (CHOOSE), V6 (IPv6), V4 (IPv4)" size="1" pos="191" show="0x0000000f" value="0f">
            <field name="pfcp.fteid_flg.spare" showname="0000 .... = Spare: 0" size="1" pos="191" show="0" value="0" unmaskedvalue="0f"/>
            <field name="pfcp.f_teid_flags.ch_id" showname=".... 1... = CHID (CHOOSE_ID): True" size="1" pos="191" show="1" value="1" unmaskedvalue="0f"/>
            <field name="pfcp.f_teid_flags.ch" showname=".... .1.. = CH (CHOOSE): True" size="1" pos="191" show="1" value="1" unmaskedvalue="0f"/>
            <field name="pfcp.f_teid_flags.v6" showname=".... ..1. = V6 (IPv6): Present" size="1" pos="191" show="1" value="1" unmaskedvalue="0f"/>
            <field name="pfcp.f_teid_flags.v4" showname=".... ...1 = V4 (IPv4): Present" size="1" pos="191" show="1" value="1" unmaskedvalue="0f"/>
          </field>
          <field name="pfcp.f_teid.choose_id" showname="Choose Id: 05" size="1" pos="192" show="05" value="05"/>
        </field>
        <field name="" show="Network Instance : CustomSlice" size="16" pos="193" value="0016000c0b437573746f6d536c696365">
          <field name="pfcp.ie_type" showname="IE Type: Network Instance (22)" size="2" pos="193" show="22" value="0016"/>
          <field name="pfcp.ie_len" showname="IE Length: 12" size="2" pos="195" show="12" value="000c"/>
          <field name="pfcp.network_instance" showname="Network Instance: CustomSlice" size="12" pos="197" show="CustomSlice" value="0b437573746f6d536c696365"/>
        </field>
        <field name="" show="UE IP Address : " size="9" pos="209" value="005d0005020a2d0003">
          <field name="pfcp.ie_type" showname="IE Type: UE IP Address (93)" size="2" pos="209" show="93" value="005d"/>
          <field name="pfcp.ie_len" showname="IE Length: 5" size="2" pos="211" show="5" value="0005"/>
          <field name="pfcp.ue_ip_address_flags" showname="Flags: 0x02, V4 (IPv4)" size="1" pos="213" show="0x00000002" value="02">
            <field name="pfcp.spare_b7_b4" showname="0000 .... = Spare: 0" size="1" pos="213" show="0" value="0" unmaskedvalue="02"/>
            <field name="pfcp.ue_ip_address_flag.v6d" showname=".... 0... = IPv6D: Source IP address" size="1" pos="213" show="0" value="0" unmaskedvalue="02"/>
            <field name="pfcp.ue_ip_address_flag.sd" showname=".... .0.. = S/D: Source IP address" size="1" pos="213" show="0" value="0" unmaskedvalue="02"/>
            <field name="pfcp.ue_ip_address_flag.v4" showname=".... ..1. = V4 (IPv4): Present" size="1" pos="213" show="1" value="1" unmaskedvalue="02"/>
            <field name="pfcp.ue_ip_address_flag.v6" showname=".... ...0 = V6 (IPv6): Not Present" size="1" pos="213" show="0" value="0" unmaskedvalue="02"/>
          </field>
          <field name="pfcp.ue_ip_addr_ipv4" showname="IPv4 address: 10.45.0.3" size="4" pos="214" show="10.45.0.3" value="0a2d0003"/>
        </field>
        <field name="" show="QFI : " size="5" pos="218" value="007c000101">
          <field name="pfcp.ie_type" showname="IE Type: QFI (124)" size="2" pos="218" show="124" value="007c"/>
          <field name="pfcp.ie_len" showname="IE Length: 1" size="2" pos="220" show="1" value="0001"/>
          <field name="pfcp.spare_b7_b6" showname="00.. .... = Spare: 0" size="1" pos="222" show="0" value="0" unmaskedvalue="01"/>
          <field name="pfcp.qfi_value" showname=".000 0001 = QFI: 0x01" size="1" pos="222" show="0x00000001" value="1" unmaskedvalue="01"/>
        </field>
      </field>
      <field name="" show="Outer Header Removal : GTP-U/UDP/IPv4" size="6" pos="223" value="005f00020001">
        <field name="pfcp.ie_type" showname="IE Type: Outer Header Removal (95)" size="2" pos="223" show="95" value="005f"/>
        <field name="pfcp.ie_len" showname="IE Length: 2" size="2" pos="225" show="2" value="0002"/>
        <field name="pfcp.out_hdr_desc" showname="Outer Header Removal Description: GTP-U/UDP/IPv4 (0)" size="1" pos="227" show="0" value="00"/>
        <field name="pfcp.gtpu_ext_hdr_del.pdu_sess_cont" showname=".... ...1 = PDU Session Container to be deleted: True" size="1" pos="228" show="1" value="1" unmaskedvalue="01"/>
      </field>
      <field name="" show="FAR ID : Dynamic by CP 2" size="8" pos="229" value="006c000400000002">
        <field name="pfcp.ie_type" showname="IE Type: FAR ID (108)" size="2" pos="229" show="108" value="006c"/>
        <field name="pfcp.ie_len" showname="IE Length: 4" size="2" pos="231" show="4" value="0004"/>
        <field name="pfcp.far_id_flg" showname="0... .... .... .... .... .... .... .... = Allocation type: Dynamic by CP" size="4" pos="233" show="0" value="0" unmaskedvalue="00000002"/>
        <field name="pfcp.far_id" showname=".000 0000 0000 0000 0000 0000 0000 0010 = FAR ID: 2" size="4" pos="233" show="2" value="2" unmaskedvalue="00000002"/>
      </field>
      <field name="" show="QER ID : Dynamic by CP 1" size="8" pos="237" value="006d000400000001">
        <field name="pfcp.ie_type" showname="IE Type: QER ID (109)" size="2" pos="237" show="109" value="006d"/>
        <field name="pfcp.ie_len" showname="IE Length: 4" size="2" pos="239" show="4" value="0004"/>
        <field name="pfcp.qer_id_flg" showname="0... .... .... .... .... .... .... .... = Allocation type: Dynamic by CP" size="4" pos="241" show="0" value="0" unmaskedvalue="00000001"/>
        <field name="pfcp.qer_id" showname=".000 0000 0000 0000 0000 0000 0000 0001 = QER ID: 1" size="4" pos="241" show="1" value="1" unmaskedvalue="00000001"/>
      </field>
    </field>
    <field name="" show="Create PDR : [Grouped IE]" size="69" pos="245" value="00010041003800020003001d0004000003e80002001a001400010300150001070016000c0b437573746f6d536c696365005f000100006c000400000001006d000400000001">
      <field name="pfcp.ie_type" showname="IE Type: Create PDR (1)" size="2" pos="245" show="1" value="0001"/>
      <field name="pfcp.ie_len" showname="IE Length: 65" size="2" pos="247" show="65" value="0041"/>
      <field name="" show="PDR ID : 3" size="6" pos="249" value="003800020003">
        <field name="pfcp.ie_type" showname="IE Type: PDR ID (56)" size="2" pos="249" show="56" value="0038"/>
        <field name="pfcp.ie_len" showname="IE Length: 2" size="2" pos="251" show="2" value="0002"/>
        <field name="pfcp.pdr_id" showname="Rule ID: 3" size="2" pos="253" show="3" value="0003"/>
      </field>
      <field name="" show="Precedence : 1000" size="8" pos="255" value="001d0004000003e8">
        <field name="pfcp.ie_type" showname="IE Type: Precedence (29)" size="2" pos="255" show="29" value="001d"/>
        <field name="pfcp.ie_len" showname="IE Length: 4" size="2" pos="257" show="4" value="0004"/>
        <field name="pfcp.precedence" showname="Precedence: 1000" size="4" pos="259" show="1000" value="000003e8"/>
      </field>
      <field name="" show="PDI : [Grouped IE]" size="30" pos="263" value="0002001a001400010300150001070016000c0b437573746f6d536c696365">
        <field name="pfcp.ie_type" showname="IE Type: PDI (2)" size="2" pos="263" show="2" value="0002"/>
        <field name="pfcp.ie_len" showname="IE Length: 26" size="2" pos="265" show="26" value="001a"/>
        <field name="" show="Source Interface : CP-function" size="5" pos="267" value="0014000103">
          <field name="pfcp.ie_type" showname="IE Type: Source Interface (20)" size="2" pos="267" show="20" value="0014"/>
          <field name="pfcp.ie_len" showname="IE Length: 1" size="2" pos="269" show="1" value="0001"/>
          <field name="pfcp.spare_h1" showname="0000 .... = Spare: 0" size="1" pos="271" show="0" value="0" unmaskedvalue="03"/>
          <field name="pfcp.source_interface" showname=".... 0011 = Source Interface: CP-function (3)" size="1" pos="271" show="3" value="3" unmaskedvalue="03"/>
        </field>
        <field name="" show="F-TEID : " size="5" pos="272" value="0015000107">
          <field name="pfcp.ie_type" showname="IE Type: F-TEID (21)" size="2" pos="272" show="21" value="0015"/>
          <field name="pfcp.ie_len" showname="IE Length: 1" size="2" pos="274" show="1" value="0001"/>
          <field name="pfcp.f_teid_flags" showname="Flags: 0x07, CH (CHOOSE), V6 (IPv6), V4 (IPv4)" size="1" pos="276" show="0x00000007" value="07">
            <field name="pfcp.fteid_flg.spare" showname="0000 .... = Spare: 0" size="1" pos="276" show="0" value="0" unmaskedvalue="07"/>
            <field name="pfcp.f_teid_flags.ch_id" showname=".... 0... = CHID (CHOOSE_ID): False" size="1" pos="276" show="0" value="0" unmaskedvalue="07"/>
            <field name="pfcp.f_teid_flags.ch" showname=".... .1.. = CH (CHOOSE): True" size="1" pos="276" show="1" value="1" unmaskedvalue="07"/>
            <field name="pfcp.f_teid_flags.v6" showname=".... ..1. = V6 (IPv6): Present" size="1" pos="276" show="1" value="1" unmaskedvalue="07"/>
            <field name="pfcp.f_teid_flags.v4" showname=".... ...1 = V4 (IPv4): Present" size="1" pos="276" show="1" value="1" unmaskedvalue="07"/>
          </field>
        </field>
        <field name="" show="Network Instance : CustomSlice" size="16" pos="277" value="0016000c0b437573746f6d536c696365">
          <field name="pfcp.ie_type" showname="IE Type: Network Instance (22)" size="2" pos="277" show="22" value="0016"/>
          <field name="pfcp.ie_len" showname="IE Length: 12" size="2" pos="279" show="12" value="000c"/>
          <field name="pfcp.network_instance" showname="Network Instance: CustomSlice" size="12" pos="281" show="CustomSlice" value="0b437573746f6d536c696365"/>
        </field>
      </field>
      <field name="" show="Outer Header Removal : GTP-U/UDP/IPv4" size="5" pos="293" value="005f000100">
        <field name="pfcp.ie_type" showname="IE Type: Outer Header Removal (95)" size="2" pos="293" show="95" value="005f"/>
        <field name="pfcp.ie_len" showname="IE Length: 1" size="2" pos="295" show="1" value="0001"/>
        <field name="pfcp.out_hdr_desc" showname="Outer Header Removal Description: GTP-U/UDP/IPv4 (0)" size="1" pos="297" show="0" value="00"/>
      </field>
      <field name="" show="FAR ID : Dynamic by CP 1" size="8" pos="298" value="006c000400000001">
        <field name="pfcp.ie_type" showname="IE Type: FAR ID (108)" size="2" pos="298" show="108" value="006c"/>
        <field name="pfcp.ie_len" showname="IE Length: 4" size="2" pos="300" show="4" value="0004"/>
        <field name="pfcp.far_id_flg" showname="0... .... .... .... .... .... .... .... = Allocation type: Dynamic by CP" size="4" pos="302" show="0" value="0" unmaskedvalue="00000001"/>
        <field name="pfcp.far_id" showname=".000 0000 0000 0000 0000 0000 0000 0001 = FAR ID: 1" size="4" pos="302" show="1" value="1" unmaskedvalue="00000001"/>
      </field>
      <field name="" show="QER ID : Dynamic by CP 1" size="8" pos="306" value="006d000400000001">
        <field name="pfcp.ie_type" showname="IE Type: QER ID (109)" size="2" pos="306" show="109" value="006d"/>
        <field name="pfcp.ie_len" showname="IE Length: 4" size="2" pos="308" show="4" value="0004"/>
        <field name="pfcp.qer_id_flg" showname="0... .... .... .... .... .... .... .... = Allocation type: Dynamic by CP" size="4" pos="310" show="0" value="0" unmaskedvalue="00000001"/>
        <field name="pfcp.qer_id" showname=".000 0000 0000 0000 0000 0000 0000 0001 = QER ID: 1" size="4" pos="310" show="1" value="1" unmaskedvalue="00000001"/>
      </field>
    </field>
    <field name="" show="Create PDR : [Grouped IE]" size="117" pos="314" value="00010071003800020004001d000400000001000200520014000100001500020f050016000c0b437573746f6d536c6963650017002e0100002a7065726d6974206f75742035382066726f6d20666630323a3a322f31323820746f2061737369676e6564007c000101005f000100006c000400000003">
      <field name="pfcp.ie_type" showname="IE Type: Create PDR (1)" size="2" pos="314" show="1" value="0001"/>
      <field name="pfcp.ie_len" showname="IE Length: 113" size="2" pos="316" show="113" value="0071"/>
      <field name="" show="PDR ID : 4" size="6" pos="318" value="003800020004">
        <field name="pfcp.ie_type" showname="IE Type: PDR ID (56)" size="2" pos="318" show="56" value="0038"/>
        <field name="pfcp.ie_len" showname="IE Length: 2" size="2" pos="320" show="2" value="0002"/>
        <field name="pfcp.pdr_id" showname="Rule ID: 4" size="2" pos="322" show="4" value="0004"/>
      </field>
      <field name="" show="Precedence : 1" size="8" pos="324" value="001d000400000001">
        <field name="pfcp.ie_type" showname="IE Type: Precedence (29)" size="2" pos="324" show="29" value="001d"/>
        <field name="pfcp.ie_len" showname="IE Length: 4" size="2" pos="326" show="4" value="0004"/>
        <field name="pfcp.precedence" showname="Precedence: 1" size="4" pos="328" show="1" value="00000001"/>
      </field>
      <field name="" show="PDI : [Grouped IE]" size="86" pos="332" value="000200520014000100001500020f050016000c0b437573746f6d536c6963650017002e0100002a7065726d6974206f75742035382066726f6d20666630323a3a322f31323820746f2061737369676e6564007c000101">
        <field name="pfcp.ie_type" showname="IE Type: PDI (2)" size="2" pos="332" show="2" value="0002"/>
        <field name="pfcp.ie_len" showname="IE Length: 82" size="2" pos="334" show="82" value="0052"/>
        <field name="" show="Source Interface : Access" size="5" pos="336" value="0014000100">
          <field name="pfcp.ie_type" showname="IE Type: Source Interface (20)" size="2" pos="336" show="20" value="0014"/>
          <field name="pfcp.ie_len" showname="IE Length: 1" size="2" pos="338" show="1" value="0001"/>
          <field name="pfcp.spare_h1" showname="0000 .... = Spare: 0" size="1" pos="340" show="0" value="0" unmaskedvalue="00"/>
          <field name="pfcp.source_interface" showname=".... 0000 = Source Interface: Access (0)" size="1" pos="340" show="0" value="0" unmaskedvalue="00"/>
        </field>
        <field name="" show="F-TEID : " size="6" pos="341" value="001500020f05">
          <field name="pfcp.ie_type" showname="IE Type: F-TEID (21)" size="2" pos="341" show="21" value="0015"/>
          <field name="pfcp.ie_len" showname="IE Length: 2" size="2" pos="343" show="2" value="0002"/>
          <field name="pfcp.f_teid_flags" showname="Flags: 0x0f, CHID (CHOOSE_ID), CH (CHOOSE), V6 (IPv6), V4 (IPv4)" size="1" pos="345" show="0x0000000f" value="0f">
            <field name="pfcp.fteid_flg.spare" showname="0000 .... = Spare: 0" size="1" pos="345" show="0" value="0" unmaskedvalue="0f"/>
            <field name="pfcp.f_teid_flags.ch_id" showname=".... 1... = CHID (CHOOSE_ID): True" size="1" pos="345" show="1" value="1" unmaskedvalue="0f"/>
            <field name="pfcp.f_teid_flags.ch" showname=".... .1.. = CH (CHOOSE): True" size="1" pos="345" show="1" value="1" unmaskedvalue="0f"/>
            <field name="pfcp.f_teid_flags.v6" showname=".... ..1. = V6 (IPv6): Present" size="1" pos="345" show="1" value="1" unmaskedvalue="0f"/>
            <field name="pfcp.f_teid_flags.v4" showname=".... ...1 = V4 (IPv4): Present" size="1" pos="345" show="1" value="1" unmaskedvalue="0f"/>
          </field>
          <field name="pfcp.f_teid.choose_id" showname="Choose Id: 05" size="1" pos="346" show="05" value="05"/>
        </field>
        <field name="" show="Network Instance : CustomSlice" size="16" pos="347" value="0016000c0b437573746f6d536c696365">
          <field name="pfcp.ie_type" showname="IE Type: Network Instance (22)" size="2" pos="347" show="22" value="0016"/>
          <field name="pfcp.ie_len" showname="IE Length: 12" size="2" pos="349" show="12" value="000c"/>
          <field name="pfcp.network_instance" showname="Network Instance: CustomSlice" size="12" pos="351" show="CustomSlice" value="0b437573746f6d536c696365"/>
        </field>
        <field name="" show="SDF Filter : " size="50" pos="363" value="0017002e0100002a7065726d6974206f75742035382066726f6d20666630323a3a322f31323820746f2061737369676e6564">
          <field name="pfcp.ie_type" showname="IE Type: SDF Filter (23)" size="2" pos="363" show="23" value="0017"/>
          <field name="pfcp.ie_len" showname="IE Length: 46" size="2" pos="365" show="46" value="002e"/>
          <field name="pfcp.sdf_filter_flags" showname="Flags: 0x01, FD (Flow Description)" size="1" pos="367" show="0x00000001" value="01">
            <field name="pfcp.spare_h1" showname="0000 .... = Spare: 0" size="1" pos="367" show="0" value="0" unmaskedvalue="01"/>
            <field name="pfcp.sdf_filter.bid" showname="...0 .... = BID (Bidirectional SDF Filter): False" size="1" pos="367" show="0" value="0" unmaskedvalue="01"/>
            <field name="pfcp.sdf_filter.fl" showname=".... 0... = FL (Flow Label): False" size="1" pos="367" show="0" value="0" unmaskedvalue="01"/>
            <field name="pfcp.sdf_filter.spi" showname=".... .0.. = SPI (Security Parameter Index): False" size="1" pos="367" show="0" value="0" unmaskedvalue="01"/>
            <field name="pfcp.sdf_filter.ttc" showname=".... ..0. = TTC (ToS Traffic Class): False" size="1" pos="367" show="0" value="0" unmaskedvalue="01"/>
            <field name="pfcp.sdf_filter.fd" showname=".... ...1 = FD (Flow Description): True" size="1" pos="367" show="1" value="1" unmaskedvalue="01"/>
          </field>
          <field name="pfcp.spare" showname="Spare: 0" size="1" pos="368" show="0" value="00"/>
          <field name="pfcp.flow_desc_len" showname="Length of Flow Description: 42" size="2" pos="369" show="42" value="002a"/>
          <field name="pfcp.flow_desc" showname="Flow Description: permit out 58 from ff02::2/128 to assigned" size="42" pos="371" show="permit out 58 from ff02::2/128 to assigned" value="7065726d6974206f75742035382066726f6d20666630323a3a322f31323820746f2061737369676e6564"/>
        </field>
        <field name="" show="QFI : " size="5" pos="413" value="007c000101">
          <field name="pfcp.ie_type" showname="IE Type: QFI (124)" size="2" pos="413" show="124" value="007c"/>
          <field name="pfcp.ie_len" showname="IE Length: 1" size="2" pos="415" show="1" value="0001"/>
          <field name="pfcp.spare_b7_b6" showname="00.. .... = Spare: 0" size="1" pos="417" show="0" value="0" unmaskedvalue="01"/>
          <field name="pfcp.qfi_value" showname=".000 0001 = QFI: 0x01" size="1" pos="417" show="0x00000001" value="1" unmaskedvalue="01"/>
        </field>
      </field>
      <field name="" show="Outer Header Removal : GTP-U/UDP/IPv4" size="5" pos="418" value="005f000100">
        <field name="pfcp.ie_type" showname="IE Type: Outer Header Removal (95)" size="2" pos="418" show="95" value="005f"/>
        <field name="pfcp.ie_len" showname="IE Length: 1" size="2" pos="420" show="1" value="0001"/>
        <field name="pfcp.out_hdr_desc" showname="Outer Header Removal Description: GTP-U/UDP/IPv4 (0)" size="1" pos="422" show="0" value="00"/>
      </field>
      <field name="" show="FAR ID : Dynamic by CP 3" size="8" pos="423" value="006c000400000003">
        <field name="pfcp.ie_type" showname="IE Type: FAR ID (108)" size="2" pos="423" show="108" value="006c"/>
        <field name="pfcp.ie_len" showname="IE Length: 4" size="2" pos="425" show="4" value="0004"/>
        <field name="pfcp.far_id_flg" showname="0... .... .... .... .... .... .... .... = Allocation type: Dynamic by CP" size="4" pos="427" show="0" value="0" unmaskedvalue="00000003"/>
        <field name="pfcp.far_id" showname=".000 0000 0000 0000 0000 0000 0000 0011 = FAR ID: 3" size="4" pos="427" show="3" value="3" unmaskedvalue="00000003"/>
      </field>
    </field>
    <field name="" show="Create FAR : [Grouped IE]" size="23" pos="431" value="00030013006c000400000001002c00020c000058000101">
      <field name="pfcp.ie_type" showname="IE Type: Create FAR (3)" size="2" pos="431" show="3" value="0003"/>
      <field name="pfcp.ie_len" showname="IE Length: 19" size="2" pos="433" show="19" value="0013"/>
      <field name="" show="FAR ID : Dynamic by CP 1" size="8" pos="435" value="006c000400000001">
        <field name="pfcp.ie_type" showname="IE Type: FAR ID (108)" size="2" pos="435" show="108" value="006c"/>
        <field name="pfcp.ie_len" showname="IE Length: 4" size="2" pos="437" show="4" value="0004"/>
        <field name="pfcp.far_id_flg" showname="0... .... .... .... .... .... .... .... = Allocation type: Dynamic by CP" size="4" pos="439" show="0" value="0" unmaskedvalue="00000001"/>
        <field name="pfcp.far_id" showname=".000 0000 0000 0000 0000 0000 0000 0001 = FAR ID: 1" size="4" pos="439" show="1" value="1" unmaskedvalue="00000001"/>
      </field>
      <field name="" show="Apply Action : " size="6" pos="443" value="002c00020c00">
        <field name="pfcp.ie_type" showname="IE Type: Apply Action (44)" size="2" pos="443" show="44" value="002c"/>
        <field name="pfcp.ie_len" showname="IE Length: 2" size="2" pos="445" show="2" value="0002"/>
        <field name="pfcp.apply_action_flags" showname="Flags: 0x0c, NOCP (Notify the CP function), BUFF (Buffer)" size="1" pos="447" show="0x0000000c" value="0c">
          <field name="pfcp.spare_b7_b5" showname="000. .... = Spare: 0" size="1" pos="447" show="0" value="0" unmaskedvalue="0c"/>
          <field name="pfcp.apply_action.dupl" showname="...0 .... = DUPL (Duplicate): False" size="1" pos="447" show="0" value="0" unmaskedvalue="0c"/>
          <field name="pfcp.apply_action.nocp" showname=".... 1... = NOCP (Notify the CP function): True" size="1" pos="447" show="1" value="1" unmaskedvalue="0c"/>
          <field name="pfcp.apply_action.buff" showname=".... .1.. = BUFF (Buffer): True" size="1" pos="447" show="1" value="1" unmaskedvalue="0c"/>
          <field name="pfcp.apply_action.forw" showname=".... ..0. = FORW (Forward): False" size="1" pos="447" show="0" value="0" unmaskedvalue="0c"/>
          <field name="pfcp.apply_action.drop" showname=".... ...0 = DROP (Drop): False" size="1" pos="447" show="0" value="0" unmaskedvalue="0c"/>
        </field>
        <field name="" show="IE data not decoded by WS yet" size="1" pos="448" value="00">
          <field name="_ws.expert" showname="Expert Info (Note/Undecoded): IE data not decoded by WS yet" size="0" pos="448">
            <field name="pfcp.ie_data_not_decoded" showname="IE data not decoded by WS yet" size="0" pos="0" show="" value=""/>
            <field name="_ws.expert.message" showname="Message: IE data not decoded by WS yet" hide="yes" size="0" pos="0" show="IE data not decoded by WS yet"/>
            <field name="_ws.expert.severity" showname="Severity level: Note" size="0" pos="0" show="4194304"/>
            <field name="_ws.expert.group" showname="Group: Undecoded" size="0" pos="0" show="83886080"/>
          </field>
        </field>
      </field>
      <field name="" show="BAR ID : 1" size="5" pos="449" value="0058000101">
        <field name="pfcp.ie_type" showname="IE Type: BAR ID (88)" size="2" pos="449" show="88" value="0058"/>
        <field name="pfcp.ie_len" showname="IE Length: 1" size="2" pos="451" show="1" value="0001"/>
        <field name="pfcp.bar_id" showname="BAR ID: 1" size="1" pos="453" show="1" value="01"/>
      </field>
    </field>
    <field name="" show="Create FAR : [Grouped IE]" size="43" pos="454" value="00030027006c000400000002002c0002020000040015002a0001010016000c0b437573746f6d536c696365">
      <field name="pfcp.ie_type" showname="IE Type: Create FAR (3)" size="2" pos="454" show="3" value="0003"/>
      <field name="pfcp.ie_len" showname="IE Length: 39" size="2" pos="456" show="39" value="0027"/>
      <field name="" show="FAR ID : Dynamic by CP 2" size="8" pos="458" value="006c000400000002">
        <field name="pfcp.ie_type" showname="IE Type: FAR ID (108)" size="2" pos="458" show="108" value="006c"/>
        <field name="pfcp.ie_len" showname="IE Length: 4" size="2" pos="460" show="4" value="0004"/>
        <field name="pfcp.far_id_flg" showname="0... .... .... .... .... .... .... .... = Allocation type: Dynamic by CP" size="4" pos="462" show="0" value="0" unmaskedvalue="00000002"/>
        <field name="pfcp.far_id" showname=".000 0000 0000 0000 0000 0000 0000 0010 = FAR ID: 2" size="4" pos="462" show="2" value="2" unmaskedvalue="00000002"/>
      </field>
      <field name="" show="Apply Action : " size="6" pos="466" value="002c00020200">
        <field name="pfcp.ie_type" showname="IE Type: Apply Action (44)" size="2" pos="466" show="44" value="002c"/>
        <field name="pfcp.ie_len" showname="IE Length: 2" size="2" pos="468" show="2" value="0002"/>
        <field name="pfcp.apply_action_flags" showname="Flags: 0x02, FORW (Forward)" size="1" pos="470" show="0x00000002" value="02">
          <field name="pfcp.spare_b7_b5" showname="000. .... = Spare: 0" size="1" pos="470" show="0" value="0" unmaskedvalue="02"/>
          <field name="pfcp.apply_action.dupl" showname="...0 .... = DUPL (Duplicate): False" size="1" pos="470" show="0" value="0" unmaskedvalue="02"/>
          <field name="pfcp.apply_action.nocp" showname=".... 0... = NOCP (Notify the CP function): False" size="1" pos="470" show="0" value="0" unmaskedvalue="02"/>
          <field name="pfcp.apply_action.buff" showname=".... .0.. = BUFF (Buffer): False" size="1" pos="470" show="0" value="0" unmaskedvalue="02"/>
          <field name="pfcp.apply_action.forw" showname=".... ..1. = FORW (Forward): True" size="1" pos="470" show="1" value="1" unmaskedvalue="02"/>
          <field name="pfcp.apply_action.drop" showname=".... ...0 = DROP (Drop): False" size="1" pos="470" show="0" value="0" unmaskedvalue="02"/>
        </field>
        <field name="" show="IE data not decoded by WS yet" size="1" pos="471" value="00">
          <field name="_ws.expert" showname="Expert Info (Note/Undecoded): IE data not decoded by WS yet" size="0" pos="471">
            <field name="pfcp.ie_data_not_decoded" showname="IE data not decoded by WS yet" size="0" pos="0" show="" value=""/>
            <field name="_ws.expert.message" showname="Message: IE data not decoded by WS yet" hide="yes" size="0" pos="0" show="IE data not decoded by WS yet"/>
            <field name="_ws.expert.severity" showname="Severity level: Note" size="0" pos="0" show="4194304"/>
            <field name="_ws.expert.group" showname="Group: Undecoded" size="0" pos="0" show="83886080"/>
          </field>
        </field>
      </field>
      <field name="" show="Forwarding Parameters : [Grouped IE]" size="25" pos="472" value="00040015002a0001010016000c0b437573746f6d536c696365">
        <field name="pfcp.ie_type" showname="IE Type: Forwarding Parameters (4)" size="2" pos="472" show="4" value="0004"/>
        <field name="pfcp.ie_len" showname="IE Length: 21" size="2" pos="474" show="21" value="0015"/>
        <field name="" show="Destination Interface : Core" size="5" pos="476" value="002a000101">
          <field name="pfcp.ie_type" showname="IE Type: Destination Interface (42)" size="2" pos="476" show="42" value="002a"/>
          <field name="pfcp.ie_len" showname="IE Length: 1" size="2" pos="478" show="1" value="0001"/>
          <field name="pfcp.spare_h1" showname="0000 .... = Spare: 0" size="1" pos="480" show="0" value="0" unmaskedvalue="01"/>
          <field name="pfcp.dst_interface" showname=".... 0001 = Interface: Core (1)" size="1" pos="480" show="1" value="1" unmaskedvalue="01"/>
        </field>
        <field name="" show="Network Instance : CustomSlice" size="16" pos="481" value="0016000c0b437573746f6d536c696365">
          <field name="pfcp.ie_type" showname="IE Type: Network Instance (22)" size="2" pos="481" show="22" value="0016"/>
          <field name="pfcp.ie_len" showname="IE Length: 12" size="2" pos="483" show="12" value="000c"/>
          <field name="pfcp.network_instance" showname="Network Instance: CustomSlice" size="12" pos="485" show="CustomSlice" value="0b437573746f6d536c696365"/>
        </field>
      </field>
    </field>
    <field name="" show="Create FAR : [Grouped IE]" size="57" pos="497" value="00030035006c000400000003002c0002020000040023002a0001030016000c0b437573746f6d536c6963650054000a0100000000020a000e01">
      <field name="pfcp.ie_type" showname="IE Type: Create FAR (3)" size="2" pos="497" show="3" value="0003"/>
      <field name="pfcp.ie_len" showname="IE Length: 53" size="2" pos="499" show="53" value="0035"/>
      <field name="" show="FAR ID : Dynamic by CP 3" size="8" pos="501" value="006c000400000003">
        <field name="pfcp.ie_type" showname="IE Type: FAR ID (108)" size="2" pos="501" show="108" value="006c"/>
        <field name="pfcp.ie_len" showname="IE Length: 4" size="2" pos="503" show="4" value="0004"/>
        <field name="pfcp.far_id_flg" showname="0... .... .... .... .... .... .... .... = Allocation type: Dynamic by CP" size="4" pos="505" show="0" value="0" unmaskedvalue="00000003"/>
        <field name="pfcp.far_id" showname=".000 0000 0000 0000 0000 0000 0000 0011 = FAR ID: 3" size="4" pos="505" show="3" value="3" unmaskedvalue="00000003"/>
      </field>
      <field name="" show="Apply Action : " size="6" pos="509" value="002c00020200">
        <field name="pfcp.ie_type" showname="IE Type: Apply Action (44)" size="2" pos="509" show="44" value="002c"/>
        <field name="pfcp.ie_len" showname="IE Length: 2" size="2" pos="511" show="2" value="0002"/>
        <field name="pfcp.apply_action_flags" showname="Flags: 0x02, FORW (Forward)" size="1" pos="513" show="0x00000002" value="02">
          <field name="pfcp.spare_b7_b5" showname="000. .... = Spare: 0" size="1" pos="513" show="0" value="0" unmaskedvalue="02"/>
          <field name="pfcp.apply_action.dupl" showname="...0 .... = DUPL (Duplicate): False" size="1" pos="513" show="0" value="0" unmaskedvalue="02"/>
          <field name="pfcp.apply_action.nocp" showname=".... 0... = NOCP (Notify the CP function): False" size="1" pos="513" show="0" value="0" unmaskedvalue="02"/>
          <field name="pfcp.apply_action.buff" showname=".... .0.. = BUFF (Buffer): False" size="1" pos="513" show="0" value="0" unmaskedvalue="02"/>
          <field name="pfcp.apply_action.forw" showname=".... ..1. = FORW (Forward): True" size="1" pos="513" show="1" value="1" unmaskedvalue="02"/>
          <field name="pfcp.apply_action.drop" showname=".... ...0 = DROP (Drop): False" size="1" pos="513" show="0" value="0" unmaskedvalue="02"/>
        </field>
        <field name="" show="IE data not decoded by WS yet" size="1" pos="514" value="00">
          <field name="_ws.expert" showname="Expert Info (Note/Undecoded): IE data not decoded by WS yet" size="0" pos="514">
            <field name="pfcp.ie_data_not_decoded" showname="IE data not decoded by WS yet" size="0" pos="0" show="" value=""/>
            <field name="_ws.expert.message" showname="Message: IE data not decoded by WS yet" hide="yes" size="0" pos="0" show="IE data not decoded by WS yet"/>
            <field name="_ws.expert.severity" showname="Severity level: Note" size="0" pos="0" show="4194304"/>
            <field name="_ws.expert.group" showname="Group: Undecoded" size="0" pos="0" show="83886080"/>
          </field>
        </field>
      </field>
      <field name="" show="Forwarding Parameters : [Grouped IE]" size="39" pos="515" value="00040023002a0001030016000c0b437573746f6d536c6963650054000a0100000000020a000e01">
        <field name="pfcp.ie_type" showname="IE Type: Forwarding Parameters (4)" size="2" pos="515" show="4" value="0004"/>
        <field name="pfcp.ie_len" showname="IE Length: 35" size="2" pos="517" show="35" value="0023"/>
        <field name="" show="Destination Interface : CP- Function" size="5" pos="519" value="002a000103">
          <field name="pfcp.ie_type" showname="IE Type: Destination Interface (42)" size="2" pos="519" show="42" value="002a"/>
          <field name="pfcp.ie_len" showname="IE Length: 1" size="2" pos="521" show="1" value="0001"/>
          <field name="pfcp.spare_h1" showname="0000 .... = Spare: 0" size="1" pos="523" show="0" value="0" unmaskedvalue="03"/>
          <field name="pfcp.dst_interface" showname=".... 0011 = Interface: CP- Function (3)" size="1" pos="523" show="3" value="3" unmaskedvalue="03"/>
        </field>
        <field name="" show="Network Instance : CustomSlice" size="16" pos="524" value="0016000c0b437573746f6d536c696365">
          <field name="pfcp.ie_type" showname="IE Type: Network Instance (22)" size="2" pos="524" show="22" value="0016"/>
          <field name="pfcp.ie_len" showname="IE Length: 12" size="2" pos="526" show="12" value="000c"/>
          <field name="pfcp.network_instance" showname="Network Instance: CustomSlice" size="12" pos="528" show="CustomSlice" value="0b437573746f6d536c696365"/>
        </field>
        <field name="" show="Outer Header Creation : " size="14" pos="540" value="0054000a0100000000020a000e01">
          <field name="pfcp.ie_type" showname="IE Type: Outer Header Creation (84)" size="2" pos="540" show="84" value="0054"/>
          <field name="pfcp.ie_len" showname="IE Length: 10" size="2" pos="542" show="10" value="000a"/>
          <field name="pfcp.outer_hdr_desc" showname="Outer Header Creation Description: GTP-U/UDP/IPv4  (256)" size="2" pos="544" show="256" value="0100"/>
          <field name="pfcp.outer_hdr_creation.teid" showname="TEID: 0x00000002" size="4" pos="546" show="0x00000002" value="00000002"/>
          <field name="pfcp.outer_hdr_creation.ipv4" showname="IPv4 Address: 10.0.14.1" size="4" pos="550" show="10.0.14.1" value="0a000e01"/>
        </field>
      </field>
    </field>
    <field name="" show="Create URR : [Grouped IE]" size="37" pos="554" value="000600210051000400000001003e00010200250003020000001f0009010000000006400000">
      <field name="pfcp.ie_type" showname="IE Type: Create URR (6)" size="2" pos="554" show="6" value="0006"/>
      <field name="pfcp.ie_len" showname="IE Length: 33" size="2" pos="556" show="33" value="0021"/>
      <field name="" show="URR ID : Dynamic by CP 1" size="8" pos="558" value="0051000400000001">
        <field name="pfcp.ie_type" showname="IE Type: URR ID (81)" size="2" pos="558" show="81" value="0051"/>
        <field name="pfcp.ie_len" showname="IE Length: 4" size="2" pos="560" show="4" value="0004"/>
        <field name="pfcp.urr_id_flg" showname="0... .... .... .... .... .... .... .... = Allocation type: Dynamic by CP" size="4" pos="562" show="0" value="0" unmaskedvalue="00000001"/>
        <field name="pfcp.urr_id" showname=".000 0000 0000 0000 0000 0000 0000 0001 = URR ID: 1" size="4" pos="562" show="1" value="1" unmaskedvalue="00000001"/>
      </field>
      <field name="" show="Measurement Method : " size="5" pos="566" value="003e000102">
        <field name="pfcp.ie_type" showname="IE Type: Measurement Method (62)" size="2" pos="566" show="62" value="003e"/>
        <field name="pfcp.ie_len" showname="IE Length: 1" size="2" pos="568" show="1" value="0001"/>
        <field name="pfcp.measurement_method_flags" showname="Flags: 0x02, VOLUM (Volume)" size="1" pos="570" show="0x00000002" value="02">
          <field name="pfcp.spare_b7_b3" showname="0000 0... = Spare: 0" size="1" pos="570" show="0" value="0" unmaskedvalue="02"/>
          <field name="pfcp.measurement_method_flags.event" showname=".... .0.. = EVENT (Event): False" size="1" pos="570" show="0" value="0" unmaskedvalue="02"/>
          <field name="pfcp.measurement_method_flags.volume" showname=".... ..1. = VOLUM (Volume): True" size="1" pos="570" show="1" value="1" unmaskedvalue="02"/>
          <field name="pfcp.measurement_method_flags.durat" showname=".... ...0 = DURAT (Duration): False" size="1" pos="570" show="0" value="0" unmaskedvalue="02"/>
        </field>
      </field>
      <field name="" show="Reporting Triggers : " size="7" pos="571" value="00250003020000">
        <field name="pfcp.ie_type" showname="IE Type: Reporting Triggers (37)" size="2" pos="571" show="37" value="0025"/>
        <field name="pfcp.ie_len" showname="IE Length: 3" size="2" pos="573" show="3" value="0003"/>
        <field name="pfcp.reporting_triggers_flags.liusa" showname="0... .... = LIUSA (Linked Usage Reporting): False" size="1" pos="575" show="0" value="0" unmaskedvalue="02"/>
        <field name="pfcp.reporting_triggers_flags.droth" showname=".0.. .... = DROTH (Dropped DL Traffic Threshold): False" size="1" pos="575" show="0" value="0" unmaskedvalue="02"/>
        <field name="pfcp.reporting_triggers_flags.stopt" showname="..0. .... = STOPT (Stop of Traffic): False" size="1" pos="575" show="0" value="0" unmaskedvalue="02"/>
        <field name="pfcp.reporting_triggers_flags.start" showname="...0 .... = START (Start of Traffic): False" size="1" pos="575" show="0" value="0" unmaskedvalue="02"/>
        <field name="pfcp.reporting_triggers_flags.quhti" showname=".... 0... = QUHTI (Quota Holding Time): False" size="1" pos="575" show="0" value="0" unmaskedvalue="02"/>
        <field name="pfcp.reporting_triggers_flags.timth" showname=".... .0.. = TIMTH (Time Threshold): False" size="1" pos="575" show="0" value="0" unmaskedvalue="02"/>
        <field name="pfcp.reporting_triggers_flags.volth" showname=".... ..1. = VOLTH (Volume Threshold): True" size="1" pos="575" show="1" value="1" unmaskedvalue="02"/>
        <field name="pfcp.reporting_triggers_flags.perio" showname=".... ...0 = PERIO (Periodic Reporting): False" size="1" pos="575" show="0" value="0" unmaskedvalue="02"/>
        <field name="pfcp.spare_b7_b5" showname="000. .... = Spare: 0" size="1" pos="576" show="0" value="0" unmaskedvalue="00"/>
        <field name="pfcp.reporting_triggers_flags.evequ" showname="..0. .... = EVEQU (Event Quota): False" size="1" pos="576" show="0" value="0" unmaskedvalue="00"/>
        <field name="pfcp.reporting_triggers_flags.eveth" showname="...0 .... = EVETH (Event Threshold): False" size="1" pos="576" show="0" value="0" unmaskedvalue="00"/>
        <field name="pfcp.reporting_triggers_flags.macar" showname=".... 0... = MACAR (MAC Addresses Reporting): False" size="1" pos="576" show="0" value="0" unmaskedvalue="00"/>
        <field name="pfcp.reporting_triggers_flags.envcl" showname=".... .0.. = ENVCL (Envelope Closure): False" size="1" pos="576" show="0" value="0" unmaskedvalue="00"/>
        <field name="pfcp.reporting_triggers_flags.timqu" showname=".... ..0. = TIMQU (Time Quota): False" size="1" pos="576" show="0" value="0" unmaskedvalue="00"/>
        <field name="pfcp.reporting_triggers_flags.volqu" showname=".... ...0 = VOLQU (Volume Quota): False" size="1" pos="576" show="0" value="0" unmaskedvalue="00"/>
        <field name="" show="IE data not decoded by WS yet" size="1" pos="577" value="00">
          <field name="_ws.expert" showname="Expert Info (Note/Undecoded): IE data not decoded by WS yet" size="0" pos="577">
            <field name="pfcp.ie_data_not_decoded" showname="IE data not decoded by WS yet" size="0" pos="0" show="" value=""/>
            <field name="_ws.expert.message" showname="Message: IE data not decoded by WS yet" hide="yes" size="0" pos="0" show="IE data not decoded by WS yet"/>
            <field name="_ws.expert.severity" showname="Severity level: Note" size="0" pos="0" show="4194304"/>
            <field name="_ws.expert.group" showname="Group: Undecoded" size="0" pos="0" show="83886080"/>
          </field>
        </field>
      </field>
      <field name="" show="Volume Threshold : " size="13" pos="578" value="001f0009010000000006400000">
        <field name="pfcp.ie_type" showname="IE Type: Volume Threshold (31)" size="2" pos="578" show="31" value="001f"/>
        <field name="pfcp.ie_len" showname="IE Length: 9" size="2" pos="580" show="9" value="0009"/>
        <field name="pfcp.volume_threshold" showname="Flags: 0x01, TOVOL" size="1" pos="582" show="0x00000001" value="01">
          <field name="pfcp.spare_b7_b3" showname="0000 0... = Spare: 0" size="1" pos="582" show="0" value="0" unmaskedvalue="01"/>
          <field name="pfcp.volume_threshold_flags.dlvol" showname=".... .0.. = DLVOL: False" size="1" pos="582" show="0" value="0" unmaskedvalue="01"/>
          <field name="pfcp.volume_threshold_flags.ulvol" showname=".... ..0. = ULVOL: False" size="1" pos="582" show="0" value="0" unmaskedvalue="01"/>
          <field name="pfcp.volume_threshold_flags.tovol" showname=".... ...1 = TOVOL: True" size="1" pos="582" show="1" value="1" unmaskedvalue="01"/>
        </field>
        <field name="pfcp.volume_threshold.tovol" showname="Total Volume: 104857600" size="8" pos="583" show="104857600" value="0000000006400000"/>
      </field>
    </field>
    <field name="" show="Create QER : [Grouped IE]" size="36" pos="591" value="00070020006d0004000000010019000100001a000a000010624d000010624d007c000101">
      <field name="pfcp.ie_type" showname="IE Type: Create QER (7)" size="2" pos="591" show="7" value="0007"/>
      <field name="pfcp.ie_len" showname="IE Length: 32" size="2" pos="593" show="32" value="0020"/>
      <field name="" show="QER ID : Dynamic by CP 1" size="8" pos="595" value="006d000400000001">
        <field name="pfcp.ie_type" showname="IE Type: QER ID (109)" size="2" pos="595" show="109" value="006d"/>
        <field name="pfcp.ie_len" showname="IE Length: 4" size="2" pos="597" show="4" value="0004"/>
        <field name="pfcp.qer_id_flg" showname="0... .... .... .... .... .... .... .... = Allocation type: Dynamic by CP" size="4" pos="599" show="0" value="0" unmaskedvalue="00000001"/>
        <field name="pfcp.qer_id" showname=".000 0000 0000 0000 0000 0000 0000 0001 = QER ID: 1" size="4" pos="599" show="1" value="1" unmaskedvalue="00000001"/>
      </field>
      <field name="" show="Gate Status : " size="5" pos="603" value="0019000100">
        <field name="pfcp.ie_type" showname="IE Type: Gate Status (25)" size="2" pos="603" show="25" value="0019"/>
        <field name="pfcp.ie_len" showname="IE Length: 1" size="2" pos="605" show="1" value="0001"/>
        <field name="pfcp.gate_status" showname="Flags: 0x00, UL Gate: OPEN, DL Gate: OPEN" size="1" pos="607" show="0x00000000" value="00">
          <field name="pfcp.gate_status.ulgate" showname=".... 00.. = UL Gate: OPEN (0)" size="1" pos="607" show="0" value="0" unmaskedvalue="00"/>
          <field name="pfcp.gate_status.ulgate" showname=".... ..00 = DL Gate: OPEN (0)" size="1" pos="607" show="0" value="0" unmaskedvalue="00"/>
        </field>
      </field>
      <field name="" show="MBR : " size="14" pos="608" value="001a000a000010624d000010624d">
        <field name="pfcp.ie_type" showname="IE Type: MBR (26)" size="2" pos="608" show="26" value="001a"/>
        <field name="pfcp.ie_len" showname="IE Length: 10" size="2" pos="610" show="10" value="000a"/>
        <field name="pfcp.ul_mbr" showname="UL MBR: 1073741" size="5" pos="612" show="1073741" value="000010624d"/>
        <field name="pfcp.dl_mbr" showname="DL MBR: 1073741" size="5" pos="617" show="1073741" value="000010624d"/>
      </field>
      <field name="" show="QFI : " size="5" pos="622" value="007c000101">
        <field name="pfcp.ie_type" showname="IE Type: QFI (124)" size="2" pos="622" show="124" value="007c"/>
        <field name="pfcp.ie_len" showname="IE Length: 1" size="2" pos="624" show="1" value="0001"/>
        <field name="pfcp.spare_b7_b6" showname="00.. .... = Spare: 0" size="1" pos="626" show="0" value="0" unmaskedvalue="01"/>
        <field name="pfcp.qfi_value" showname=".000 0001 = QFI: 0x01" size="1" pos="626" show="0x00000001" value="1" unmaskedvalue="01"/>
      </field>
    </field>
    <field name="" show="Create BAR : [Grouped IE]" size="9" pos="627" value="005500050058000101">
      <field name="pfcp.ie_type" showname="IE Type: Create BAR (85)" size="2" pos="627" show="85" value="0055"/>
      <field name="pfcp.ie_len" showname="IE Length: 5" size="2" pos="629" show="5" value="0005"/>
      <field name="" show="BAR ID : 1" size="5" pos="631" value="0058000101">
        <field name="pfcp.ie_type" showname="IE Type: BAR ID (88)" size="2" pos="631" show="88" value="0058"/>
        <field name="pfcp.ie_len" showname="IE Length: 1" size="2" pos="633" show="1" value="0001"/>
        <field name="pfcp.bar_id" showname="BAR ID: 1" size="1" pos="635" show="1" value="01"/>
      </field>
    </field>
    <field name="" show="PDN Type : IPv4" size="5" pos="636" value="0071000101">
      <field name="pfcp.ie_type" showname="IE Type: PDN Type (113)" size="2" pos="636" show="113" value="0071"/>
      <field name="pfcp.ie_len" showname="IE Length: 1" size="2" pos="638" show="1" value="0001"/>
      <field name="pfcp.pdn_type" showname=".... .001 = PDN Type: IPv4 (1)" size="1" pos="640" show="1" value="1" unmaskedvalue="01"/>
    </field>
    <field name="pfcp.response_in" showname="Response In: 26" size="0" pos="42" show="26"/>
  </proto>
</packet>


<packet>
  <proto name="geninfo" pos="0" showname="General information" size="158">
    <field name="num" pos="0" show="26" showname="Number" value="1a" size="158"/>
    <field name="len" pos="0" show="158" showname="Frame Length" value="9e" size="158"/>
    <field name="caplen" pos="0" show="158" showname="Captured Length" value="9e" size="158"/>
    <field name="timestamp" pos="0" show="May 19, 2023 23:00:39.734574169 CEST" showname="Captured Time" value="1684530039.734574169" size="158"/>
  </proto>
  <proto name="frame" showname="Frame 26: 158 bytes on wire (1264 bits), 158 bytes captured (1264 bits) on interface veth_upf, id 0" size="158" pos="0">
    <field name="filtered" value="frame" />
  </proto>
  <proto name="eth" showname="Ethernet II, Src: 2a:84:b5:31:92:1e, Dst: ca:af:68:06:90:ef" size="14" pos="0">
    <field name="filtered" value="eth" />
  </proto>
  <proto name="ip" showname="Internet Protocol Version 4, Src: 10.0.17.1, Dst: 10.0.14.1" size="20" pos="14">
    <field name="filtered" value="ip" />
  </proto>
  <proto name="udp" showname="User Datagram Protocol, Src Port: 8805, Dst Port: 8805" size="8" pos="34">
    <field name="filtered" value="udp" />
  </proto>
  <proto name="pfcp" showname="Packet Forwarding Control Protocol" size="116" pos="42">
    <field name="pfcp.flags" showname="Flags: 0x21, SEID (S)" size="1" pos="42" show="0x00000021" value="21">
      <field name="pfcp.version" showname="001. .... = Version: 1" size="1" pos="42" show="1" value="1" unmaskedvalue="21"/>
      <field name="pfcp.spare_b4" showname="...0 .... = Spare: 0" size="1" pos="42" show="0" value="0" unmaskedvalue="21"/>
      <field name="pfcp.spare_b3" showname=".... 0... = Spare: 0" size="1" pos="42" show="0" value="0" unmaskedvalue="21"/>
      <field name="pfcp.spare_b2" showname=".... .0.. = Spare: 0" size="1" pos="42" show="0" value="0" unmaskedvalue="21"/>
      <field name="pfcp.mp_flag" showname=".... ..0. = Message Priority (MP): False" size="1" pos="42" show="0" value="0" unmaskedvalue="21"/>
      <field name="pfcp.s" showname=".... ...1 = SEID (S): True" size="1" pos="42" show="1" value="1" unmaskedvalue="21"/>
    </field>
    <field name="pfcp.msg_type" showname="Message Type: PFCP Session Establishment Response (51)" size="1" pos="43" show="51" value="33"/>
    <field name="pfcp.length" showname="Length: 112" size="2" pos="44" show="112" value="0070"/>
    <field name="pfcp.seid" showname="SEID: 0x0000000000000002" size="8" pos="46" show="0x0000000000000002" value="0000000000000002"/>
    <field name="pfcp.seqno" showname="Sequence Number: 25" size="3" pos="54" show="25" value="000019"/>
    <field name="pfcp.spare_oct" showname="Spare: 0" size="1" pos="57" show="0" value="00"/>
    <field name="" show="Node ID : IPv4 address: 10.0.17.1" size="9" pos="58" value="003c0005000a001101">
      <field name="pfcp.ie_type" showname="IE Type: Node ID (60)" size="2" pos="58" show="60" value="003c"/>
      <field name="pfcp.ie_len" showname="IE Length: 5" size="2" pos="60" show="5" value="0005"/>
      <field name="pfcp.spare_h1" showname="0000 .... = Spare: 0" size="1" pos="62" show="0" value="0" unmaskedvalue="00"/>
      <field name="pfcp.node_id_type" showname=".... 0000 = Node ID Type: IPv4 address (0)" size="1" pos="62" show="0" value="0" unmaskedvalue="00"/>
      <field name="pfcp.node_id_ipv4" showname="Node ID IPv4: 10.0.17.1" size="4" pos="63" show="10.0.17.1" value="0a001101"/>
    </field>
    <field name="" show="Cause : Request accepted(success)" size="5" pos="67" value="0013000101">
      <field name="pfcp.ie_type" showname="IE Type: Cause (19)" size="2" pos="67" show="19" value="0013"/>
      <field name="pfcp.ie_len" showname="IE Length: 1" size="2" pos="69" show="1" value="0001"/>
      <field name="pfcp.cause" showname="Cause: Request accepted(success) (1)" size="1" pos="71" show="1" value="01"/>
    </field>
    <field name="" show="F-SEID : SEID: 0x0000000000000002, IPv4 10.0.17.1" size="17" pos="72" value="0039000d0200000000000000020a001101">
      <field name="pfcp.ie_type" showname="IE Type: F-SEID (57)" size="2" pos="72" show="57" value="0039"/>
      <field name="pfcp.ie_len" showname="IE Length: 13" size="2" pos="74" show="13" value="000d"/>
      <field name="pfcp.f_seid_flags" showname="Flags: 0x02, V4 (IPv4)" size="1" pos="76" show="0x00000002" value="02">
        <field name="pfcp.spare_b7" showname="0... .... = Spare: 0" size="1" pos="76" show="0" value="0" unmaskedvalue="02"/>
        <field name="pfcp.spare_b6" showname=".0.. .... = Spare: 0" size="1" pos="76" show="0" value="0" unmaskedvalue="02"/>
        <field name="pfcp.spare_b5" showname="..0. .... = Spare: 0" size="1" pos="76" show="0" value="0" unmaskedvalue="02"/>
        <field name="pfcp.spare_b4" showname="...0 .... = Spare: 0" size="1" pos="76" show="0" value="0" unmaskedvalue="02"/>
        <field name="pfcp.spare_b3" showname=".... 0... = Spare: 0" size="1" pos="76" show="0" value="0" unmaskedvalue="02"/>
        <field name="pfcp.spare_b2" showname=".... .0.. = Spare: 0" size="1" pos="76" show="0" value="0" unmaskedvalue="02"/>
        <field name="pfcp.f_seid_flags.v4" showname=".... ..1. = V4 (IPv4): Present" size="1" pos="76" show="1" value="1" unmaskedvalue="02"/>
        <field name="pfcp.f_seid_flags.v6" showname=".... ...0 = V6 (IPv6): Not Present" size="1" pos="76" show="0" value="0" unmaskedvalue="02"/>
      </field>
      <field name="pfcp.seid" showname="SEID: 0x0000000000000002" size="8" pos="77" show="0x0000000000000002" value="0000000000000002"/>
      <field name="pfcp.f_seid.ipv4" showname="IPv4 address: 10.0.17.1" size="4" pos="85" show="10.0.17.1" value="0a001101"/>
    </field>
    <field name="" show="Created PDR : [Grouped IE]" size="23" pos="89" value="000800130038000200020015000901000000060a001101">
      <field name="pfcp.ie_type" showname="IE Type: Created PDR (8)" size="2" pos="89" show="8" value="0008"/>
      <field name="pfcp.ie_len" showname="IE Length: 19" size="2" pos="91" show="19" value="0013"/>
      <field name="" show="PDR ID : 2" size="6" pos="93" value="003800020002">
        <field name="pfcp.ie_type" showname="IE Type: PDR ID (56)" size="2" pos="93" show="56" value="0038"/>
        <field name="pfcp.ie_len" showname="IE Length: 2" size="2" pos="95" show="2" value="0002"/>
        <field name="pfcp.pdr_id" showname="Rule ID: 2" size="2" pos="97" show="2" value="0002"/>
      </field>
      <field name="" show="F-TEID : TEID: 0x00000006, IPv4 10.0.17.1" size="13" pos="99" value="0015000901000000060a001101">
        <field name="pfcp.ie_type" showname="IE Type: F-TEID (21)" size="2" pos="99" show="21" value="0015"/>
        <field name="pfcp.ie_len" showname="IE Length: 9" size="2" pos="101" show="9" value="0009"/>
        <field name="pfcp.f_teid_flags" showname="Flags: 0x01, V4 (IPv4)" size="1" pos="103" show="0x00000001" value="01">
          <field name="pfcp.fteid_flg.spare" showname="0000 .... = Spare: 0" size="1" pos="103" show="0" value="0" unmaskedvalue="01"/>
          <field name="pfcp.f_teid_flags.ch_id" showname=".... 0... = CHID (CHOOSE_ID): False" size="1" pos="103" show="0" value="0" unmaskedvalue="01"/>
          <field name="pfcp.f_teid_flags.ch" showname=".... .0.. = CH (CHOOSE): False" size="1" pos="103" show="0" value="0" unmaskedvalue="01"/>
          <field name="pfcp.f_teid_flags.v6" showname=".... ..0. = V6 (IPv6): Not Present" size="1" pos="103" show="0" value="0" unmaskedvalue="01"/>
          <field name="pfcp.f_teid_flags.v4" showname=".... ...1 = V4 (IPv4): Present" size="1" pos="103" show="1" value="1" unmaskedvalue="01"/>
        </field>
        <field name="pfcp.f_teid.teid" showname="TEID: 0x00000006" size="4" pos="104" show="0x00000006" value="00000006"/>
        <field name="pfcp.f_teid.ipv4_addr" showname="IPv4 address: 10.0.17.1" size="4" pos="108" show="10.0.17.1" value="0a001101"/>
      </field>
    </field>
    <field name="" show="Created PDR : [Grouped IE]" size="23" pos="112" value="000800130038000200030015000901000000070a001101">
      <field name="pfcp.ie_type" showname="IE Type: Created PDR (8)" size="2" pos="112" show="8" value="0008"/>
      <field name="pfcp.ie_len" showname="IE Length: 19" size="2" pos="114" show="19" value="0013"/>
      <field name="" show="PDR ID : 3" size="6" pos="116" value="003800020003">
        <field name="pfcp.ie_type" showname="IE Type: PDR ID (56)" size="2" pos="116" show="56" value="0038"/>
        <field name="pfcp.ie_len" showname="IE Length: 2" size="2" pos="118" show="2" value="0002"/>
        <field name="pfcp.pdr_id" showname="Rule ID: 3" size="2" pos="120" show="3" value="0003"/>
      </field>
      <field name="" show="F-TEID : TEID: 0x00000007, IPv4 10.0.17.1" size="13" pos="122" value="0015000901000000070a001101">
        <field name="pfcp.ie_type" showname="IE Type: F-TEID (21)" size="2" pos="122" show="21" value="0015"/>
        <field name="pfcp.ie_len" showname="IE Length: 9" size="2" pos="124" show="9" value="0009"/>
        <field name="pfcp.f_teid_flags" showname="Flags: 0x01, V4 (IPv4)" size="1" pos="126" show="0x00000001" value="01">
          <field name="pfcp.fteid_flg.spare" showname="0000 .... = Spare: 0" size="1" pos="126" show="0" value="0" unmaskedvalue="01"/>
          <field name="pfcp.f_teid_flags.ch_id" showname=".... 0... = CHID (CHOOSE_ID): False" size="1" pos="126" show="0" value="0" unmaskedvalue="01"/>
          <field name="pfcp.f_teid_flags.ch" showname=".... .0.. = CH (CHOOSE): False" size="1" pos="126" show="0" value="0" unmaskedvalue="01"/>
          <field name="pfcp.f_teid_flags.v6" showname=".... ..0. = V6 (IPv6): Not Present" size="1" pos="126" show="0" value="0" unmaskedvalue="01"/>
          <field name="pfcp.f_teid_flags.v4" showname=".... ...1 = V4 (IPv4): Present" size="1" pos="126" show="1" value="1" unmaskedvalue="01"/>
        </field>
        <field name="pfcp.f_teid.teid" showname="TEID: 0x00000007" size="4" pos="127" show="0x00000007" value="00000007"/>
        <field name="pfcp.f_teid.ipv4_addr" showname="IPv4 address: 10.0.17.1" size="4" pos="131" show="10.0.17.1" value="0a001101"/>
      </field>
    </field>
    <field name="" show="Created PDR : [Grouped IE]" size="23" pos="135" value="000800130038000200040015000901000000060a001101">
      <field name="pfcp.ie_type" showname="IE Type: Created PDR (8)" size="2" pos="135" show="8" value="0008"/>
      <field name="pfcp.ie_len" showname="IE Length: 19" size="2" pos="137" show="19" value="0013"/>
      <field name="" show="PDR ID : 4" size="6" pos="139" value="003800020004">
        <field name="pfcp.ie_type" showname="IE Type: PDR ID (56)" size="2" pos="139" show="56" value="0038"/>
        <field name="pfcp.ie_len" showname="IE Length: 2" size="2" pos="141" show="2" value="0002"/>
        <field name="pfcp.pdr_id" showname="Rule ID: 4" size="2" pos="143" show="4" value="0004"/>
      </field>
      <field name="" show="F-TEID : TEID: 0x00000006, IPv4 10.0.17.1" size="13" pos="145" value="0015000901000000060a001101">
        <field name="pfcp.ie_type" showname="IE Type: F-TEID (21)" size="2" pos="145" show="21" value="0015"/>
        <field name="pfcp.ie_len" showname="IE Length: 9" size="2" pos="147" show="9" value="0009"/>
        <field name="pfcp.f_teid_flags" showname="Flags: 0x01, V4 (IPv4)" size="1" pos="149" show="0x00000001" value="01">
          <field name="pfcp.fteid_flg.spare" showname="0000 .... = Spare: 0" size="1" pos="149" show="0" value="0" unmaskedvalue="01"/>
          <field name="pfcp.f_teid_flags.ch_id" showname=".... 0... = CHID (CHOOSE_ID): False" size="1" pos="149" show="0" value="0" unmaskedvalue="01"/>
          <field name="pfcp.f_teid_flags.ch" showname=".... .0.. = CH (CHOOSE): False" size="1" pos="149" show="0" value="0" unmaskedvalue="01"/>
          <field name="pfcp.f_teid_flags.v6" showname=".... ..0. = V6 (IPv6): Not Present" size="1" pos="149" show="0" value="0" unmaskedvalue="01"/>
          <field name="pfcp.f_teid_flags.v4" showname=".... ...1 = V4 (IPv4): Present" size="1" pos="149" show="1" value="1" unmaskedvalue="01"/>
        </field>
        <field name="pfcp.f_teid.teid" showname="TEID: 0x00000006" size="4" pos="150" show="0x00000006" value="00000006"/>
        <field name="pfcp.f_teid.ipv4_addr" showname="IPv4 address: 10.0.17.1" size="4" pos="154" show="10.0.17.1" value="0a001101"/>
      </field>
    </field>
    <field name="pfcp.response_to" showname="Response To: 25" size="0" pos="42" show="25"/>
    <field name="pfcp.response_time" showname="Response Time: 0.004014599 seconds" size="0" pos="42" show="0.004014599"/>
  </proto>
</packet>


<packet>
  <proto name="geninfo" pos="0" showname="General information" size="115">
    <field name="num" pos="0" show="27" showname="Number" value="1b" size="115"/>
    <field name="len" pos="0" show="115" showname="Frame Length" value="73" size="115"/>
    <field name="caplen" pos="0" show="115" showname="Captured Length" value="73" size="115"/>
    <field name="timestamp" pos="0" show="May 19, 2023 23:00:39.805082187 CEST" showname="Captured Time" value="1684530039.805082187" size="115"/>
  </proto>
  <proto name="frame" showname="Frame 27: 115 bytes on wire (920 bits), 115 bytes captured (920 bits) on interface veth_upf, id 0" size="115" pos="0">
    <field name="filtered" value="frame" />
  </proto>
  <proto name="eth" showname="Ethernet II, Src: ca:af:68:06:90:ef, Dst: 2a:84:b5:31:92:1e" size="14" pos="0">
    <field name="filtered" value="eth" />
  </proto>
  <proto name="ip" showname="Internet Protocol Version 4, Src: 10.0.14.1, Dst: 10.0.17.1" size="20" pos="14">
    <field name="filtered" value="ip" />
  </proto>
  <proto name="udp" showname="User Datagram Protocol, Src Port: 8805, Dst Port: 8805" size="8" pos="34">
    <field name="filtered" value="udp" />
  </proto>
  <proto name="pfcp" showname="Packet Forwarding Control Protocol" size="73" pos="42">
    <field name="pfcp.flags" showname="Flags: 0x21, SEID (S)" size="1" pos="42" show="0x00000021" value="21">
      <field name="pfcp.version" showname="001. .... = Version: 1" size="1" pos="42" show="1" value="1" unmaskedvalue="21"/>
      <field name="pfcp.spare_b4" showname="...0 .... = Spare: 0" size="1" pos="42" show="0" value="0" unmaskedvalue="21"/>
      <field name="pfcp.spare_b3" showname=".... 0... = Spare: 0" size="1" pos="42" show="0" value="0" unmaskedvalue="21"/>
      <field name="pfcp.spare_b2" showname=".... .0.. = Spare: 0" size="1" pos="42" show="0" value="0" unmaskedvalue="21"/>
      <field name="pfcp.mp_flag" showname=".... ..0. = Message Priority (MP): False" size="1" pos="42" show="0" value="0" unmaskedvalue="21"/>
      <field name="pfcp.s" showname=".... ...1 = SEID (S): True" size="1" pos="42" show="1" value="1" unmaskedvalue="21"/>
    </field>
    <field name="pfcp.msg_type" showname="Message Type: PFCP Session Modification Request (52)" size="1" pos="43" show="52" value="34"/>
    <field name="pfcp.length" showname="Length: 69" size="2" pos="44" show="69" value="0045"/>
    <field name="pfcp.seid" showname="SEID: 0x0000000000000002" size="8" pos="46" show="0x0000000000000002" value="0000000000000002"/>
    <field name="pfcp.seqno" showname="Sequence Number: 26" size="3" pos="54" show="26" value="00001a"/>
    <field name="pfcp.spare_oct" showname="Spare: 0" size="1" pos="57" show="0" value="00"/>
    <field name="" show="Update FAR : [Grouped IE]" size="57" pos="58" value="000a0035006c000400000001002c00020200000b0023002a0001000016000c0b437573746f6d536c6963650054000a0100000000010a00020f">
      <field name="pfcp.ie_type" showname="IE Type: Update FAR (10)" size="2" pos="58" show="10" value="000a"/>
      <field name="pfcp.ie_len" showname="IE Length: 53" size="2" pos="60" show="53" value="0035"/>
      <field name="" show="FAR ID : Dynamic by CP 1" size="8" pos="62" value="006c000400000001">
        <field name="pfcp.ie_type" showname="IE Type: FAR ID (108)" size="2" pos="62" show="108" value="006c"/>
        <field name="pfcp.ie_len" showname="IE Length: 4" size="2" pos="64" show="4" value="0004"/>
        <field name="pfcp.far_id_flg" showname="0... .... .... .... .... .... .... .... = Allocation type: Dynamic by CP" size="4" pos="66" show="0" value="0" unmaskedvalue="00000001"/>
        <field name="pfcp.far_id" showname=".000 0000 0000 0000 0000 0000 0000 0001 = FAR ID: 1" size="4" pos="66" show="1" value="1" unmaskedvalue="00000001"/>
      </field>
      <field name="" show="Apply Action : " size="6" pos="70" value="002c00020200">
        <field name="pfcp.ie_type" showname="IE Type: Apply Action (44)" size="2" pos="70" show="44" value="002c"/>
        <field name="pfcp.ie_len" showname="IE Length: 2" size="2" pos="72" show="2" value="0002"/>
        <field name="pfcp.apply_action_flags" showname="Flags: 0x02, FORW (Forward)" size="1" pos="74" show="0x00000002" value="02">
          <field name="pfcp.spare_b7_b5" showname="000. .... = Spare: 0" size="1" pos="74" show="0" value="0" unmaskedvalue="02"/>
          <field name="pfcp.apply_action.dupl" showname="...0 .... = DUPL (Duplicate): False" size="1" pos="74" show="0" value="0" unmaskedvalue="02"/>
          <field name="pfcp.apply_action.nocp" showname=".... 0... = NOCP (Notify the CP function): False" size="1" pos="74" show="0" value="0" unmaskedvalue="02"/>
          <field name="pfcp.apply_action.buff" showname=".... .0.. = BUFF (Buffer): False" size="1" pos="74" show="0" value="0" unmaskedvalue="02"/>
          <field name="pfcp.apply_action.forw" showname=".... ..1. = FORW (Forward): True" size="1" pos="74" show="1" value="1" unmaskedvalue="02"/>
          <field name="pfcp.apply_action.drop" showname=".... ...0 = DROP (Drop): False" size="1" pos="74" show="0" value="0" unmaskedvalue="02"/>
        </field>
        <field name="" show="IE data not decoded by WS yet" size="1" pos="75" value="00">
          <field name="_ws.expert" showname="Expert Info (Note/Undecoded): IE data not decoded by WS yet" size="0" pos="75">
            <field name="pfcp.ie_data_not_decoded" showname="IE data not decoded by WS yet" size="0" pos="0" show="" value=""/>
            <field name="_ws.expert.message" showname="Message: IE data not decoded by WS yet" hide="yes" size="0" pos="0" show="IE data not decoded by WS yet"/>
            <field name="_ws.expert.severity" showname="Severity level: Note" size="0" pos="0" show="4194304"/>
            <field name="_ws.expert.group" showname="Group: Undecoded" size="0" pos="0" show="83886080"/>
          </field>
        </field>
      </field>
      <field name="" show="Update Forwarding Parameters : [Grouped IE]" size="39" pos="76" value="000b0023002a0001000016000c0b437573746f6d536c6963650054000a0100000000010a00020f">
        <field name="pfcp.ie_type" showname="IE Type: Update Forwarding Parameters (11)" size="2" pos="76" show="11" value="000b"/>
        <field name="pfcp.ie_len" showname="IE Length: 35" size="2" pos="78" show="35" value="0023"/>
        <field name="" show="Destination Interface : Access" size="5" pos="80" value="002a000100">
          <field name="pfcp.ie_type" showname="IE Type: Destination Interface (42)" size="2" pos="80" show="42" value="002a"/>
          <field name="pfcp.ie_len" showname="IE Length: 1" size="2" pos="82" show="1" value="0001"/>
          <field name="pfcp.spare_h1" showname="0000 .... = Spare: 0" size="1" pos="84" show="0" value="0" unmaskedvalue="00"/>
          <field name="pfcp.dst_interface" showname=".... 0000 = Interface: Access (0)" size="1" pos="84" show="0" value="0" unmaskedvalue="00"/>
        </field>
        <field name="" show="Network Instance : CustomSlice" size="16" pos="85" value="0016000c0b437573746f6d536c696365">
          <field name="pfcp.ie_type" showname="IE Type: Network Instance (22)" size="2" pos="85" show="22" value="0016"/>
          <field name="pfcp.ie_len" showname="IE Length: 12" size="2" pos="87" show="12" value="000c"/>
          <field name="pfcp.network_instance" showname="Network Instance: CustomSlice" size="12" pos="89" show="CustomSlice" value="0b437573746f6d536c696365"/>
        </field>
        <field name="" show="Outer Header Creation : " size="14" pos="101" value="0054000a0100000000010a00020f">
          <field name="pfcp.ie_type" showname="IE Type: Outer Header Creation (84)" size="2" pos="101" show="84" value="0054"/>
          <field name="pfcp.ie_len" showname="IE Length: 10" size="2" pos="103" show="10" value="000a"/>
          <field name="pfcp.outer_hdr_desc" showname="Outer Header Creation Description: GTP-U/UDP/IPv4  (256)" size="2" pos="105" show="256" value="0100"/>
          <field name="pfcp.outer_hdr_creation.teid" showname="TEID: 0x00000001" size="4" pos="107" show="0x00000001" value="00000001"/>
          <field name="pfcp.outer_hdr_creation.ipv4" showname="IPv4 Address: 10.0.2.15" size="4" pos="111" show="10.0.2.15" value="0a00020f"/>
        </field>
      </field>
    </field>
    <field name="pfcp.response_in" showname="Response In: 28" size="0" pos="42" show="28"/>
  </proto>
</packet>


<packet>
  <proto name="geninfo" pos="0" showname="General information" size="63">
    <field name="num" pos="0" show="28" showname="Number" value="1c" size="63"/>
    <field name="len" pos="0" show="63" showname="Frame Length" value="3f" size="63"/>
    <field name="caplen" pos="0" show="63" showname="Captured Length" value="3f" size="63"/>
    <field name="timestamp" pos="0" show="May 19, 2023 23:00:39.805304057 CEST" showname="Captured Time" value="1684530039.805304057" size="63"/>
  </proto>
  <proto name="frame" showname="Frame 28: 63 bytes on wire (504 bits), 63 bytes captured (504 bits) on interface veth_upf, id 0" size="63" pos="0">
    <field name="filtered" value="frame" />
  </proto>
  <proto name="eth" showname="Ethernet II, Src: 2a:84:b5:31:92:1e, Dst: ca:af:68:06:90:ef" size="14" pos="0">
    <field name="filtered" value="eth" />
  </proto>
  <proto name="ip" showname="Internet Protocol Version 4, Src: 10.0.17.1, Dst: 10.0.14.1" size="20" pos="14">
    <field name="filtered" value="ip" />
  </proto>
  <proto name="udp" showname="User Datagram Protocol, Src Port: 8805, Dst Port: 8805" size="8" pos="34">
    <field name="filtered" value="udp" />
  </proto>
  <proto name="pfcp" showname="Packet Forwarding Control Protocol" size="21" pos="42">
    <field name="pfcp.flags" showname="Flags: 0x21, SEID (S)" size="1" pos="42" show="0x00000021" value="21">
      <field name="pfcp.version" showname="001. .... = Version: 1" size="1" pos="42" show="1" value="1" unmaskedvalue="21"/>
      <field name="pfcp.spare_b4" showname="...0 .... = Spare: 0" size="1" pos="42" show="0" value="0" unmaskedvalue="21"/>
      <field name="pfcp.spare_b3" showname=".... 0... = Spare: 0" size="1" pos="42" show="0" value="0" unmaskedvalue="21"/>
      <field name="pfcp.spare_b2" showname=".... .0.. = Spare: 0" size="1" pos="42" show="0" value="0" unmaskedvalue="21"/>
      <field name="pfcp.mp_flag" showname=".... ..0. = Message Priority (MP): False" size="1" pos="42" show="0" value="0" unmaskedvalue="21"/>
      <field name="pfcp.s" showname=".... ...1 = SEID (S): True" size="1" pos="42" show="1" value="1" unmaskedvalue="21"/>
    </field>
    <field name="pfcp.msg_type" showname="Message Type: PFCP Session Modification Response (53)" size="1" pos="43" show="53" value="35"/>
    <field name="pfcp.length" showname="Length: 17" size="2" pos="44" show="17" value="0011"/>
    <field name="pfcp.seid" showname="SEID: 0x0000000000000002" size="8" pos="46" show="0x0000000000000002" value="0000000000000002"/>
    <field name="pfcp.seqno" showname="Sequence Number: 26" size="3" pos="54" show="26" value="00001a"/>
    <field name="pfcp.spare_oct" showname="Spare: 0" size="1" pos="57" show="0" value="00"/>
    <field name="" show="Cause : Request accepted(success)" size="5" pos="58" value="0013000101">
      <field name="pfcp.ie_type" showname="IE Type: Cause (19)" size="2" pos="58" show="19" value="0013"/>
      <field name="pfcp.ie_len" showname="IE Length: 1" size="2" pos="60" show="1" value="0001"/>
      <field name="pfcp.cause" showname="Cause: Request accepted(success) (1)" size="1" pos="62" show="1" value="01"/>
    </field>
    <field name="pfcp.response_to" showname="Response To: 27" size="0" pos="42" show="27"/>
    <field name="pfcp.response_time" showname="Response Time: 0.000221870 seconds" size="0" pos="42" show="0.000221870"/>
  </proto>
</packet>


<packet>
  <proto name="geninfo" pos="0" showname="General information" size="142">
    <field name="num" pos="0" show="29" showname="Number" value="1d" size="142"/>
    <field name="len" pos="0" show="142" showname="Frame Length" value="8e" size="142"/>
    <field name="caplen" pos="0" show="142" showname="Captured Length" value="8e" size="142"/>
    <field name="timestamp" pos="0" show="May 19, 2023 23:00:48.197475737 CEST" showname="Captured Time" value="1684530048.197475737" size="142"/>
  </proto>
  <proto name="frame" showname="Frame 29: 142 bytes on wire (1136 bits), 142 bytes captured (1136 bits) on interface veth_upf, id 0" size="142" pos="0">
    <field name="filtered" value="frame" />
  </proto>
  <proto name="eth" showname="Ethernet II, Src: ca:af:68:06:90:ef, Dst: 2a:84:b5:31:92:1e" size="14" pos="0">
    <field name="filtered" value="eth" />
  </proto>
  <proto name="ip" showname="Internet Protocol Version 4, Src: 10.0.2.15, Dst: 10.0.17.1" size="20" pos="14">
    <field name="filtered" value="ip" />
  </proto>
  <proto name="udp" showname="User Datagram Protocol, Src Port: 2152, Dst Port: 2152" size="8" pos="34">
    <field name="filtered" value="udp" />
  </proto>
  <proto name="gtp" showname="GPRS Tunneling Protocol" size="16" pos="42">
    <field name="filtered" value="gtp" />
  </proto>
  <proto name="ip" showname="Internet Protocol Version 4, Src: 10.45.0.3, Dst: 8.8.8.8" size="20" pos="58">
    <field name="filtered" value="ip" />
  </proto>
  <proto name="icmp" showname="Internet Control Message Protocol" size="64" pos="78">
    <field name="icmp.type" showname="Type: 8 (Echo (ping) request)" size="1" pos="78" show="8" value="08"/>
    <field name="icmp.code" showname="Code: 0" size="1" pos="79" show="0" value="00"/>
    <field name="icmp.checksum" showname="Checksum: 0x5eee [correct]" size="2" pos="80" show="0x00005eee" value="5eee"/>
    <field name="icmp.checksum.status" showname="Checksum Status: Good" size="0" pos="80" show="1"/>
    <field name="icmp.ident" showname="Identifier (BE): 138 (0x008a)" size="2" pos="82" show="138" value="008a"/>
    <field name="icmp.ident" showname="Identifier (LE): 35328 (0x8a00)" size="2" pos="82" show="35328" value="008a"/>
    <field name="icmp.seq" showname="Sequence number (BE): 1 (0x0001)" size="2" pos="84" show="1" value="0001"/>
    <field name="icmp.seq_le" showname="Sequence number (LE): 256 (0x0100)" size="2" pos="84" show="256" value="0001"/>
    <field name="icmp.resp_in" showname="Response frame: 32" size="0" pos="78" show="32"/>
    <field name="icmp.data_time" showname="Timestamp from icmp data: May 19, 2023 23:00:48.000000000 CEST" size="8" pos="86" show="May 19, 2023 23:00:48.000000000 CEST" value="80e3676400000000"/>
    <field name="icmp.data_time_relative" showname="Timestamp from icmp data (relative): 0.197475737 seconds" size="8" pos="86" show="0.197475737" value="80e3676400000000"/>
    <field name="data" value="ee6b030000000000101112131415161718191a1b1c1d1e1f202122232425262728292a2b2c2d2e2f3031323334353637">
      <field name="data.data" showname="Data: ee6b030000000000101112131415161718191a1b1c1d1e1f\xe2\x80\xa6" size="48" pos="94" show="ee:6b:03:00:00:00:00:00:10:11:12:13:14:15:16:17:18:19:1a:1b:1c:1d:1e:1f:20:21:22:23:24:25:26:27:28:29:2a:2b:2c:2d:2e:2f:30:31:32:33:34:35:36:37" value="ee6b030000000000101112131415161718191a1b1c1d1e1f202122232425262728292a2b2c2d2e2f3031323334353637"/>
      <field name="data.len" showname="Length: 48" size="0" pos="94" show="48"/>
    </field>
  </proto>
</packet>


<packet>
  <proto name="geninfo" pos="0" showname="General information" size="98">
    <field name="num" pos="0" show="30" showname="Number" value="1e" size="98"/>
    <field name="len" pos="0" show="98" showname="Frame Length" value="62" size="98"/>
    <field name="caplen" pos="0" show="98" showname="Captured Length" value="62" size="98"/>
    <field name="timestamp" pos="0" show="May 19, 2023 23:00:48.200101474 CEST" showname="Captured Time" value="1684530048.200101474" size="98"/>
  </proto>
  <proto name="frame" showname="Frame 30: 98 bytes on wire (784 bits), 98 bytes captured (784 bits) on interface veth_upf, id 0" size="98" pos="0">
    <field name="filtered" value="frame" />
  </proto>
  <proto name="eth" showname="Ethernet II, Src: 2a:84:b5:31:92:1e, Dst: ca:af:68:06:90:ef" size="14" pos="0">
    <field name="filtered" value="eth" />
  </proto>
  <proto name="ip" showname="Internet Protocol Version 4, Src: 10.0.17.1, Dst: 8.8.8.8" size="20" pos="14">
    <field name="filtered" value="ip" />
  </proto>
  <proto name="icmp" showname="Internet Control Message Protocol" size="64" pos="34">
    <field name="icmp.type" showname="Type: 8 (Echo (ping) request)" size="1" pos="34" show="8" value="08"/>
    <field name="icmp.code" showname="Code: 0" size="1" pos="35" show="0" value="00"/>
    <field name="icmp.checksum" showname="Checksum: 0x5eee [correct]" size="2" pos="36" show="0x00005eee" value="5eee"/>
    <field name="icmp.checksum.status" showname="Checksum Status: Good" size="0" pos="36" show="1"/>
    <field name="icmp.ident" showname="Identifier (BE): 138 (0x008a)" size="2" pos="38" show="138" value="008a"/>
    <field name="icmp.ident" showname="Identifier (LE): 35328 (0x8a00)" size="2" pos="38" show="35328" value="008a"/>
    <field name="icmp.seq" showname="Sequence number (BE): 1 (0x0001)" size="2" pos="40" show="1" value="0001"/>
    <field name="icmp.seq_le" showname="Sequence number (LE): 256 (0x0100)" size="2" pos="40" show="256" value="0001"/>
    <field name="icmp.resp_in" showname="Response frame: 31" size="0" pos="34" show="31"/>
    <field name="icmp.data_time" showname="Timestamp from icmp data: May 19, 2023 23:00:48.000000000 CEST" size="8" pos="42" show="May 19, 2023 23:00:48.000000000 CEST" value="80e3676400000000"/>
    <field name="icmp.data_time_relative" showname="Timestamp from icmp data (relative): 0.200101474 seconds" size="8" pos="42" show="0.200101474" value="80e3676400000000"/>
    <field name="data" value="ee6b030000000000101112131415161718191a1b1c1d1e1f202122232425262728292a2b2c2d2e2f3031323334353637">
      <field name="data.data" showname="Data: ee6b030000000000101112131415161718191a1b1c1d1e1f\xe2\x80\xa6" size="48" pos="50" show="ee:6b:03:00:00:00:00:00:10:11:12:13:14:15:16:17:18:19:1a:1b:1c:1d:1e:1f:20:21:22:23:24:25:26:27:28:29:2a:2b:2c:2d:2e:2f:30:31:32:33:34:35:36:37" value="ee6b030000000000101112131415161718191a1b1c1d1e1f202122232425262728292a2b2c2d2e2f3031323334353637"/>
      <field name="data.len" showname="Length: 48" size="0" pos="50" show="48"/>
    </field>
  </proto>
</packet>


<packet>
  <proto name="geninfo" pos="0" showname="General information" size="98">
    <field name="num" pos="0" show="31" showname="Number" value="1f" size="98"/>
    <field name="len" pos="0" show="98" showname="Frame Length" value="62" size="98"/>
    <field name="caplen" pos="0" show="98" showname="Captured Length" value="62" size="98"/>
    <field name="timestamp" pos="0" show="May 19, 2023 23:00:48.209362321 CEST" showname="Captured Time" value="1684530048.209362321" size="98"/>
  </proto>
  <proto name="frame" showname="Frame 31: 98 bytes on wire (784 bits), 98 bytes captured (784 bits) on interface veth_upf, id 0" size="98" pos="0">
    <field name="filtered" value="frame" />
  </proto>
  <proto name="eth" showname="Ethernet II, Src: ca:af:68:06:90:ef, Dst: 2a:84:b5:31:92:1e" size="14" pos="0">
    <field name="filtered" value="eth" />
  </proto>
  <proto name="ip" showname="Internet Protocol Version 4, Src: 8.8.8.8, Dst: 10.0.17.1" size="20" pos="14">
    <field name="filtered" value="ip" />
  </proto>
  <proto name="icmp" showname="Internet Control Message Protocol" size="64" pos="34">
    <field name="icmp.type" showname="Type: 0 (Echo (ping) reply)" size="1" pos="34" show="0" value="00"/>
    <field name="icmp.code" showname="Code: 0" size="1" pos="35" show="0" value="00"/>
    <field name="icmp.checksum" showname="Checksum: 0x66ee [correct]" size="2" pos="36" show="0x000066ee" value="66ee"/>
    <field name="icmp.checksum.status" showname="Checksum Status: Good" size="0" pos="36" show="1"/>
    <field name="icmp.ident" showname="Identifier (BE): 138 (0x008a)" size="2" pos="38" show="138" value="008a"/>
    <field name="icmp.ident" showname="Identifier (LE): 35328 (0x8a00)" size="2" pos="38" show="35328" value="008a"/>
    <field name="icmp.seq" showname="Sequence number (BE): 1 (0x0001)" size="2" pos="40" show="1" value="0001"/>
    <field name="icmp.seq_le" showname="Sequence number (LE): 256 (0x0100)" size="2" pos="40" show="256" value="0001"/>
    <field name="icmp.resp_to" showname="Request frame: 30" size="0" pos="34" show="30"/>
    <field name="icmp.resptime" showname="Response time: 9,261 ms" size="0" pos="34" show="9.260847"/>
    <field name="icmp.data_time" showname="Timestamp from icmp data: May 19, 2023 23:00:48.000000000 CEST" size="8" pos="42" show="May 19, 2023 23:00:48.000000000 CEST" value="80e3676400000000"/>
    <field name="icmp.data_time_relative" showname="Timestamp from icmp data (relative): 0.209362321 seconds" size="8" pos="42" show="0.209362321" value="80e3676400000000"/>
    <field name="data" value="ee6b030000000000101112131415161718191a1b1c1d1e1f202122232425262728292a2b2c2d2e2f3031323334353637">
      <field name="data.data" showname="Data: ee6b030000000000101112131415161718191a1b1c1d1e1f\xe2\x80\xa6" size="48" pos="50" show="ee:6b:03:00:00:00:00:00:10:11:12:13:14:15:16:17:18:19:1a:1b:1c:1d:1e:1f:20:21:22:23:24:25:26:27:28:29:2a:2b:2c:2d:2e:2f:30:31:32:33:34:35:36:37" value="ee6b030000000000101112131415161718191a1b1c1d1e1f202122232425262728292a2b2c2d2e2f3031323334353637"/>
      <field name="data.len" showname="Length: 48" size="0" pos="50" show="48"/>
    </field>
  </proto>
</packet>


<packet>
  <proto name="geninfo" pos="0" showname="General information" size="142">
    <field name="num" pos="0" show="32" showname="Number" value="20" size="142"/>
    <field name="len" pos="0" show="142" showname="Frame Length" value="8e" size="142"/>
    <field name="caplen" pos="0" show="142" showname="Captured Length" value="8e" size="142"/>
    <field name="timestamp" pos="0" show="May 19, 2023 23:00:48.210407145 CEST" showname="Captured Time" value="1684530048.210407145" size="142"/>
  </proto>
  <proto name="frame" showname="Frame 32: 142 bytes on wire (1136 bits), 142 bytes captured (1136 bits) on interface veth_upf, id 0" size="142" pos="0">
    <field name="filtered" value="frame" />
  </proto>
  <proto name="eth" showname="Ethernet II, Src: 2a:84:b5:31:92:1e, Dst: ca:af:68:06:90:ef" size="14" pos="0">
    <field name="filtered" value="eth" />
  </proto>
  <proto name="ip" showname="Internet Protocol Version 4, Src: 10.0.17.1, Dst: 10.0.2.15" size="20" pos="14">
    <field name="filtered" value="ip" />
  </proto>
  <proto name="udp" showname="User Datagram Protocol, Src Port: 2152, Dst Port: 2152" size="8" pos="34">
    <field name="filtered" value="udp" />
  </proto>
  <proto name="gtp" showname="GPRS Tunneling Protocol" size="16" pos="42">
    <field name="filtered" value="gtp" />
  </proto>
  <proto name="ip" showname="Internet Protocol Version 4, Src: 8.8.8.8, Dst: 10.45.0.3" size="20" pos="58">
    <field name="filtered" value="ip" />
  </proto>
  <proto name="icmp" showname="Internet Control Message Protocol" size="64" pos="78">
    <field name="icmp.type" showname="Type: 0 (Echo (ping) reply)" size="1" pos="78" show="0" value="00"/>
    <field name="icmp.code" showname="Code: 0" size="1" pos="79" show="0" value="00"/>
    <field name="icmp.checksum" showname="Checksum: 0x66ee [correct]" size="2" pos="80" show="0x000066ee" value="66ee"/>
    <field name="icmp.checksum.status" showname="Checksum Status: Good" size="0" pos="80" show="1"/>
    <field name="icmp.ident" showname="Identifier (BE): 138 (0x008a)" size="2" pos="82" show="138" value="008a"/>
    <field name="icmp.ident" showname="Identifier (LE): 35328 (0x8a00)" size="2" pos="82" show="35328" value="008a"/>
    <field name="icmp.seq" showname="Sequence number (BE): 1 (0x0001)" size="2" pos="84" show="1" value="0001"/>
    <field name="icmp.seq_le" showname="Sequence number (LE): 256 (0x0100)" size="2" pos="84" show="256" value="0001"/>
    <field name="icmp.resp_to" showname="Request frame: 29" size="0" pos="78" show="29"/>
    <field name="icmp.resptime" showname="Response time: 12,931 ms" size="0" pos="78" show="12.931408"/>
    <field name="icmp.data_time" showname="Timestamp from icmp data: May 19, 2023 23:00:48.000000000 CEST" size="8" pos="86" show="May 19, 2023 23:00:48.000000000 CEST" value="80e3676400000000"/>
    <field name="icmp.data_time_relative" showname="Timestamp from icmp data (relative): 0.210407145 seconds" size="8" pos="86" show="0.210407145" value="80e3676400000000"/>
    <field name="data" value="ee6b030000000000101112131415161718191a1b1c1d1e1f202122232425262728292a2b2c2d2e2f3031323334353637">
      <field name="data.data" showname="Data: ee6b030000000000101112131415161718191a1b1c1d1e1f\xe2\x80\xa6" size="48" pos="94" show="ee:6b:03:00:00:00:00:00:10:11:12:13:14:15:16:17:18:19:1a:1b:1c:1d:1e:1f:20:21:22:23:24:25:26:27:28:29:2a:2b:2c:2d:2e:2f:30:31:32:33:34:35:36:37" value="ee6b030000000000101112131415161718191a1b1c1d1e1f202122232425262728292a2b2c2d2e2f3031323334353637"/>
      <field name="data.len" showname="Length: 48" size="0" pos="94" show="48"/>
    </field>
  </proto>
</packet>


<packet>
  <proto name="geninfo" pos="0" showname="General information" size="142">
    <field name="num" pos="0" show="33" showname="Number" value="21" size="142"/>
    <field name="len" pos="0" show="142" showname="Frame Length" value="8e" size="142"/>
    <field name="caplen" pos="0" show="142" showname="Captured Length" value="8e" size="142"/>
    <field name="timestamp" pos="0" show="May 19, 2023 23:00:49.197253484 CEST" showname="Captured Time" value="1684530049.197253484" size="142"/>
  </proto>
  <proto name="frame" showname="Frame 33: 142 bytes on wire (1136 bits), 142 bytes captured (1136 bits) on interface veth_upf, id 0" size="142" pos="0">
    <field name="filtered" value="frame" />
  </proto>
  <proto name="eth" showname="Ethernet II, Src: ca:af:68:06:90:ef, Dst: 2a:84:b5:31:92:1e" size="14" pos="0">
    <field name="filtered" value="eth" />
  </proto>
  <proto name="ip" showname="Internet Protocol Version 4, Src: 10.0.2.15, Dst: 10.0.17.1" size="20" pos="14">
    <field name="filtered" value="ip" />
  </proto>
  <proto name="udp" showname="User Datagram Protocol, Src Port: 2152, Dst Port: 2152" size="8" pos="34">
    <field name="filtered" value="udp" />
  </proto>
  <proto name="gtp" showname="GPRS Tunneling Protocol" size="16" pos="42">
    <field name="filtered" value="gtp" />
  </proto>
  <proto name="ip" showname="Internet Protocol Version 4, Src: 10.45.0.3, Dst: 8.8.8.8" size="20" pos="58">
    <field name="filtered" value="ip" />
  </proto>
  <proto name="icmp" showname="Internet Control Message Protocol" size="64" pos="78">
    <field name="icmp.type" showname="Type: 8 (Echo (ping) request)" size="1" pos="78" show="8" value="08"/>
    <field name="icmp.code" showname="Code: 0" size="1" pos="79" show="0" value="00"/>
    <field name="icmp.checksum" showname="Checksum: 0x33e7 [correct]" size="2" pos="80" show="0x000033e7" value="33e7"/>
    <field name="icmp.checksum.status" showname="Checksum Status: Good" size="0" pos="80" show="1"/>
    <field name="icmp.ident" showname="Identifier (BE): 138 (0x008a)" size="2" pos="82" show="138" value="008a"/>
    <field name="icmp.ident" showname="Identifier (LE): 35328 (0x8a00)" size="2" pos="82" show="35328" value="008a"/>
    <field name="icmp.seq" showname="Sequence number (BE): 2 (0x0002)" size="2" pos="84" show="2" value="0002"/>
    <field name="icmp.seq_le" showname="Sequence number (LE): 512 (0x0200)" size="2" pos="84" show="512" value="0002"/>
    <field name="icmp.resp_in" showname="Response frame: 36" size="0" pos="78" show="36"/>
    <field name="icmp.data_time" showname="Timestamp from icmp data: May 19, 2023 23:00:49.000000000 CEST" size="8" pos="86" show="May 19, 2023 23:00:49.000000000 CEST" value="81e3676400000000"/>
    <field name="icmp.data_time_relative" showname="Timestamp from icmp data (relative): 0.197253484 seconds" size="8" pos="86" show="0.197253484" value="81e3676400000000"/>
    <field name="data" value="1872030000000000101112131415161718191a1b1c1d1e1f202122232425262728292a2b2c2d2e2f3031323334353637">
      <field name="data.data" showname="Data: 1872030000000000101112131415161718191a1b1c1d1e1f\xe2\x80\xa6" size="48" pos="94" show="18:72:03:00:00:00:00:00:10:11:12:13:14:15:16:17:18:19:1a:1b:1c:1d:1e:1f:20:21:22:23:24:25:26:27:28:29:2a:2b:2c:2d:2e:2f:30:31:32:33:34:35:36:37" value="1872030000000000101112131415161718191a1b1c1d1e1f202122232425262728292a2b2c2d2e2f3031323334353637"/>
      <field name="data.len" showname="Length: 48" size="0" pos="94" show="48"/>
    </field>
  </proto>
</packet>


<packet>
  <proto name="geninfo" pos="0" showname="General information" size="98">
    <field name="num" pos="0" show="34" showname="Number" value="22" size="98"/>
    <field name="len" pos="0" show="98" showname="Frame Length" value="62" size="98"/>
    <field name="caplen" pos="0" show="98" showname="Captured Length" value="62" size="98"/>
    <field name="timestamp" pos="0" show="May 19, 2023 23:00:49.197398674 CEST" showname="Captured Time" value="1684530049.197398674" size="98"/>
  </proto>
  <proto name="frame" showname="Frame 34: 98 bytes on wire (784 bits), 98 bytes captured (784 bits) on interface veth_upf, id 0" size="98" pos="0">
    <field name="filtered" value="frame" />
  </proto>
  <proto name="eth" showname="Ethernet II, Src: 2a:84:b5:31:92:1e, Dst: ca:af:68:06:90:ef" size="14" pos="0">
    <field name="filtered" value="eth" />
  </proto>
  <proto name="ip" showname="Internet Protocol Version 4, Src: 10.0.17.1, Dst: 8.8.8.8" size="20" pos="14">
    <field name="filtered" value="ip" />
  </proto>
  <proto name="icmp" showname="Internet Control Message Protocol" size="64" pos="34">
    <field name="icmp.type" showname="Type: 8 (Echo (ping) request)" size="1" pos="34" show="8" value="08"/>
    <field name="icmp.code" showname="Code: 0" size="1" pos="35" show="0" value="00"/>
    <field name="icmp.checksum" showname="Checksum: 0x33e7 [correct]" size="2" pos="36" show="0x000033e7" value="33e7"/>
    <field name="icmp.checksum.status" showname="Checksum Status: Good" size="0" pos="36" show="1"/>
    <field name="icmp.ident" showname="Identifier (BE): 138 (0x008a)" size="2" pos="38" show="138" value="008a"/>
    <field name="icmp.ident" showname="Identifier (LE): 35328 (0x8a00)" size="2" pos="38" show="35328" value="008a"/>
    <field name="icmp.seq" showname="Sequence number (BE): 2 (0x0002)" size="2" pos="40" show="2" value="0002"/>
    <field name="icmp.seq_le" showname="Sequence number (LE): 512 (0x0200)" size="2" pos="40" show="512" value="0002"/>
    <field name="icmp.resp_in" showname="Response frame: 35" size="0" pos="34" show="35"/>
    <field name="icmp.data_time" showname="Timestamp from icmp data: May 19, 2023 23:00:49.000000000 CEST" size="8" pos="42" show="May 19, 2023 23:00:49.000000000 CEST" value="81e3676400000000"/>
    <field name="icmp.data_time_relative" showname="Timestamp from icmp data (relative): 0.197398674 seconds" size="8" pos="42" show="0.197398674" value="81e3676400000000"/>
    <field name="data" value="1872030000000000101112131415161718191a1b1c1d1e1f202122232425262728292a2b2c2d2e2f3031323334353637">
      <field name="data.data" showname="Data: 1872030000000000101112131415161718191a1b1c1d1e1f\xe2\x80\xa6" size="48" pos="50" show="18:72:03:00:00:00:00:00:10:11:12:13:14:15:16:17:18:19:1a:1b:1c:1d:1e:1f:20:21:22:23:24:25:26:27:28:29:2a:2b:2c:2d:2e:2f:30:31:32:33:34:35:36:37" value="1872030000000000101112131415161718191a1b1c1d1e1f202122232425262728292a2b2c2d2e2f3031323334353637"/>
      <field name="data.len" showname="Length: 48" size="0" pos="50" show="48"/>
    </field>
  </proto>
</packet>


<packet>
  <proto name="geninfo" pos="0" showname="General information" size="98">
    <field name="num" pos="0" show="35" showname="Number" value="23" size="98"/>
    <field name="len" pos="0" show="98" showname="Frame Length" value="62" size="98"/>
    <field name="caplen" pos="0" show="98" showname="Captured Length" value="62" size="98"/>
    <field name="timestamp" pos="0" show="May 19, 2023 23:00:49.206811110 CEST" showname="Captured Time" value="1684530049.206811110" size="98"/>
  </proto>
  <proto name="frame" showname="Frame 35: 98 bytes on wire (784 bits), 98 bytes captured (784 bits) on interface veth_upf, id 0" size="98" pos="0">
    <field name="filtered" value="frame" />
  </proto>
  <proto name="eth" showname="Ethernet II, Src: ca:af:68:06:90:ef, Dst: 2a:84:b5:31:92:1e" size="14" pos="0">
    <field name="filtered" value="eth" />
  </proto>
  <proto name="ip" showname="Internet Protocol Version 4, Src: 8.8.8.8, Dst: 10.0.17.1" size="20" pos="14">
    <field name="filtered" value="ip" />
  </proto>
  <proto name="icmp" showname="Internet Control Message Protocol" size="64" pos="34">
    <field name="icmp.type" showname="Type: 0 (Echo (ping) reply)" size="1" pos="34" show="0" value="00"/>
    <field name="icmp.code" showname="Code: 0" size="1" pos="35" show="0" value="00"/>
    <field name="icmp.checksum" showname="Checksum: 0x3be7 [correct]" size="2" pos="36" show="0x00003be7" value="3be7"/>
    <field name="icmp.checksum.status" showname="Checksum Status: Good" size="0" pos="36" show="1"/>
    <field name="icmp.ident" showname="Identifier (BE): 138 (0x008a)" size="2" pos="38" show="138" value="008a"/>
    <field name="icmp.ident" showname="Identifier (LE): 35328 (0x8a00)" size="2" pos="38" show="35328" value="008a"/>
    <field name="icmp.seq" showname="Sequence number (BE): 2 (0x0002)" size="2" pos="40" show="2" value="0002"/>
    <field name="icmp.seq_le" showname="Sequence number (LE): 512 (0x0200)" size="2" pos="40" show="512" value="0002"/>
    <field name="icmp.resp_to" showname="Request frame: 34" size="0" pos="34" show="34"/>
    <field name="icmp.resptime" showname="Response time: 9,412 ms" size="0" pos="34" show="9.412436"/>
    <field name="icmp.data_time" showname="Timestamp from icmp data: May 19, 2023 23:00:49.000000000 CEST" size="8" pos="42" show="May 19, 2023 23:00:49.000000000 CEST" value="81e3676400000000"/>
    <field name="icmp.data_time_relative" showname="Timestamp from icmp data (relative): 0.206811110 seconds" size="8" pos="42" show="0.206811110" value="81e3676400000000"/>
    <field name="data" value="1872030000000000101112131415161718191a1b1c1d1e1f202122232425262728292a2b2c2d2e2f3031323334353637">
      <field name="data.data" showname="Data: 1872030000000000101112131415161718191a1b1c1d1e1f\xe2\x80\xa6" size="48" pos="50" show="18:72:03:00:00:00:00:00:10:11:12:13:14:15:16:17:18:19:1a:1b:1c:1d:1e:1f:20:21:22:23:24:25:26:27:28:29:2a:2b:2c:2d:2e:2f:30:31:32:33:34:35:36:37" value="1872030000000000101112131415161718191a1b1c1d1e1f202122232425262728292a2b2c2d2e2f3031323334353637"/>
      <field name="data.len" showname="Length: 48" size="0" pos="50" show="48"/>
    </field>
  </proto>
</packet>


<packet>
  <proto name="geninfo" pos="0" showname="General information" size="142">
    <field name="num" pos="0" show="36" showname="Number" value="24" size="142"/>
    <field name="len" pos="0" show="142" showname="Frame Length" value="8e" size="142"/>
    <field name="caplen" pos="0" show="142" showname="Captured Length" value="8e" size="142"/>
    <field name="timestamp" pos="0" show="May 19, 2023 23:00:49.206927060 CEST" showname="Captured Time" value="1684530049.206927060" size="142"/>
  </proto>
  <proto name="frame" showname="Frame 36: 142 bytes on wire (1136 bits), 142 bytes captured (1136 bits) on interface veth_upf, id 0" size="142" pos="0">
    <field name="filtered" value="frame" />
  </proto>
  <proto name="eth" showname="Ethernet II, Src: 2a:84:b5:31:92:1e, Dst: ca:af:68:06:90:ef" size="14" pos="0">
    <field name="filtered" value="eth" />
  </proto>
  <proto name="ip" showname="Internet Protocol Version 4, Src: 10.0.17.1, Dst: 10.0.2.15" size="20" pos="14">
    <field name="filtered" value="ip" />
  </proto>
  <proto name="udp" showname="User Datagram Protocol, Src Port: 2152, Dst Port: 2152" size="8" pos="34">
    <field name="filtered" value="udp" />
  </proto>
  <proto name="gtp" showname="GPRS Tunneling Protocol" size="16" pos="42">
    <field name="filtered" value="gtp" />
  </proto>
  <proto name="ip" showname="Internet Protocol Version 4, Src: 8.8.8.8, Dst: 10.45.0.3" size="20" pos="58">
    <field name="filtered" value="ip" />
  </proto>
  <proto name="icmp" showname="Internet Control Message Protocol" size="64" pos="78">
    <field name="icmp.type" showname="Type: 0 (Echo (ping) reply)" size="1" pos="78" show="0" value="00"/>
    <field name="icmp.code" showname="Code: 0" size="1" pos="79" show="0" value="00"/>
    <field name="icmp.checksum" showname="Checksum: 0x3be7 [correct]" size="2" pos="80" show="0x00003be7" value="3be7"/>
    <field name="icmp.checksum.status" showname="Checksum Status: Good" size="0" pos="80" show="1"/>
    <field name="icmp.ident" showname="Identifier (BE): 138 (0x008a)" size="2" pos="82" show="138" value="008a"/>
    <field name="icmp.ident" showname="Identifier (LE): 35328 (0x8a00)" size="2" pos="82" show="35328" value="008a"/>
    <field name="icmp.seq" showname="Sequence number (BE): 2 (0x0002)" size="2" pos="84" show="2" value="0002"/>
    <field name="icmp.seq_le" showname="Sequence number (LE): 512 (0x0200)" size="2" pos="84" show="512" value="0002"/>
    <field name="icmp.resp_to" showname="Request frame: 33" size="0" pos="78" show="33"/>
    <field name="icmp.resptime" showname="Response time: 9,674 ms" size="0" pos="78" show="9.673576"/>
    <field name="icmp.data_time" showname="Timestamp from icmp data: May 19, 2023 23:00:49.000000000 CEST" size="8" pos="86" show="May 19, 2023 23:00:49.000000000 CEST" value="81e3676400000000"/>
    <field name="icmp.data_time_relative" showname="Timestamp from icmp data (relative): 0.206927060 seconds" size="8" pos="86" show="0.206927060" value="81e3676400000000"/>
    <field name="data" value="1872030000000000101112131415161718191a1b1c1d1e1f202122232425262728292a2b2c2d2e2f3031323334353637">
      <field name="data.data" showname="Data: 1872030000000000101112131415161718191a1b1c1d1e1f\xe2\x80\xa6" size="48" pos="94" show="18:72:03:00:00:00:00:00:10:11:12:13:14:15:16:17:18:19:1a:1b:1c:1d:1e:1f:20:21:22:23:24:25:26:27:28:29:2a:2b:2c:2d:2e:2f:30:31:32:33:34:35:36:37" value="1872030000000000101112131415161718191a1b1c1d1e1f202122232425262728292a2b2c2d2e2f3031323334353637"/>
      <field name="data.len" showname="Length: 48" size="0" pos="94" show="48"/>
    </field>
  </proto>
</packet>


<packet>
  <proto name="geninfo" pos="0" showname="General information" size="58">
    <field name="num" pos="0" show="37" showname="Number" value="25" size="58"/>
    <field name="len" pos="0" show="58" showname="Frame Length" value="3a" size="58"/>
    <field name="caplen" pos="0" show="58" showname="Captured Length" value="3a" size="58"/>
    <field name="timestamp" pos="0" show="May 19, 2023 23:00:49.524240849 CEST" showname="Captured Time" value="1684530049.524240849" size="58"/>
  </proto>
  <proto name="frame" showname="Frame 37: 58 bytes on wire (464 bits), 58 bytes captured (464 bits) on interface veth_upf, id 0" size="58" pos="0">
    <field name="filtered" value="frame" />
  </proto>
  <proto name="eth" showname="Ethernet II, Src: 2a:84:b5:31:92:1e, Dst: ca:af:68:06:90:ef" size="14" pos="0">
    <field name="filtered" value="eth" />
  </proto>
  <proto name="ip" showname="Internet Protocol Version 4, Src: 10.0.17.1, Dst: 10.0.14.1" size="20" pos="14">
    <field name="filtered" value="ip" />
  </proto>
  <proto name="udp" showname="User Datagram Protocol, Src Port: 8805, Dst Port: 8805" size="8" pos="34">
    <field name="filtered" value="udp" />
  </proto>
  <proto name="pfcp" showname="Packet Forwarding Control Protocol" size="16" pos="42">
    <field name="pfcp.flags" showname="Flags: 0x20" size="1" pos="42" show="0x00000020" value="20">
      <field name="pfcp.version" showname="001. .... = Version: 1" size="1" pos="42" show="1" value="1" unmaskedvalue="20"/>
      <field name="pfcp.spare_b4" showname="...0 .... = Spare: 0" size="1" pos="42" show="0" value="0" unmaskedvalue="20"/>
      <field name="pfcp.spare_b3" showname=".... 0... = Spare: 0" size="1" pos="42" show="0" value="0" unmaskedvalue="20"/>
      <field name="pfcp.spare_b2" showname=".... .0.. = Spare: 0" size="1" pos="42" show="0" value="0" unmaskedvalue="20"/>
      <field name="pfcp.mp_flag" showname=".... ..0. = Message Priority (MP): False" size="1" pos="42" show="0" value="0" unmaskedvalue="20"/>
      <field name="pfcp.s" showname=".... ...0 = SEID (S): False" size="1" pos="42" show="0" value="0" unmaskedvalue="20"/>
    </field>
    <field name="pfcp.msg_type" showname="Message Type: PFCP Heartbeat Request (1)" size="1" pos="43" show="1" value="01"/>
    <field name="pfcp.length" showname="Length: 12" size="2" pos="44" show="12" value="000c"/>
    <field name="pfcp.seqno" showname="Sequence Number: 19" size="3" pos="46" show="19" value="000013"/>
    <field name="pfcp.spare_oct" showname="Spare: 0" size="1" pos="49" show="0" value="00"/>
    <field name="" show="Recovery Time Stamp : May 19, 2023 20:57:14.000000000 UTC" size="8" pos="50" value="00600004e812612a">
      <field name="pfcp.ie_type" showname="IE Type: Recovery Time Stamp (96)" size="2" pos="50" show="96" value="0060"/>
      <field name="pfcp.ie_len" showname="IE Length: 4" size="2" pos="52" show="4" value="0004"/>
      <field name="pfcp.recovery_time_stamp" showname="Recovery Time Stamp: May 19, 2023 20:57:14.000000000 UTC" size="4" pos="54" show="May 19, 2023 22:57:14.000000000 CEST" value="e812612a"/>
    </field>
    <field name="pfcp.response_in" showname="Response In: 39" size="0" pos="42" show="39"/>
  </proto>
</packet>


<packet>
  <proto name="geninfo" pos="0" showname="General information" size="58">
    <field name="num" pos="0" show="38" showname="Number" value="26" size="58"/>
    <field name="len" pos="0" show="58" showname="Frame Length" value="3a" size="58"/>
    <field name="caplen" pos="0" show="58" showname="Captured Length" value="3a" size="58"/>
    <field name="timestamp" pos="0" show="May 19, 2023 23:00:49.524331145 CEST" showname="Captured Time" value="1684530049.524331145" size="58"/>
  </proto>
  <proto name="frame" showname="Frame 38: 58 bytes on wire (464 bits), 58 bytes captured (464 bits) on interface veth_upf, id 0" size="58" pos="0">
    <field name="filtered" value="frame" />
  </proto>
  <proto name="eth" showname="Ethernet II, Src: ca:af:68:06:90:ef, Dst: 2a:84:b5:31:92:1e" size="14" pos="0">
    <field name="filtered" value="eth" />
  </proto>
  <proto name="ip" showname="Internet Protocol Version 4, Src: 10.0.14.1, Dst: 10.0.17.1" size="20" pos="14">
    <field name="filtered" value="ip" />
  </proto>
  <proto name="udp" showname="User Datagram Protocol, Src Port: 8805, Dst Port: 8805" size="8" pos="34">
    <field name="filtered" value="udp" />
  </proto>
  <proto name="pfcp" showname="Packet Forwarding Control Protocol" size="16" pos="42">
    <field name="pfcp.flags" showname="Flags: 0x20" size="1" pos="42" show="0x00000020" value="20">
      <field name="pfcp.version" showname="001. .... = Version: 1" size="1" pos="42" show="1" value="1" unmaskedvalue="20"/>
      <field name="pfcp.spare_b4" showname="...0 .... = Spare: 0" size="1" pos="42" show="0" value="0" unmaskedvalue="20"/>
      <field name="pfcp.spare_b3" showname=".... 0... = Spare: 0" size="1" pos="42" show="0" value="0" unmaskedvalue="20"/>
      <field name="pfcp.spare_b2" showname=".... .0.. = Spare: 0" size="1" pos="42" show="0" value="0" unmaskedvalue="20"/>
      <field name="pfcp.mp_flag" showname=".... ..0. = Message Priority (MP): False" size="1" pos="42" show="0" value="0" unmaskedvalue="20"/>
      <field name="pfcp.s" showname=".... ...0 = SEID (S): False" size="1" pos="42" show="0" value="0" unmaskedvalue="20"/>
    </field>
    <field name="pfcp.msg_type" showname="Message Type: PFCP Heartbeat Request (1)" size="1" pos="43" show="1" value="01"/>
    <field name="pfcp.length" showname="Length: 12" size="2" pos="44" show="12" value="000c"/>
    <field name="pfcp.seqno" showname="Sequence Number: 27" size="3" pos="46" show="27" value="00001b"/>
    <field name="pfcp.spare_oct" showname="Spare: 0" size="1" pos="49" show="0" value="00"/>
    <field name="" show="Recovery Time Stamp : May 19, 2023 20:57:06.000000000 UTC" size="8" pos="50" value="00600004e8126122">
      <field name="pfcp.ie_type" showname="IE Type: Recovery Time Stamp (96)" size="2" pos="50" show="96" value="0060"/>
      <field name="pfcp.ie_len" showname="IE Length: 4" size="2" pos="52" show="4" value="0004"/>
      <field name="pfcp.recovery_time_stamp" showname="Recovery Time Stamp: May 19, 2023 20:57:06.000000000 UTC" size="4" pos="54" show="May 19, 2023 22:57:06.000000000 CEST" value="e8126122"/>
    </field>
    <field name="pfcp.response_in" showname="Response In: 40" size="0" pos="42" show="40"/>
  </proto>
</packet>


<packet>
  <proto name="geninfo" pos="0" showname="General information" size="58">
    <field name="num" pos="0" show="39" showname="Number" value="27" size="58"/>
    <field name="len" pos="0" show="58" showname="Frame Length" value="3a" size="58"/>
    <field name="caplen" pos="0" show="58" showname="Captured Length" value="3a" size="58"/>
    <field name="timestamp" pos="0" show="May 19, 2023 23:00:49.524395693 CEST" showname="Captured Time" value="1684530049.524395693" size="58"/>
  </proto>
  <proto name="frame" showname="Frame 39: 58 bytes on wire (464 bits), 58 bytes captured (464 bits) on interface veth_upf, id 0" size="58" pos="0">
    <field name="filtered" value="frame" />
  </proto>
  <proto name="eth" showname="Ethernet II, Src: ca:af:68:06:90:ef, Dst: 2a:84:b5:31:92:1e" size="14" pos="0">
    <field name="filtered" value="eth" />
  </proto>
  <proto name="ip" showname="Internet Protocol Version 4, Src: 10.0.14.1, Dst: 10.0.17.1" size="20" pos="14">
    <field name="filtered" value="ip" />
  </proto>
  <proto name="udp" showname="User Datagram Protocol, Src Port: 8805, Dst Port: 8805" size="8" pos="34">
    <field name="filtered" value="udp" />
  </proto>
  <proto name="pfcp" showname="Packet Forwarding Control Protocol" size="16" pos="42">
    <field name="pfcp.flags" showname="Flags: 0x20" size="1" pos="42" show="0x00000020" value="20">
      <field name="pfcp.version" showname="001. .... = Version: 1" size="1" pos="42" show="1" value="1" unmaskedvalue="20"/>
      <field name="pfcp.spare_b4" showname="...0 .... = Spare: 0" size="1" pos="42" show="0" value="0" unmaskedvalue="20"/>
      <field name="pfcp.spare_b3" showname=".... 0... = Spare: 0" size="1" pos="42" show="0" value="0" unmaskedvalue="20"/>
      <field name="pfcp.spare_b2" showname=".... .0.. = Spare: 0" size="1" pos="42" show="0" value="0" unmaskedvalue="20"/>
      <field name="pfcp.mp_flag" showname=".... ..0. = Message Priority (MP): False" size="1" pos="42" show="0" value="0" unmaskedvalue="20"/>
      <field name="pfcp.s" showname=".... ...0 = SEID (S): False" size="1" pos="42" show="0" value="0" unmaskedvalue="20"/>
    </field>
    <field name="pfcp.msg_type" showname="Message Type: PFCP Heartbeat Response (2)" size="1" pos="43" show="2" value="02"/>
    <field name="pfcp.length" showname="Length: 12" size="2" pos="44" show="12" value="000c"/>
    <field name="pfcp.seqno" showname="Sequence Number: 19" size="3" pos="46" show="19" value="000013"/>
    <field name="pfcp.spare_oct" showname="Spare: 0" size="1" pos="49" show="0" value="00"/>
    <field name="" show="Recovery Time Stamp : May 19, 2023 20:57:06.000000000 UTC" size="8" pos="50" value="00600004e8126122">
      <field name="pfcp.ie_type" showname="IE Type: Recovery Time Stamp (96)" size="2" pos="50" show="96" value="0060"/>
      <field name="pfcp.ie_len" showname="IE Length: 4" size="2" pos="52" show="4" value="0004"/>
      <field name="pfcp.recovery_time_stamp" showname="Recovery Time Stamp: May 19, 2023 20:57:06.000000000 UTC" size="4" pos="54" show="May 19, 2023 22:57:06.000000000 CEST" value="e8126122"/>
    </field>
    <field name="pfcp.response_to" showname="Response To: 37" size="0" pos="42" show="37"/>
    <field name="pfcp.response_time" showname="Response Time: 0.000154844 seconds" size="0" pos="42" show="0.000154844"/>
  </proto>
</packet>


<packet>
  <proto name="geninfo" pos="0" showname="General information" size="58">
    <field name="num" pos="0" show="40" showname="Number" value="28" size="58"/>
    <field name="len" pos="0" show="58" showname="Frame Length" value="3a" size="58"/>
    <field name="caplen" pos="0" show="58" showname="Captured Length" value="3a" size="58"/>
    <field name="timestamp" pos="0" show="May 19, 2023 23:00:49.524440440 CEST" showname="Captured Time" value="1684530049.524440440" size="58"/>
  </proto>
  <proto name="frame" showname="Frame 40: 58 bytes on wire (464 bits), 58 bytes captured (464 bits) on interface veth_upf, id 0" size="58" pos="0">
    <field name="filtered" value="frame" />
  </proto>
  <proto name="eth" showname="Ethernet II, Src: 2a:84:b5:31:92:1e, Dst: ca:af:68:06:90:ef" size="14" pos="0">
    <field name="filtered" value="eth" />
  </proto>
  <proto name="ip" showname="Internet Protocol Version 4, Src: 10.0.17.1, Dst: 10.0.14.1" size="20" pos="14">
    <field name="filtered" value="ip" />
  </proto>
  <proto name="udp" showname="User Datagram Protocol, Src Port: 8805, Dst Port: 8805" size="8" pos="34">
    <field name="filtered" value="udp" />
  </proto>
  <proto name="pfcp" showname="Packet Forwarding Control Protocol" size="16" pos="42">
    <field name="pfcp.flags" showname="Flags: 0x20" size="1" pos="42" show="0x00000020" value="20">
      <field name="pfcp.version" showname="001. .... = Version: 1" size="1" pos="42" show="1" value="1" unmaskedvalue="20"/>
      <field name="pfcp.spare_b4" showname="...0 .... = Spare: 0" size="1" pos="42" show="0" value="0" unmaskedvalue="20"/>
      <field name="pfcp.spare_b3" showname=".... 0... = Spare: 0" size="1" pos="42" show="0" value="0" unmaskedvalue="20"/>
      <field name="pfcp.spare_b2" showname=".... .0.. = Spare: 0" size="1" pos="42" show="0" value="0" unmaskedvalue="20"/>
      <field name="pfcp.mp_flag" showname=".... ..0. = Message Priority (MP): False" size="1" pos="42" show="0" value="0" unmaskedvalue="20"/>
      <field name="pfcp.s" showname=".... ...0 = SEID (S): False" size="1" pos="42" show="0" value="0" unmaskedvalue="20"/>
    </field>
    <field name="pfcp.msg_type" showname="Message Type: PFCP Heartbeat Response (2)" size="1" pos="43" show="2" value="02"/>
    <field name="pfcp.length" showname="Length: 12" size="2" pos="44" show="12" value="000c"/>
    <field name="pfcp.seqno" showname="Sequence Number: 27" size="3" pos="46" show="27" value="00001b"/>
    <field name="pfcp.spare_oct" showname="Spare: 0" size="1" pos="49" show="0" value="00"/>
    <field name="" show="Recovery Time Stamp : May 19, 2023 20:57:14.000000000 UTC" size="8" pos="50" value="00600004e812612a">
      <field name="pfcp.ie_type" showname="IE Type: Recovery Time Stamp (96)" size="2" pos="50" show="96" value="0060"/>
      <field name="pfcp.ie_len" showname="IE Length: 4" size="2" pos="52" show="4" value="0004"/>
      <field name="pfcp.recovery_time_stamp" showname="Recovery Time Stamp: May 19, 2023 20:57:14.000000000 UTC" size="4" pos="54" show="May 19, 2023 22:57:14.000000000 CEST" value="e812612a"/>
    </field>
    <field name="pfcp.response_to" showname="Response To: 38" size="0" pos="42" show="38"/>
    <field name="pfcp.response_time" showname="Response Time: 0.000109295 seconds" size="0" pos="42" show="0.000109295"/>
  </proto>
</packet>


<packet>
  <proto name="geninfo" pos="0" showname="General information" size="142">
    <field name="num" pos="0" show="41" showname="Number" value="29" size="142"/>
    <field name="len" pos="0" show="142" showname="Frame Length" value="8e" size="142"/>
    <field name="caplen" pos="0" show="142" showname="Captured Length" value="8e" size="142"/>
    <field name="timestamp" pos="0" show="May 19, 2023 23:00:50.197330301 CEST" showname="Captured Time" value="1684530050.197330301" size="142"/>
  </proto>
  <proto name="frame" showname="Frame 41: 142 bytes on wire (1136 bits), 142 bytes captured (1136 bits) on interface veth_upf, id 0" size="142" pos="0">
    <field name="filtered" value="frame" />
  </proto>
  <proto name="eth" showname="Ethernet II, Src: ca:af:68:06:90:ef, Dst: 2a:84:b5:31:92:1e" size="14" pos="0">
    <field name="filtered" value="eth" />
  </proto>
  <proto name="ip" showname="Internet Protocol Version 4, Src: 10.0.2.15, Dst: 10.0.17.1" size="20" pos="14">
    <field name="filtered" value="ip" />
  </proto>
  <proto name="udp" showname="User Datagram Protocol, Src Port: 2152, Dst Port: 2152" size="8" pos="34">
    <field name="filtered" value="udp" />
  </proto>
  <proto name="gtp" showname="GPRS Tunneling Protocol" size="16" pos="42">
    <field name="filtered" value="gtp" />
  </proto>
  <proto name="ip" showname="Internet Protocol Version 4, Src: 10.45.0.3, Dst: 8.8.8.8" size="20" pos="58">
    <field name="filtered" value="ip" />
  </proto>
  <proto name="icmp" showname="Internet Control Message Protocol" size="64" pos="78">
    <field name="icmp.type" showname="Type: 8 (Echo (ping) request)" size="1" pos="78" show="8" value="08"/>
    <field name="icmp.code" showname="Code: 0" size="1" pos="79" show="0" value="00"/>
    <field name="icmp.checksum" showname="Checksum: 0xcce1 [correct]" size="2" pos="80" show="0x0000cce1" value="cce1"/>
    <field name="icmp.checksum.status" showname="Checksum Status: Good" size="0" pos="80" show="1"/>
    <field name="icmp.ident" showname="Identifier (BE): 138 (0x008a)" size="2" pos="82" show="138" value="008a"/>
    <field name="icmp.ident" showname="Identifier (LE): 35328 (0x8a00)" size="2" pos="82" show="35328" value="008a"/>
    <field name="icmp.seq" showname="Sequence number (BE): 3 (0x0003)" size="2" pos="84" show="3" value="0003"/>
    <field name="icmp.seq_le" showname="Sequence number (LE): 768 (0x0300)" size="2" pos="84" show="768" value="0003"/>
    <field name="icmp.resp_in" showname="Response frame: 44" size="0" pos="78" show="44"/>
    <field name="icmp.data_time" showname="Timestamp from icmp data: May 19, 2023 23:00:50.000000000 CEST" size="8" pos="86" show="May 19, 2023 23:00:50.000000000 CEST" value="82e3676400000000"/>
    <field name="icmp.data_time_relative" showname="Timestamp from icmp data (relative): 0.197330301 seconds" size="8" pos="86" show="0.197330301" value="82e3676400000000"/>
    <field name="data" value="7e76030000000000101112131415161718191a1b1c1d1e1f202122232425262728292a2b2c2d2e2f3031323334353637">
      <field name="data.data" showname="Data: 7e76030000000000101112131415161718191a1b1c1d1e1f\xe2\x80\xa6" size="48" pos="94" show="7e:76:03:00:00:00:00:00:10:11:12:13:14:15:16:17:18:19:1a:1b:1c:1d:1e:1f:20:21:22:23:24:25:26:27:28:29:2a:2b:2c:2d:2e:2f:30:31:32:33:34:35:36:37" value="7e76030000000000101112131415161718191a1b1c1d1e1f202122232425262728292a2b2c2d2e2f3031323334353637"/>
      <field name="data.len" showname="Length: 48" size="0" pos="94" show="48"/>
    </field>
  </proto>
</packet>


<packet>
  <proto name="geninfo" pos="0" showname="General information" size="98">
    <field name="num" pos="0" show="42" showname="Number" value="2a" size="98"/>
    <field name="len" pos="0" show="98" showname="Frame Length" value="62" size="98"/>
    <field name="caplen" pos="0" show="98" showname="Captured Length" value="62" size="98"/>
    <field name="timestamp" pos="0" show="May 19, 2023 23:00:50.197450457 CEST" showname="Captured Time" value="1684530050.197450457" size="98"/>
  </proto>
  <proto name="frame" showname="Frame 42: 98 bytes on wire (784 bits), 98 bytes captured (784 bits) on interface veth_upf, id 0" size="98" pos="0">
    <field name="filtered" value="frame" />
  </proto>
  <proto name="eth" showname="Ethernet II, Src: 2a:84:b5:31:92:1e, Dst: ca:af:68:06:90:ef" size="14" pos="0">
    <field name="filtered" value="eth" />
  </proto>
  <proto name="ip" showname="Internet Protocol Version 4, Src: 10.0.17.1, Dst: 8.8.8.8" size="20" pos="14">
    <field name="filtered" value="ip" />
  </proto>
  <proto name="icmp" showname="Internet Control Message Protocol" size="64" pos="34">
    <field name="icmp.type" showname="Type: 8 (Echo (ping) request)" size="1" pos="34" show="8" value="08"/>
    <field name="icmp.code" showname="Code: 0" size="1" pos="35" show="0" value="00"/>
    <field name="icmp.checksum" showname="Checksum: 0xcce1 [correct]" size="2" pos="36" show="0x0000cce1" value="cce1"/>
    <field name="icmp.checksum.status" showname="Checksum Status: Good" size="0" pos="36" show="1"/>
    <field name="icmp.ident" showname="Identifier (BE): 138 (0x008a)" size="2" pos="38" show="138" value="008a"/>
    <field name="icmp.ident" showname="Identifier (LE): 35328 (0x8a00)" size="2" pos="38" show="35328" value="008a"/>
    <field name="icmp.seq" showname="Sequence number (BE): 3 (0x0003)" size="2" pos="40" show="3" value="0003"/>
    <field name="icmp.seq_le" showname="Sequence number (LE): 768 (0x0300)" size="2" pos="40" show="768" value="0003"/>
    <field name="icmp.resp_in" showname="Response frame: 43" size="0" pos="34" show="43"/>
    <field name="icmp.data_time" showname="Timestamp from icmp data: May 19, 2023 23:00:50.000000000 CEST" size="8" pos="42" show="May 19, 2023 23:00:50.000000000 CEST" value="82e3676400000000"/>
    <field name="icmp.data_time_relative" showname="Timestamp from icmp data (relative): 0.197450457 seconds" size="8" pos="42" show="0.197450457" value="82e3676400000000"/>
    <field name="data" value="7e76030000000000101112131415161718191a1b1c1d1e1f202122232425262728292a2b2c2d2e2f3031323334353637">
      <field name="data.data" showname="Data: 7e76030000000000101112131415161718191a1b1c1d1e1f\xe2\x80\xa6" size="48" pos="50" show="7e:76:03:00:00:00:00:00:10:11:12:13:14:15:16:17:18:19:1a:1b:1c:1d:1e:1f:20:21:22:23:24:25:26:27:28:29:2a:2b:2c:2d:2e:2f:30:31:32:33:34:35:36:37" value="7e76030000000000101112131415161718191a1b1c1d1e1f202122232425262728292a2b2c2d2e2f3031323334353637"/>
      <field name="data.len" showname="Length: 48" size="0" pos="50" show="48"/>
    </field>
  </proto>
</packet>


<packet>
  <proto name="geninfo" pos="0" showname="General information" size="98">
    <field name="num" pos="0" show="43" showname="Number" value="2b" size="98"/>
    <field name="len" pos="0" show="98" showname="Frame Length" value="62" size="98"/>
    <field name="caplen" pos="0" show="98" showname="Captured Length" value="62" size="98"/>
    <field name="timestamp" pos="0" show="May 19, 2023 23:00:50.204587571 CEST" showname="Captured Time" value="1684530050.204587571" size="98"/>
  </proto>
  <proto name="frame" showname="Frame 43: 98 bytes on wire (784 bits), 98 bytes captured (784 bits) on interface veth_upf, id 0" size="98" pos="0">
    <field name="filtered" value="frame" />
  </proto>
  <proto name="eth" showname="Ethernet II, Src: ca:af:68:06:90:ef, Dst: 2a:84:b5:31:92:1e" size="14" pos="0">
    <field name="filtered" value="eth" />
  </proto>
  <proto name="ip" showname="Internet Protocol Version 4, Src: 8.8.8.8, Dst: 10.0.17.1" size="20" pos="14">
    <field name="filtered" value="ip" />
  </proto>
  <proto name="icmp" showname="Internet Control Message Protocol" size="64" pos="34">
    <field name="icmp.type" showname="Type: 0 (Echo (ping) reply)" size="1" pos="34" show="0" value="00"/>
    <field name="icmp.code" showname="Code: 0" size="1" pos="35" show="0" value="00"/>
    <field name="icmp.checksum" showname="Checksum: 0xd4e1 [correct]" size="2" pos="36" show="0x0000d4e1" value="d4e1"/>
    <field name="icmp.checksum.status" showname="Checksum Status: Good" size="0" pos="36" show="1"/>
    <field name="icmp.ident" showname="Identifier (BE): 138 (0x008a)" size="2" pos="38" show="138" value="008a"/>
    <field name="icmp.ident" showname="Identifier (LE): 35328 (0x8a00)" size="2" pos="38" show="35328" value="008a"/>
    <field name="icmp.seq" showname="Sequence number (BE): 3 (0x0003)" size="2" pos="40" show="3" value="0003"/>
    <field name="icmp.seq_le" showname="Sequence number (LE): 768 (0x0300)" size="2" pos="40" show="768" value="0003"/>
    <field name="icmp.resp_to" showname="Request frame: 42" size="0" pos="34" show="42"/>
    <field name="icmp.resptime" showname="Response time: 7,137 ms" size="0" pos="34" show="7.137114"/>
    <field name="icmp.data_time" showname="Timestamp from icmp data: May 19, 2023 23:00:50.000000000 CEST" size="8" pos="42" show="May 19, 2023 23:00:50.000000000 CEST" value="82e3676400000000"/>
    <field name="icmp.data_time_relative" showname="Timestamp from icmp data (relative): 0.204587571 seconds" size="8" pos="42" show="0.204587571" value="82e3676400000000"/>
    <field name="data" value="7e76030000000000101112131415161718191a1b1c1d1e1f202122232425262728292a2b2c2d2e2f3031323334353637">
      <field name="data.data" showname="Data: 7e76030000000000101112131415161718191a1b1c1d1e1f\xe2\x80\xa6" size="48" pos="50" show="7e:76:03:00:00:00:00:00:10:11:12:13:14:15:16:17:18:19:1a:1b:1c:1d:1e:1f:20:21:22:23:24:25:26:27:28:29:2a:2b:2c:2d:2e:2f:30:31:32:33:34:35:36:37" value="7e76030000000000101112131415161718191a1b1c1d1e1f202122232425262728292a2b2c2d2e2f3031323334353637"/>
      <field name="data.len" showname="Length: 48" size="0" pos="50" show="48"/>
    </field>
  </proto>
</packet>


<packet>
  <proto name="geninfo" pos="0" showname="General information" size="142">
    <field name="num" pos="0" show="44" showname="Number" value="2c" size="142"/>
    <field name="len" pos="0" show="142" showname="Frame Length" value="8e" size="142"/>
    <field name="caplen" pos="0" show="142" showname="Captured Length" value="8e" size="142"/>
    <field name="timestamp" pos="0" show="May 19, 2023 23:00:50.204696686 CEST" showname="Captured Time" value="1684530050.204696686" size="142"/>
  </proto>
  <proto name="frame" showname="Frame 44: 142 bytes on wire (1136 bits), 142 bytes captured (1136 bits) on interface veth_upf, id 0" size="142" pos="0">
    <field name="filtered" value="frame" />
  </proto>
  <proto name="eth" showname="Ethernet II, Src: 2a:84:b5:31:92:1e, Dst: ca:af:68:06:90:ef" size="14" pos="0">
    <field name="filtered" value="eth" />
  </proto>
  <proto name="ip" showname="Internet Protocol Version 4, Src: 10.0.17.1, Dst: 10.0.2.15" size="20" pos="14">
    <field name="filtered" value="ip" />
  </proto>
  <proto name="udp" showname="User Datagram Protocol, Src Port: 2152, Dst Port: 2152" size="8" pos="34">
    <field name="filtered" value="udp" />
  </proto>
  <proto name="gtp" showname="GPRS Tunneling Protocol" size="16" pos="42">
    <field name="filtered" value="gtp" />
  </proto>
  <proto name="ip" showname="Internet Protocol Version 4, Src: 8.8.8.8, Dst: 10.45.0.3" size="20" pos="58">
    <field name="filtered" value="ip" />
  </proto>
  <proto name="icmp" showname="Internet Control Message Protocol" size="64" pos="78">
    <field name="icmp.type" showname="Type: 0 (Echo (ping) reply)" size="1" pos="78" show="0" value="00"/>
    <field name="icmp.code" showname="Code: 0" size="1" pos="79" show="0" value="00"/>
    <field name="icmp.checksum" showname="Checksum: 0xd4e1 [correct]" size="2" pos="80" show="0x0000d4e1" value="d4e1"/>
    <field name="icmp.checksum.status" showname="Checksum Status: Good" size="0" pos="80" show="1"/>
    <field name="icmp.ident" showname="Identifier (BE): 138 (0x008a)" size="2" pos="82" show="138" value="008a"/>
    <field name="icmp.ident" showname="Identifier (LE): 35328 (0x8a00)" size="2" pos="82" show="35328" value="008a"/>
    <field name="icmp.seq" showname="Sequence number (BE): 3 (0x0003)" size="2" pos="84" show="3" value="0003"/>
    <field name="icmp.seq_le" showname="Sequence number (LE): 768 (0x0300)" size="2" pos="84" show="768" value="0003"/>
    <field name="icmp.resp_to" showname="Request frame: 41" size="0" pos="78" show="41"/>
    <field name="icmp.resptime" showname="Response time: 7,366 ms" size="0" pos="78" show="7.366385"/>
    <field name="icmp.data_time" showname="Timestamp from icmp data: May 19, 2023 23:00:50.000000000 CEST" size="8" pos="86" show="May 19, 2023 23:00:50.000000000 CEST" value="82e3676400000000"/>
    <field name="icmp.data_time_relative" showname="Timestamp from icmp data (relative): 0.204696686 seconds" size="8" pos="86" show="0.204696686" value="82e3676400000000"/>
    <field name="data" value="7e76030000000000101112131415161718191a1b1c1d1e1f202122232425262728292a2b2c2d2e2f3031323334353637">
      <field name="data.data" showname="Data: 7e76030000000000101112131415161718191a1b1c1d1e1f\xe2\x80\xa6" size="48" pos="94" show="7e:76:03:00:00:00:00:00:10:11:12:13:14:15:16:17:18:19:1a:1b:1c:1d:1e:1f:20:21:22:23:24:25:26:27:28:29:2a:2b:2c:2d:2e:2f:30:31:32:33:34:35:36:37" value="7e76030000000000101112131415161718191a1b1c1d1e1f202122232425262728292a2b2c2d2e2f3031323334353637"/>
      <field name="data.len" showname="Length: 48" size="0" pos="94" show="48"/>
    </field>
  </proto>
</packet>


<packet>
  <proto name="geninfo" pos="0" showname="General information" size="142">
    <field name="num" pos="0" show="45" showname="Number" value="2d" size="142"/>
    <field name="len" pos="0" show="142" showname="Frame Length" value="8e" size="142"/>
    <field name="caplen" pos="0" show="142" showname="Captured Length" value="8e" size="142"/>
    <field name="timestamp" pos="0" show="May 19, 2023 23:00:51.198624664 CEST" showname="Captured Time" value="1684530051.198624664" size="142"/>
  </proto>
  <proto name="frame" showname="Frame 45: 142 bytes on wire (1136 bits), 142 bytes captured (1136 bits) on interface veth_upf, id 0" size="142" pos="0">
    <field name="filtered" value="frame" />
  </proto>
  <proto name="eth" showname="Ethernet II, Src: ca:af:68:06:90:ef, Dst: 2a:84:b5:31:92:1e" size="14" pos="0">
    <field name="filtered" value="eth" />
  </proto>
  <proto name="ip" showname="Internet Protocol Version 4, Src: 10.0.2.15, Dst: 10.0.17.1" size="20" pos="14">
    <field name="filtered" value="ip" />
  </proto>
  <proto name="udp" showname="User Datagram Protocol, Src Port: 2152, Dst Port: 2152" size="8" pos="34">
    <field name="filtered" value="udp" />
  </proto>
  <proto name="gtp" showname="GPRS Tunneling Protocol" size="16" pos="42">
    <field name="filtered" value="gtp" />
  </proto>
  <proto name="ip" showname="Internet Protocol Version 4, Src: 10.45.0.3, Dst: 8.8.8.8" size="20" pos="58">
    <field name="filtered" value="ip" />
  </proto>
  <proto name="icmp" showname="Internet Control Message Protocol" size="64" pos="78">
    <field name="icmp.type" showname="Type: 8 (Echo (ping) request)" size="1" pos="78" show="8" value="08"/>
    <field name="icmp.code" showname="Code: 0" size="1" pos="79" show="0" value="00"/>
    <field name="icmp.checksum" showname="Checksum: 0x35da [correct]" size="2" pos="80" show="0x000035da" value="35da"/>
    <field name="icmp.checksum.status" showname="Checksum Status: Good" size="0" pos="80" show="1"/>
    <field name="icmp.ident" showname="Identifier (BE): 138 (0x008a)" size="2" pos="82" show="138" value="008a"/>
    <field name="icmp.ident" showname="Identifier (LE): 35328 (0x8a00)" size="2" pos="82" show="35328" value="008a"/>
    <field name="icmp.seq" showname="Sequence number (BE): 4 (0x0004)" size="2" pos="84" show="4" value="0004"/>
    <field name="icmp.seq_le" showname="Sequence number (LE): 1024 (0x0400)" size="2" pos="84" show="1024" value="0004"/>
    <field name="icmp.resp_in" showname="Response frame: 48" size="0" pos="78" show="48"/>
    <field name="icmp.data_time" showname="Timestamp from icmp data: May 19, 2023 23:00:51.000000000 CEST" size="8" pos="86" show="May 19, 2023 23:00:51.000000000 CEST" value="83e3676400000000"/>
    <field name="icmp.data_time_relative" showname="Timestamp from icmp data (relative): 0.198624664 seconds" size="8" pos="86" show="0.198624664" value="83e3676400000000"/>
    <field name="data" value="147d030000000000101112131415161718191a1b1c1d1e1f202122232425262728292a2b2c2d2e2f3031323334353637">
      <field name="data.data" showname="Data: 147d030000000000101112131415161718191a1b1c1d1e1f\xe2\x80\xa6" size="48" pos="94" show="14:7d:03:00:00:00:00:00:10:11:12:13:14:15:16:17:18:19:1a:1b:1c:1d:1e:1f:20:21:22:23:24:25:26:27:28:29:2a:2b:2c:2d:2e:2f:30:31:32:33:34:35:36:37" value="147d030000000000101112131415161718191a1b1c1d1e1f202122232425262728292a2b2c2d2e2f3031323334353637"/>
      <field name="data.len" showname="Length: 48" size="0" pos="94" show="48"/>
    </field>
  </proto>
</packet>


<packet>
  <proto name="geninfo" pos="0" showname="General information" size="98">
    <field name="num" pos="0" show="46" showname="Number" value="2e" size="98"/>
    <field name="len" pos="0" show="98" showname="Frame Length" value="62" size="98"/>
    <field name="caplen" pos="0" show="98" showname="Captured Length" value="62" size="98"/>
    <field name="timestamp" pos="0" show="May 19, 2023 23:00:51.198773942 CEST" showname="Captured Time" value="1684530051.198773942" size="98"/>
  </proto>
  <proto name="frame" showname="Frame 46: 98 bytes on wire (784 bits), 98 bytes captured (784 bits) on interface veth_upf, id 0" size="98" pos="0">
    <field name="filtered" value="frame" />
  </proto>
  <proto name="eth" showname="Ethernet II, Src: 2a:84:b5:31:92:1e, Dst: ca:af:68:06:90:ef" size="14" pos="0">
    <field name="filtered" value="eth" />
  </proto>
  <proto name="ip" showname="Internet Protocol Version 4, Src: 10.0.17.1, Dst: 8.8.8.8" size="20" pos="14">
    <field name="filtered" value="ip" />
  </proto>
  <proto name="icmp" showname="Internet Control Message Protocol" size="64" pos="34">
    <field name="icmp.type" showname="Type: 8 (Echo (ping) request)" size="1" pos="34" show="8" value="08"/>
    <field name="icmp.code" showname="Code: 0" size="1" pos="35" show="0" value="00"/>
    <field name="icmp.checksum" showname="Checksum: 0x35da [correct]" size="2" pos="36" show="0x000035da" value="35da"/>
    <field name="icmp.checksum.status" showname="Checksum Status: Good" size="0" pos="36" show="1"/>
    <field name="icmp.ident" showname="Identifier (BE): 138 (0x008a)" size="2" pos="38" show="138" value="008a"/>
    <field name="icmp.ident" showname="Identifier (LE): 35328 (0x8a00)" size="2" pos="38" show="35328" value="008a"/>
    <field name="icmp.seq" showname="Sequence number (BE): 4 (0x0004)" size="2" pos="40" show="4" value="0004"/>
    <field name="icmp.seq_le" showname="Sequence number (LE): 1024 (0x0400)" size="2" pos="40" show="1024" value="0004"/>
    <field name="icmp.resp_in" showname="Response frame: 47" size="0" pos="34" show="47"/>
    <field name="icmp.data_time" showname="Timestamp from icmp data: May 19, 2023 23:00:51.000000000 CEST" size="8" pos="42" show="May 19, 2023 23:00:51.000000000 CEST" value="83e3676400000000"/>
    <field name="icmp.data_time_relative" showname="Timestamp from icmp data (relative): 0.198773942 seconds" size="8" pos="42" show="0.198773942" value="83e3676400000000"/>
    <field name="data" value="147d030000000000101112131415161718191a1b1c1d1e1f202122232425262728292a2b2c2d2e2f3031323334353637">
      <field name="data.data" showname="Data: 147d030000000000101112131415161718191a1b1c1d1e1f\xe2\x80\xa6" size="48" pos="50" show="14:7d:03:00:00:00:00:00:10:11:12:13:14:15:16:17:18:19:1a:1b:1c:1d:1e:1f:20:21:22:23:24:25:26:27:28:29:2a:2b:2c:2d:2e:2f:30:31:32:33:34:35:36:37" value="147d030000000000101112131415161718191a1b1c1d1e1f202122232425262728292a2b2c2d2e2f3031323334353637"/>
      <field name="data.len" showname="Length: 48" size="0" pos="50" show="48"/>
    </field>
  </proto>
</packet>


<packet>
  <proto name="geninfo" pos="0" showname="General information" size="98">
    <field name="num" pos="0" show="47" showname="Number" value="2f" size="98"/>
    <field name="len" pos="0" show="98" showname="Frame Length" value="62" size="98"/>
    <field name="caplen" pos="0" show="98" showname="Captured Length" value="62" size="98"/>
    <field name="timestamp" pos="0" show="May 19, 2023 23:00:51.209216718 CEST" showname="Captured Time" value="1684530051.209216718" size="98"/>
  </proto>
  <proto name="frame" showname="Frame 47: 98 bytes on wire (784 bits), 98 bytes captured (784 bits) on interface veth_upf, id 0" size="98" pos="0">
    <field name="filtered" value="frame" />
  </proto>
  <proto name="eth" showname="Ethernet II, Src: ca:af:68:06:90:ef, Dst: 2a:84:b5:31:92:1e" size="14" pos="0">
    <field name="filtered" value="eth" />
  </proto>
  <proto name="ip" showname="Internet Protocol Version 4, Src: 8.8.8.8, Dst: 10.0.17.1" size="20" pos="14">
    <field name="filtered" value="ip" />
  </proto>
  <proto name="icmp" showname="Internet Control Message Protocol" size="64" pos="34">
    <field name="icmp.type" showname="Type: 0 (Echo (ping) reply)" size="1" pos="34" show="0" value="00"/>
    <field name="icmp.code" showname="Code: 0" size="1" pos="35" show="0" value="00"/>
    <field name="icmp.checksum" showname="Checksum: 0x3dda [correct]" size="2" pos="36" show="0x00003dda" value="3dda"/>
    <field name="icmp.checksum.status" showname="Checksum Status: Good" size="0" pos="36" show="1"/>
    <field name="icmp.ident" showname="Identifier (BE): 138 (0x008a)" size="2" pos="38" show="138" value="008a"/>
    <field name="icmp.ident" showname="Identifier (LE): 35328 (0x8a00)" size="2" pos="38" show="35328" value="008a"/>
    <field name="icmp.seq" showname="Sequence number (BE): 4 (0x0004)" size="2" pos="40" show="4" value="0004"/>
    <field name="icmp.seq_le" showname="Sequence number (LE): 1024 (0x0400)" size="2" pos="40" show="1024" value="0004"/>
    <field name="icmp.resp_to" showname="Request frame: 46" size="0" pos="34" show="46"/>
    <field name="icmp.resptime" showname="Response time: 10,443 ms" size="0" pos="34" show="10.442776"/>
    <field name="icmp.data_time" showname="Timestamp from icmp data: May 19, 2023 23:00:51.000000000 CEST" size="8" pos="42" show="May 19, 2023 23:00:51.000000000 CEST" value="83e3676400000000"/>
    <field name="icmp.data_time_relative" showname="Timestamp from icmp data (relative): 0.209216718 seconds" size="8" pos="42" show="0.209216718" value="83e3676400000000"/>
    <field name="data" value="147d030000000000101112131415161718191a1b1c1d1e1f202122232425262728292a2b2c2d2e2f3031323334353637">
      <field name="data.data" showname="Data: 147d030000000000101112131415161718191a1b1c1d1e1f\xe2\x80\xa6" size="48" pos="50" show="14:7d:03:00:00:00:00:00:10:11:12:13:14:15:16:17:18:19:1a:1b:1c:1d:1e:1f:20:21:22:23:24:25:26:27:28:29:2a:2b:2c:2d:2e:2f:30:31:32:33:34:35:36:37" value="147d030000000000101112131415161718191a1b1c1d1e1f202122232425262728292a2b2c2d2e2f3031323334353637"/>
      <field name="data.len" showname="Length: 48" size="0" pos="50" show="48"/>
    </field>
  </proto>
</packet>


<packet>
  <proto name="geninfo" pos="0" showname="General information" size="142">
    <field name="num" pos="0" show="48" showname="Number" value="30" size="142"/>
    <field name="len" pos="0" show="142" showname="Frame Length" value="8e" size="142"/>
    <field name="caplen" pos="0" show="142" showname="Captured Length" value="8e" size="142"/>
    <field name="timestamp" pos="0" show="May 19, 2023 23:00:51.209415715 CEST" showname="Captured Time" value="1684530051.209415715" size="142"/>
  </proto>
  <proto name="frame" showname="Frame 48: 142 bytes on wire (1136 bits), 142 bytes captured (1136 bits) on interface veth_upf, id 0" size="142" pos="0">
    <field name="filtered" value="frame" />
  </proto>
  <proto name="eth" showname="Ethernet II, Src: 2a:84:b5:31:92:1e, Dst: ca:af:68:06:90:ef" size="14" pos="0">
    <field name="filtered" value="eth" />
  </proto>
  <proto name="ip" showname="Internet Protocol Version 4, Src: 10.0.17.1, Dst: 10.0.2.15" size="20" pos="14">
    <field name="filtered" value="ip" />
  </proto>
  <proto name="udp" showname="User Datagram Protocol, Src Port: 2152, Dst Port: 2152" size="8" pos="34">
    <field name="filtered" value="udp" />
  </proto>
  <proto name="gtp" showname="GPRS Tunneling Protocol" size="16" pos="42">
    <field name="filtered" value="gtp" />
  </proto>
  <proto name="ip" showname="Internet Protocol Version 4, Src: 8.8.8.8, Dst: 10.45.0.3" size="20" pos="58">
    <field name="filtered" value="ip" />
  </proto>
  <proto name="icmp" showname="Internet Control Message Protocol" size="64" pos="78">
    <field name="icmp.type" showname="Type: 0 (Echo (ping) reply)" size="1" pos="78" show="0" value="00"/>
    <field name="icmp.code" showname="Code: 0" size="1" pos="79" show="0" value="00"/>
    <field name="icmp.checksum" showname="Checksum: 0x3dda [correct]" size="2" pos="80" show="0x00003dda" value="3dda"/>
    <field name="icmp.checksum.status" showname="Checksum Status: Good" size="0" pos="80" show="1"/>
    <field name="icmp.ident" showname="Identifier (BE): 138 (0x008a)" size="2" pos="82" show="138" value="008a"/>
    <field name="icmp.ident" showname="Identifier (LE): 35328 (0x8a00)" size="2" pos="82" show="35328" value="008a"/>
    <field name="icmp.seq" showname="Sequence number (BE): 4 (0x0004)" size="2" pos="84" show="4" value="0004"/>
    <field name="icmp.seq_le" showname="Sequence number (LE): 1024 (0x0400)" size="2" pos="84" show="1024" value="0004"/>
    <field name="icmp.resp_to" showname="Request frame: 45" size="0" pos="78" show="45"/>
    <field name="icmp.resptime" showname="Response time: 10,791 ms" size="0" pos="78" show="10.791051"/>
    <field name="icmp.data_time" showname="Timestamp from icmp data: May 19, 2023 23:00:51.000000000 CEST" size="8" pos="86" show="May 19, 2023 23:00:51.000000000 CEST" value="83e3676400000000"/>
    <field name="icmp.data_time_relative" showname="Timestamp from icmp data (relative): 0.209415715 seconds" size="8" pos="86" show="0.209415715" value="83e3676400000000"/>
    <field name="data" value="147d030000000000101112131415161718191a1b1c1d1e1f202122232425262728292a2b2c2d2e2f3031323334353637">
      <field name="data.data" showname="Data: 147d030000000000101112131415161718191a1b1c1d1e1f\xe2\x80\xa6" size="48" pos="94" show="14:7d:03:00:00:00:00:00:10:11:12:13:14:15:16:17:18:19:1a:1b:1c:1d:1e:1f:20:21:22:23:24:25:26:27:28:29:2a:2b:2c:2d:2e:2f:30:31:32:33:34:35:36:37" value="147d030000000000101112131415161718191a1b1c1d1e1f202122232425262728292a2b2c2d2e2f3031323334353637"/>
      <field name="data.len" showname="Length: 48" size="0" pos="94" show="48"/>
    </field>
  </proto>
</packet>


<packet>
  <proto name="geninfo" pos="0" showname="General information" size="142">
    <field name="num" pos="0" show="49" showname="Number" value="31" size="142"/>
    <field name="len" pos="0" show="142" showname="Frame Length" value="8e" size="142"/>
    <field name="caplen" pos="0" show="142" showname="Captured Length" value="8e" size="142"/>
    <field name="timestamp" pos="0" show="May 19, 2023 23:00:52.198610177 CEST" showname="Captured Time" value="1684530052.198610177" size="142"/>
  </proto>
  <proto name="frame" showname="Frame 49: 142 bytes on wire (1136 bits), 142 bytes captured (1136 bits) on interface veth_upf, id 0" size="142" pos="0">
    <field name="filtered" value="frame" />
  </proto>
  <proto name="eth" showname="Ethernet II, Src: ca:af:68:06:90:ef, Dst: 2a:84:b5:31:92:1e" size="14" pos="0">
    <field name="filtered" value="eth" />
  </proto>
  <proto name="ip" showname="Internet Protocol Version 4, Src: 10.0.2.15, Dst: 10.0.17.1" size="20" pos="14">
    <field name="filtered" value="ip" />
  </proto>
  <proto name="udp" showname="User Datagram Protocol, Src Port: 2152, Dst Port: 2152" size="8" pos="34">
    <field name="filtered" value="udp" />
  </proto>
  <proto name="gtp" showname="GPRS Tunneling Protocol" size="16" pos="42">
    <field name="filtered" value="gtp" />
  </proto>
  <proto name="ip" showname="Internet Protocol Version 4, Src: 10.45.0.3, Dst: 8.8.8.8" size="20" pos="58">
    <field name="filtered" value="ip" />
  </proto>
  <proto name="icmp" showname="Internet Control Message Protocol" size="64" pos="78">
    <field name="icmp.type" showname="Type: 8 (Echo (ping) request)" size="1" pos="78" show="8" value="08"/>
    <field name="icmp.code" showname="Code: 0" size="1" pos="79" show="0" value="00"/>
    <field name="icmp.checksum" showname="Checksum: 0x0ad5 [correct]" size="2" pos="80" show="0x00000ad5" value="0ad5"/>
    <field name="icmp.checksum.status" showname="Checksum Status: Good" size="0" pos="80" show="1"/>
    <field name="icmp.ident" showname="Identifier (BE): 138 (0x008a)" size="2" pos="82" show="138" value="008a"/>
    <field name="icmp.ident" showname="Identifier (LE): 35328 (0x8a00)" size="2" pos="82" show="35328" value="008a"/>
    <field name="icmp.seq" showname="Sequence number (BE): 5 (0x0005)" size="2" pos="84" show="5" value="0005"/>
    <field name="icmp.seq_le" showname="Sequence number (LE): 1280 (0x0500)" size="2" pos="84" show="1280" value="0005"/>
    <field name="icmp.resp_in" showname="Response frame: 52" size="0" pos="78" show="52"/>
    <field name="icmp.data_time" showname="Timestamp from icmp data: May 19, 2023 23:00:52.000000000 CEST" size="8" pos="86" show="May 19, 2023 23:00:52.000000000 CEST" value="84e3676400000000"/>
    <field name="icmp.data_time_relative" showname="Timestamp from icmp data (relative): 0.198610177 seconds" size="8" pos="86" show="0.198610177" value="84e3676400000000"/>
    <field name="data" value="3e81030000000000101112131415161718191a1b1c1d1e1f202122232425262728292a2b2c2d2e2f3031323334353637">
      <field name="data.data" showname="Data: 3e81030000000000101112131415161718191a1b1c1d1e1f\xe2\x80\xa6" size="48" pos="94" show="3e:81:03:00:00:00:00:00:10:11:12:13:14:15:16:17:18:19:1a:1b:1c:1d:1e:1f:20:21:22:23:24:25:26:27:28:29:2a:2b:2c:2d:2e:2f:30:31:32:33:34:35:36:37" value="3e81030000000000101112131415161718191a1b1c1d1e1f202122232425262728292a2b2c2d2e2f3031323334353637"/>
      <field name="data.len" showname="Length: 48" size="0" pos="94" show="48"/>
    </field>
  </proto>
</packet>


<packet>
  <proto name="geninfo" pos="0" showname="General information" size="98">
    <field name="num" pos="0" show="50" showname="Number" value="32" size="98"/>
    <field name="len" pos="0" show="98" showname="Frame Length" value="62" size="98"/>
    <field name="caplen" pos="0" show="98" showname="Captured Length" value="62" size="98"/>
    <field name="timestamp" pos="0" show="May 19, 2023 23:00:52.198730301 CEST" showname="Captured Time" value="1684530052.198730301" size="98"/>
  </proto>
  <proto name="frame" showname="Frame 50: 98 bytes on wire (784 bits), 98 bytes captured (784 bits) on interface veth_upf, id 0" size="98" pos="0">
    <field name="filtered" value="frame" />
  </proto>
  <proto name="eth" showname="Ethernet II, Src: 2a:84:b5:31:92:1e, Dst: ca:af:68:06:90:ef" size="14" pos="0">
    <field name="filtered" value="eth" />
  </proto>
  <proto name="ip" showname="Internet Protocol Version 4, Src: 10.0.17.1, Dst: 8.8.8.8" size="20" pos="14">
    <field name="filtered" value="ip" />
  </proto>
  <proto name="icmp" showname="Internet Control Message Protocol" size="64" pos="34">
    <field name="icmp.type" showname="Type: 8 (Echo (ping) request)" size="1" pos="34" show="8" value="08"/>
    <field name="icmp.code" showname="Code: 0" size="1" pos="35" show="0" value="00"/>
    <field name="icmp.checksum" showname="Checksum: 0x0ad5 [correct]" size="2" pos="36" show="0x00000ad5" value="0ad5"/>
    <field name="icmp.checksum.status" showname="Checksum Status: Good" size="0" pos="36" show="1"/>
    <field name="icmp.ident" showname="Identifier (BE): 138 (0x008a)" size="2" pos="38" show="138" value="008a"/>
    <field name="icmp.ident" showname="Identifier (LE): 35328 (0x8a00)" size="2" pos="38" show="35328" value="008a"/>
    <field name="icmp.seq" showname="Sequence number (BE): 5 (0x0005)" size="2" pos="40" show="5" value="0005"/>
    <field name="icmp.seq_le" showname="Sequence number (LE): 1280 (0x0500)" size="2" pos="40" show="1280" value="0005"/>
    <field name="icmp.resp_in" showname="Response frame: 51" size="0" pos="34" show="51"/>
    <field name="icmp.data_time" showname="Timestamp from icmp data: May 19, 2023 23:00:52.000000000 CEST" size="8" pos="42" show="May 19, 2023 23:00:52.000000000 CEST" value="84e3676400000000"/>
    <field name="icmp.data_time_relative" showname="Timestamp from icmp data (relative): 0.198730301 seconds" size="8" pos="42" show="0.198730301" value="84e3676400000000"/>
    <field name="data" value="3e81030000000000101112131415161718191a1b1c1d1e1f202122232425262728292a2b2c2d2e2f3031323334353637">
      <field name="data.data" showname="Data: 3e81030000000000101112131415161718191a1b1c1d1e1f\xe2\x80\xa6" size="48" pos="50" show="3e:81:03:00:00:00:00:00:10:11:12:13:14:15:16:17:18:19:1a:1b:1c:1d:1e:1f:20:21:22:23:24:25:26:27:28:29:2a:2b:2c:2d:2e:2f:30:31:32:33:34:35:36:37" value="3e81030000000000101112131415161718191a1b1c1d1e1f202122232425262728292a2b2c2d2e2f3031323334353637"/>
      <field name="data.len" showname="Length: 48" size="0" pos="50" show="48"/>
    </field>
  </proto>
</packet>


<packet>
  <proto name="geninfo" pos="0" showname="General information" size="98">
    <field name="num" pos="0" show="51" showname="Number" value="33" size="98"/>
    <field name="len" pos="0" show="98" showname="Frame Length" value="62" size="98"/>
    <field name="caplen" pos="0" show="98" showname="Captured Length" value="62" size="98"/>
    <field name="timestamp" pos="0" show="May 19, 2023 23:00:52.208306142 CEST" showname="Captured Time" value="1684530052.208306142" size="98"/>
  </proto>
  <proto name="frame" showname="Frame 51: 98 bytes on wire (784 bits), 98 bytes captured (784 bits) on interface veth_upf, id 0" size="98" pos="0">
    <field name="filtered" value="frame" />
  </proto>
  <proto name="eth" showname="Ethernet II, Src: ca:af:68:06:90:ef, Dst: 2a:84:b5:31:92:1e" size="14" pos="0">
    <field name="filtered" value="eth" />
  </proto>
  <proto name="ip" showname="Internet Protocol Version 4, Src: 8.8.8.8, Dst: 10.0.17.1" size="20" pos="14">
    <field name="filtered" value="ip" />
  </proto>
  <proto name="icmp" showname="Internet Control Message Protocol" size="64" pos="34">
    <field name="icmp.type" showname="Type: 0 (Echo (ping) reply)" size="1" pos="34" show="0" value="00"/>
    <field name="icmp.code" showname="Code: 0" size="1" pos="35" show="0" value="00"/>
    <field name="icmp.checksum" showname="Checksum: 0x12d5 [correct]" size="2" pos="36" show="0x000012d5" value="12d5"/>
    <field name="icmp.checksum.status" showname="Checksum Status: Good" size="0" pos="36" show="1"/>
    <field name="icmp.ident" showname="Identifier (BE): 138 (0x008a)" size="2" pos="38" show="138" value="008a"/>
    <field name="icmp.ident" showname="Identifier (LE): 35328 (0x8a00)" size="2" pos="38" show="35328" value="008a"/>
    <field name="icmp.seq" showname="Sequence number (BE): 5 (0x0005)" size="2" pos="40" show="5" value="0005"/>
    <field name="icmp.seq_le" showname="Sequence number (LE): 1280 (0x0500)" size="2" pos="40" show="1280" value="0005"/>
    <field name="icmp.resp_to" showname="Request frame: 50" size="0" pos="34" show="50"/>
    <field name="icmp.resptime" showname="Response time: 9,576 ms" size="0" pos="34" show="9.575841"/>
    <field name="icmp.data_time" showname="Timestamp from icmp data: May 19, 2023 23:00:52.000000000 CEST" size="8" pos="42" show="May 19, 2023 23:00:52.000000000 CEST" value="84e3676400000000"/>
    <field name="icmp.data_time_relative" showname="Timestamp from icmp data (relative): 0.208306142 seconds" size="8" pos="42" show="0.208306142" value="84e3676400000000"/>
    <field name="data" value="3e81030000000000101112131415161718191a1b1c1d1e1f202122232425262728292a2b2c2d2e2f3031323334353637">
      <field name="data.data" showname="Data: 3e81030000000000101112131415161718191a1b1c1d1e1f\xe2\x80\xa6" size="48" pos="50" show="3e:81:03:00:00:00:00:00:10:11:12:13:14:15:16:17:18:19:1a:1b:1c:1d:1e:1f:20:21:22:23:24:25:26:27:28:29:2a:2b:2c:2d:2e:2f:30:31:32:33:34:35:36:37" value="3e81030000000000101112131415161718191a1b1c1d1e1f202122232425262728292a2b2c2d2e2f3031323334353637"/>
      <field name="data.len" showname="Length: 48" size="0" pos="50" show="48"/>
    </field>
  </proto>
</packet>


<packet>
  <proto name="geninfo" pos="0" showname="General information" size="142">
    <field name="num" pos="0" show="52" showname="Number" value="34" size="142"/>
    <field name="len" pos="0" show="142" showname="Frame Length" value="8e" size="142"/>
    <field name="caplen" pos="0" show="142" showname="Captured Length" value="8e" size="142"/>
    <field name="timestamp" pos="0" show="May 19, 2023 23:00:52.208446463 CEST" showname="Captured Time" value="1684530052.208446463" size="142"/>
  </proto>
  <proto name="frame" showname="Frame 52: 142 bytes on wire (1136 bits), 142 bytes captured (1136 bits) on interface veth_upf, id 0" size="142" pos="0">
    <field name="filtered" value="frame" />
  </proto>
  <proto name="eth" showname="Ethernet II, Src: 2a:84:b5:31:92:1e, Dst: ca:af:68:06:90:ef" size="14" pos="0">
    <field name="filtered" value="eth" />
  </proto>
  <proto name="ip" showname="Internet Protocol Version 4, Src: 10.0.17.1, Dst: 10.0.2.15" size="20" pos="14">
    <field name="filtered" value="ip" />
  </proto>
  <proto name="udp" showname="User Datagram Protocol, Src Port: 2152, Dst Port: 2152" size="8" pos="34">
    <field name="filtered" value="udp" />
  </proto>
  <proto name="gtp" showname="GPRS Tunneling Protocol" size="16" pos="42">
    <field name="filtered" value="gtp" />
  </proto>
  <proto name="ip" showname="Internet Protocol Version 4, Src: 8.8.8.8, Dst: 10.45.0.3" size="20" pos="58">
    <field name="filtered" value="ip" />
  </proto>
  <proto name="icmp" showname="Internet Control Message Protocol" size="64" pos="78">
    <field name="icmp.type" showname="Type: 0 (Echo (ping) reply)" size="1" pos="78" show="0" value="00"/>
    <field name="icmp.code" showname="Code: 0" size="1" pos="79" show="0" value="00"/>
    <field name="icmp.checksum" showname="Checksum: 0x12d5 [correct]" size="2" pos="80" show="0x000012d5" value="12d5"/>
    <field name="icmp.checksum.status" showname="Checksum Status: Good" size="0" pos="80" show="1"/>
    <field name="icmp.ident" showname="Identifier (BE): 138 (0x008a)" size="2" pos="82" show="138" value="008a"/>
    <field name="icmp.ident" showname="Identifier (LE): 35328 (0x8a00)" size="2" pos="82" show="35328" value="008a"/>
    <field name="icmp.seq" showname="Sequence number (BE): 5 (0x0005)" size="2" pos="84" show="5" value="0005"/>
    <field name="icmp.seq_le" showname="Sequence number (LE): 1280 (0x0500)" size="2" pos="84" show="1280" value="0005"/>
    <field name="icmp.resp_to" showname="Request frame: 49" size="0" pos="78" show="49"/>
    <field name="icmp.resptime" showname="Response time: 9,836 ms" size="0" pos="78" show="9.836286"/>
    <field name="icmp.data_time" showname="Timestamp from icmp data: May 19, 2023 23:00:52.000000000 CEST" size="8" pos="86" show="May 19, 2023 23:00:52.000000000 CEST" value="84e3676400000000"/>
    <field name="icmp.data_time_relative" showname="Timestamp from icmp data (relative): 0.208446463 seconds" size="8" pos="86" show="0.208446463" value="84e3676400000000"/>
    <field name="data" value="3e81030000000000101112131415161718191a1b1c1d1e1f202122232425262728292a2b2c2d2e2f3031323334353637">
      <field name="data.data" showname="Data: 3e81030000000000101112131415161718191a1b1c1d1e1f\xe2\x80\xa6" size="48" pos="94" show="3e:81:03:00:00:00:00:00:10:11:12:13:14:15:16:17:18:19:1a:1b:1c:1d:1e:1f:20:21:22:23:24:25:26:27:28:29:2a:2b:2c:2d:2e:2f:30:31:32:33:34:35:36:37" value="3e81030000000000101112131415161718191a1b1c1d1e1f202122232425262728292a2b2c2d2e2f3031323334353637"/>
      <field name="data.len" showname="Length: 48" size="0" pos="94" show="48"/>
    </field>
  </proto>
</packet>


<packet>
  <proto name="geninfo" pos="0" showname="General information" size="58">
    <field name="num" pos="0" show="53" showname="Number" value="35" size="58"/>
    <field name="len" pos="0" show="58" showname="Frame Length" value="3a" size="58"/>
    <field name="caplen" pos="0" show="58" showname="Captured Length" value="3a" size="58"/>
    <field name="timestamp" pos="0" show="May 19, 2023 23:01:00.533720582 CEST" showname="Captured Time" value="1684530060.533720582" size="58"/>
  </proto>
  <proto name="frame" showname="Frame 53: 58 bytes on wire (464 bits), 58 bytes captured (464 bits) on interface veth_upf, id 0" size="58" pos="0">
    <field name="filtered" value="frame" />
  </proto>
  <proto name="eth" showname="Ethernet II, Src: 2a:84:b5:31:92:1e, Dst: ca:af:68:06:90:ef" size="14" pos="0">
    <field name="filtered" value="eth" />
  </proto>
  <proto name="ip" showname="Internet Protocol Version 4, Src: 10.0.17.1, Dst: 10.0.14.1" size="20" pos="14">
    <field name="filtered" value="ip" />
  </proto>
  <proto name="udp" showname="User Datagram Protocol, Src Port: 8805, Dst Port: 8805" size="8" pos="34">
    <field name="filtered" value="udp" />
  </proto>
  <proto name="pfcp" showname="Packet Forwarding Control Protocol" size="16" pos="42">
    <field name="pfcp.flags" showname="Flags: 0x20" size="1" pos="42" show="0x00000020" value="20">
      <field name="pfcp.version" showname="001. .... = Version: 1" size="1" pos="42" show="1" value="1" unmaskedvalue="20"/>
      <field name="pfcp.spare_b4" showname="...0 .... = Spare: 0" size="1" pos="42" show="0" value="0" unmaskedvalue="20"/>
      <field name="pfcp.spare_b3" showname=".... 0... = Spare: 0" size="1" pos="42" show="0" value="0" unmaskedvalue="20"/>
      <field name="pfcp.spare_b2" showname=".... .0.. = Spare: 0" size="1" pos="42" show="0" value="0" unmaskedvalue="20"/>
      <field name="pfcp.mp_flag" showname=".... ..0. = Message Priority (MP): False" size="1" pos="42" show="0" value="0" unmaskedvalue="20"/>
      <field name="pfcp.s" showname=".... ...0 = SEID (S): False" size="1" pos="42" show="0" value="0" unmaskedvalue="20"/>
    </field>
    <field name="pfcp.msg_type" showname="Message Type: PFCP Heartbeat Request (1)" size="1" pos="43" show="1" value="01"/>
    <field name="pfcp.length" showname="Length: 12" size="2" pos="44" show="12" value="000c"/>
    <field name="pfcp.seqno" showname="Sequence Number: 20" size="3" pos="46" show="20" value="000014"/>
    <field name="pfcp.spare_oct" showname="Spare: 0" size="1" pos="49" show="0" value="00"/>
    <field name="" show="Recovery Time Stamp : May 19, 2023 20:57:14.000000000 UTC" size="8" pos="50" value="00600004e812612a">
      <field name="pfcp.ie_type" showname="IE Type: Recovery Time Stamp (96)" size="2" pos="50" show="96" value="0060"/>
      <field name="pfcp.ie_len" showname="IE Length: 4" size="2" pos="52" show="4" value="0004"/>
      <field name="pfcp.recovery_time_stamp" showname="Recovery Time Stamp: May 19, 2023 20:57:14.000000000 UTC" size="4" pos="54" show="May 19, 2023 22:57:14.000000000 CEST" value="e812612a"/>
    </field>
    <field name="pfcp.response_in" showname="Response In: 54" size="0" pos="42" show="54"/>
  </proto>
</packet>


<packet>
  <proto name="geninfo" pos="0" showname="General information" size="58">
    <field name="num" pos="0" show="54" showname="Number" value="36" size="58"/>
    <field name="len" pos="0" show="58" showname="Frame Length" value="3a" size="58"/>
    <field name="caplen" pos="0" show="58" showname="Captured Length" value="3a" size="58"/>
    <field name="timestamp" pos="0" show="May 19, 2023 23:01:00.533937556 CEST" showname="Captured Time" value="1684530060.533937556" size="58"/>
  </proto>
  <proto name="frame" showname="Frame 54: 58 bytes on wire (464 bits), 58 bytes captured (464 bits) on interface veth_upf, id 0" size="58" pos="0">
    <field name="filtered" value="frame" />
  </proto>
  <proto name="eth" showname="Ethernet II, Src: ca:af:68:06:90:ef, Dst: 2a:84:b5:31:92:1e" size="14" pos="0">
    <field name="filtered" value="eth" />
  </proto>
  <proto name="ip" showname="Internet Protocol Version 4, Src: 10.0.14.1, Dst: 10.0.17.1" size="20" pos="14">
    <field name="filtered" value="ip" />
  </proto>
  <proto name="udp" showname="User Datagram Protocol, Src Port: 8805, Dst Port: 8805" size="8" pos="34">
    <field name="filtered" value="udp" />
  </proto>
  <proto name="pfcp" showname="Packet Forwarding Control Protocol" size="16" pos="42">
    <field name="pfcp.flags" showname="Flags: 0x20" size="1" pos="42" show="0x00000020" value="20">
      <field name="pfcp.version" showname="001. .... = Version: 1" size="1" pos="42" show="1" value="1" unmaskedvalue="20"/>
      <field name="pfcp.spare_b4" showname="...0 .... = Spare: 0" size="1" pos="42" show="0" value="0" unmaskedvalue="20"/>
      <field name="pfcp.spare_b3" showname=".... 0... = Spare: 0" size="1" pos="42" show="0" value="0" unmaskedvalue="20"/>
      <field name="pfcp.spare_b2" showname=".... .0.. = Spare: 0" size="1" pos="42" show="0" value="0" unmaskedvalue="20"/>
      <field name="pfcp.mp_flag" showname=".... ..0. = Message Priority (MP): False" size="1" pos="42" show="0" value="0" unmaskedvalue="20"/>
      <field name="pfcp.s" showname=".... ...0 = SEID (S): False" size="1" pos="42" show="0" value="0" unmaskedvalue="20"/>
    </field>
    <field name="pfcp.msg_type" showname="Message Type: PFCP Heartbeat Response (2)" size="1" pos="43" show="2" value="02"/>
    <field name="pfcp.length" showname="Length: 12" size="2" pos="44" show="12" value="000c"/>
    <field name="pfcp.seqno" showname="Sequence Number: 20" size="3" pos="46" show="20" value="000014"/>
    <field name="pfcp.spare_oct" showname="Spare: 0" size="1" pos="49" show="0" value="00"/>
    <field name="" show="Recovery Time Stamp : May 19, 2023 20:57:06.000000000 UTC" size="8" pos="50" value="00600004e8126122">
      <field name="pfcp.ie_type" showname="IE Type: Recovery Time Stamp (96)" size="2" pos="50" show="96" value="0060"/>
      <field name="pfcp.ie_len" showname="IE Length: 4" size="2" pos="52" show="4" value="0004"/>
      <field name="pfcp.recovery_time_stamp" showname="Recovery Time Stamp: May 19, 2023 20:57:06.000000000 UTC" size="4" pos="54" show="May 19, 2023 22:57:06.000000000 CEST" value="e8126122"/>
    </field>
    <field name="pfcp.response_to" showname="Response To: 53" size="0" pos="42" show="53"/>
    <field name="pfcp.response_time" showname="Response Time: 0.000216974 seconds" size="0" pos="42" show="0.000216974"/>
  </proto>
</packet>


<packet>
  <proto name="geninfo" pos="0" showname="General information" size="58">
    <field name="num" pos="0" show="55" showname="Number" value="37" size="58"/>
    <field name="len" pos="0" show="58" showname="Frame Length" value="3a" size="58"/>
    <field name="caplen" pos="0" show="58" showname="Captured Length" value="3a" size="58"/>
    <field name="timestamp" pos="0" show="May 19, 2023 23:01:00.533987915 CEST" showname="Captured Time" value="1684530060.533987915" size="58"/>
  </proto>
  <proto name="frame" showname="Frame 55: 58 bytes on wire (464 bits), 58 bytes captured (464 bits) on interface veth_upf, id 0" size="58" pos="0">
    <field name="filtered" value="frame" />
  </proto>
  <proto name="eth" showname="Ethernet II, Src: ca:af:68:06:90:ef, Dst: 2a:84:b5:31:92:1e" size="14" pos="0">
    <field name="filtered" value="eth" />
  </proto>
  <proto name="ip" showname="Internet Protocol Version 4, Src: 10.0.14.1, Dst: 10.0.17.1" size="20" pos="14">
    <field name="filtered" value="ip" />
  </proto>
  <proto name="udp" showname="User Datagram Protocol, Src Port: 8805, Dst Port: 8805" size="8" pos="34">
    <field name="filtered" value="udp" />
  </proto>
  <proto name="pfcp" showname="Packet Forwarding Control Protocol" size="16" pos="42">
    <field name="pfcp.flags" showname="Flags: 0x20" size="1" pos="42" show="0x00000020" value="20">
      <field name="pfcp.version" showname="001. .... = Version: 1" size="1" pos="42" show="1" value="1" unmaskedvalue="20"/>
      <field name="pfcp.spare_b4" showname="...0 .... = Spare: 0" size="1" pos="42" show="0" value="0" unmaskedvalue="20"/>
      <field name="pfcp.spare_b3" showname=".... 0... = Spare: 0" size="1" pos="42" show="0" value="0" unmaskedvalue="20"/>
      <field name="pfcp.spare_b2" showname=".... .0.. = Spare: 0" size="1" pos="42" show="0" value="0" unmaskedvalue="20"/>
      <field name="pfcp.mp_flag" showname=".... ..0. = Message Priority (MP): False" size="1" pos="42" show="0" value="0" unmaskedvalue="20"/>
      <field name="pfcp.s" showname=".... ...0 = SEID (S): False" size="1" pos="42" show="0" value="0" unmaskedvalue="20"/>
    </field>
    <field name="pfcp.msg_type" showname="Message Type: PFCP Heartbeat Request (1)" size="1" pos="43" show="1" value="01"/>
    <field name="pfcp.length" showname="Length: 12" size="2" pos="44" show="12" value="000c"/>
    <field name="pfcp.seqno" showname="Sequence Number: 28" size="3" pos="46" show="28" value="00001c"/>
    <field name="pfcp.spare_oct" showname="Spare: 0" size="1" pos="49" show="0" value="00"/>
    <field name="" show="Recovery Time Stamp : May 19, 2023 20:57:06.000000000 UTC" size="8" pos="50" value="00600004e8126122">
      <field name="pfcp.ie_type" showname="IE Type: Recovery Time Stamp (96)" size="2" pos="50" show="96" value="0060"/>
      <field name="pfcp.ie_len" showname="IE Length: 4" size="2" pos="52" show="4" value="0004"/>
      <field name="pfcp.recovery_time_stamp" showname="Recovery Time Stamp: May 19, 2023 20:57:06.000000000 UTC" size="4" pos="54" show="May 19, 2023 22:57:06.000000000 CEST" value="e8126122"/>
    </field>
    <field name="pfcp.response_in" showname="Response In: 56" size="0" pos="42" show="56"/>
  </proto>
</packet>


<packet>
  <proto name="geninfo" pos="0" showname="General information" size="58">
    <field name="num" pos="0" show="56" showname="Number" value="38" size="58"/>
    <field name="len" pos="0" show="58" showname="Frame Length" value="3a" size="58"/>
    <field name="caplen" pos="0" show="58" showname="Captured Length" value="3a" size="58"/>
    <field name="timestamp" pos="0" show="May 19, 2023 23:01:00.534496298 CEST" showname="Captured Time" value="1684530060.534496298" size="58"/>
  </proto>
  <proto name="frame" showname="Frame 56: 58 bytes on wire (464 bits), 58 bytes captured (464 bits) on interface veth_upf, id 0" size="58" pos="0">
    <field name="filtered" value="frame" />
  </proto>
  <proto name="eth" showname="Ethernet II, Src: 2a:84:b5:31:92:1e, Dst: ca:af:68:06:90:ef" size="14" pos="0">
    <field name="filtered" value="eth" />
  </proto>
  <proto name="ip" showname="Internet Protocol Version 4, Src: 10.0.17.1, Dst: 10.0.14.1" size="20" pos="14">
    <field name="filtered" value="ip" />
  </proto>
  <proto name="udp" showname="User Datagram Protocol, Src Port: 8805, Dst Port: 8805" size="8" pos="34">
    <field name="filtered" value="udp" />
  </proto>
  <proto name="pfcp" showname="Packet Forwarding Control Protocol" size="16" pos="42">
    <field name="pfcp.flags" showname="Flags: 0x20" size="1" pos="42" show="0x00000020" value="20">
      <field name="pfcp.version" showname="001. .... = Version: 1" size="1" pos="42" show="1" value="1" unmaskedvalue="20"/>
      <field name="pfcp.spare_b4" showname="...0 .... = Spare: 0" size="1" pos="42" show="0" value="0" unmaskedvalue="20"/>
      <field name="pfcp.spare_b3" showname=".... 0... = Spare: 0" size="1" pos="42" show="0" value="0" unmaskedvalue="20"/>
      <field name="pfcp.spare_b2" showname=".... .0.. = Spare: 0" size="1" pos="42" show="0" value="0" unmaskedvalue="20"/>
      <field name="pfcp.mp_flag" showname=".... ..0. = Message Priority (MP): False" size="1" pos="42" show="0" value="0" unmaskedvalue="20"/>
      <field name="pfcp.s" showname=".... ...0 = SEID (S): False" size="1" pos="42" show="0" value="0" unmaskedvalue="20"/>
    </field>
    <field name="pfcp.msg_type" showname="Message Type: PFCP Heartbeat Response (2)" size="1" pos="43" show="2" value="02"/>
    <field name="pfcp.length" showname="Length: 12" size="2" pos="44" show="12" value="000c"/>
    <field name="pfcp.seqno" showname="Sequence Number: 28" size="3" pos="46" show="28" value="00001c"/>
    <field name="pfcp.spare_oct" showname="Spare: 0" size="1" pos="49" show="0" value="00"/>
    <field name="" show="Recovery Time Stamp : May 19, 2023 20:57:14.000000000 UTC" size="8" pos="50" value="00600004e812612a">
      <field name="pfcp.ie_type" showname="IE Type: Recovery Time Stamp (96)" size="2" pos="50" show="96" value="0060"/>
      <field name="pfcp.ie_len" showname="IE Length: 4" size="2" pos="52" show="4" value="0004"/>
      <field name="pfcp.recovery_time_stamp" showname="Recovery Time Stamp: May 19, 2023 20:57:14.000000000 UTC" size="4" pos="54" show="May 19, 2023 22:57:14.000000000 CEST" value="e812612a"/>
    </field>
    <field name="pfcp.response_to" showname="Response To: 55" size="0" pos="42" show="55"/>
    <field name="pfcp.response_time" showname="Response Time: 0.000508383 seconds" size="0" pos="42" show="0.000508383"/>
  </proto>
</packet>


<packet>
  <proto name="geninfo" pos="0" showname="General information" size="58">
    <field name="num" pos="0" show="61" showname="Number" value="3d" size="58"/>
    <field name="len" pos="0" show="58" showname="Frame Length" value="3a" size="58"/>
    <field name="caplen" pos="0" show="58" showname="Captured Length" value="3a" size="58"/>
    <field name="timestamp" pos="0" show="May 19, 2023 23:01:11.550784209 CEST" showname="Captured Time" value="1684530071.550784209" size="58"/>
  </proto>
  <proto name="frame" showname="Frame 61: 58 bytes on wire (464 bits), 58 bytes captured (464 bits) on interface veth_upf, id 0" size="58" pos="0">
    <field name="filtered" value="frame" />
  </proto>
  <proto name="eth" showname="Ethernet II, Src: 2a:84:b5:31:92:1e, Dst: ca:af:68:06:90:ef" size="14" pos="0">
    <field name="filtered" value="eth" />
  </proto>
  <proto name="ip" showname="Internet Protocol Version 4, Src: 10.0.17.1, Dst: 10.0.14.1" size="20" pos="14">
    <field name="filtered" value="ip" />
  </proto>
  <proto name="udp" showname="User Datagram Protocol, Src Port: 8805, Dst Port: 8805" size="8" pos="34">
    <field name="filtered" value="udp" />
  </proto>
  <proto name="pfcp" showname="Packet Forwarding Control Protocol" size="16" pos="42">
    <field name="pfcp.flags" showname="Flags: 0x20" size="1" pos="42" show="0x00000020" value="20">
      <field name="pfcp.version" showname="001. .... = Version: 1" size="1" pos="42" show="1" value="1" unmaskedvalue="20"/>
      <field name="pfcp.spare_b4" showname="...0 .... = Spare: 0" size="1" pos="42" show="0" value="0" unmaskedvalue="20"/>
      <field name="pfcp.spare_b3" showname=".... 0... = Spare: 0" size="1" pos="42" show="0" value="0" unmaskedvalue="20"/>
      <field name="pfcp.spare_b2" showname=".... .0.. = Spare: 0" size="1" pos="42" show="0" value="0" unmaskedvalue="20"/>
      <field name="pfcp.mp_flag" showname=".... ..0. = Message Priority (MP): False" size="1" pos="42" show="0" value="0" unmaskedvalue="20"/>
      <field name="pfcp.s" showname=".... ...0 = SEID (S): False" size="1" pos="42" show="0" value="0" unmaskedvalue="20"/>
    </field>
    <field name="pfcp.msg_type" showname="Message Type: PFCP Heartbeat Request (1)" size="1" pos="43" show="1" value="01"/>
    <field name="pfcp.length" showname="Length: 12" size="2" pos="44" show="12" value="000c"/>
    <field name="pfcp.seqno" showname="Sequence Number: 21" size="3" pos="46" show="21" value="000015"/>
    <field name="pfcp.spare_oct" showname="Spare: 0" size="1" pos="49" show="0" value="00"/>
    <field name="" show="Recovery Time Stamp : May 19, 2023 20:57:14.000000000 UTC" size="8" pos="50" value="00600004e812612a">
      <field name="pfcp.ie_type" showname="IE Type: Recovery Time Stamp (96)" size="2" pos="50" show="96" value="0060"/>
      <field name="pfcp.ie_len" showname="IE Length: 4" size="2" pos="52" show="4" value="0004"/>
      <field name="pfcp.recovery_time_stamp" showname="Recovery Time Stamp: May 19, 2023 20:57:14.000000000 UTC" size="4" pos="54" show="May 19, 2023 22:57:14.000000000 CEST" value="e812612a"/>
    </field>
    <field name="pfcp.response_in" showname="Response In: 64" size="0" pos="42" show="64"/>
  </proto>
</packet>


<packet>
  <proto name="geninfo" pos="0" showname="General information" size="58">
    <field name="num" pos="0" show="62" showname="Number" value="3e" size="58"/>
    <field name="len" pos="0" show="58" showname="Frame Length" value="3a" size="58"/>
    <field name="caplen" pos="0" show="58" showname="Captured Length" value="3a" size="58"/>
    <field name="timestamp" pos="0" show="May 19, 2023 23:01:11.550912625 CEST" showname="Captured Time" value="1684530071.550912625" size="58"/>
  </proto>
  <proto name="frame" showname="Frame 62: 58 bytes on wire (464 bits), 58 bytes captured (464 bits) on interface veth_upf, id 0" size="58" pos="0">
    <field name="filtered" value="frame" />
  </proto>
  <proto name="eth" showname="Ethernet II, Src: ca:af:68:06:90:ef, Dst: 2a:84:b5:31:92:1e" size="14" pos="0">
    <field name="filtered" value="eth" />
  </proto>
  <proto name="ip" showname="Internet Protocol Version 4, Src: 10.0.14.1, Dst: 10.0.17.1" size="20" pos="14">
    <field name="filtered" value="ip" />
  </proto>
  <proto name="udp" showname="User Datagram Protocol, Src Port: 8805, Dst Port: 8805" size="8" pos="34">
    <field name="filtered" value="udp" />
  </proto>
  <proto name="pfcp" showname="Packet Forwarding Control Protocol" size="16" pos="42">
    <field name="pfcp.flags" showname="Flags: 0x20" size="1" pos="42" show="0x00000020" value="20">
      <field name="pfcp.version" showname="001. .... = Version: 1" size="1" pos="42" show="1" value="1" unmaskedvalue="20"/>
      <field name="pfcp.spare_b4" showname="...0 .... = Spare: 0" size="1" pos="42" show="0" value="0" unmaskedvalue="20"/>
      <field name="pfcp.spare_b3" showname=".... 0... = Spare: 0" size="1" pos="42" show="0" value="0" unmaskedvalue="20"/>
      <field name="pfcp.spare_b2" showname=".... .0.. = Spare: 0" size="1" pos="42" show="0" value="0" unmaskedvalue="20"/>
      <field name="pfcp.mp_flag" showname=".... ..0. = Message Priority (MP): False" size="1" pos="42" show="0" value="0" unmaskedvalue="20"/>
      <field name="pfcp.s" showname=".... ...0 = SEID (S): False" size="1" pos="42" show="0" value="0" unmaskedvalue="20"/>
    </field>
    <field name="pfcp.msg_type" showname="Message Type: PFCP Heartbeat Request (1)" size="1" pos="43" show="1" value="01"/>
    <field name="pfcp.length" showname="Length: 12" size="2" pos="44" show="12" value="000c"/>
    <field name="pfcp.seqno" showname="Sequence Number: 29" size="3" pos="46" show="29" value="00001d"/>
    <field name="pfcp.spare_oct" showname="Spare: 0" size="1" pos="49" show="0" value="00"/>
    <field name="" show="Recovery Time Stamp : May 19, 2023 20:57:06.000000000 UTC" size="8" pos="50" value="00600004e8126122">
      <field name="pfcp.ie_type" showname="IE Type: Recovery Time Stamp (96)" size="2" pos="50" show="96" value="0060"/>
      <field name="pfcp.ie_len" showname="IE Length: 4" size="2" pos="52" show="4" value="0004"/>
      <field name="pfcp.recovery_time_stamp" showname="Recovery Time Stamp: May 19, 2023 20:57:06.000000000 UTC" size="4" pos="54" show="May 19, 2023 22:57:06.000000000 CEST" value="e8126122"/>
    </field>
    <field name="pfcp.response_in" showname="Response In: 63" size="0" pos="42" show="63"/>
  </proto>
</packet>


<packet>
  <proto name="geninfo" pos="0" showname="General information" size="58">
    <field name="num" pos="0" show="63" showname="Number" value="3f" size="58"/>
    <field name="len" pos="0" show="58" showname="Frame Length" value="3a" size="58"/>
    <field name="caplen" pos="0" show="58" showname="Captured Length" value="3a" size="58"/>
    <field name="timestamp" pos="0" show="May 19, 2023 23:01:11.550990026 CEST" showname="Captured Time" value="1684530071.550990026" size="58"/>
  </proto>
  <proto name="frame" showname="Frame 63: 58 bytes on wire (464 bits), 58 bytes captured (464 bits) on interface veth_upf, id 0" size="58" pos="0">
    <field name="filtered" value="frame" />
  </proto>
  <proto name="eth" showname="Ethernet II, Src: 2a:84:b5:31:92:1e, Dst: ca:af:68:06:90:ef" size="14" pos="0">
    <field name="filtered" value="eth" />
  </proto>
  <proto name="ip" showname="Internet Protocol Version 4, Src: 10.0.17.1, Dst: 10.0.14.1" size="20" pos="14">
    <field name="filtered" value="ip" />
  </proto>
  <proto name="udp" showname="User Datagram Protocol, Src Port: 8805, Dst Port: 8805" size="8" pos="34">
    <field name="filtered" value="udp" />
  </proto>
  <proto name="pfcp" showname="Packet Forwarding Control Protocol" size="16" pos="42">
    <field name="pfcp.flags" showname="Flags: 0x20" size="1" pos="42" show="0x00000020" value="20">
      <field name="pfcp.version" showname="001. .... = Version: 1" size="1" pos="42" show="1" value="1" unmaskedvalue="20"/>
      <field name="pfcp.spare_b4" showname="...0 .... = Spare: 0" size="1" pos="42" show="0" value="0" unmaskedvalue="20"/>
      <field name="pfcp.spare_b3" showname=".... 0... = Spare: 0" size="1" pos="42" show="0" value="0" unmaskedvalue="20"/>
      <field name="pfcp.spare_b2" showname=".... .0.. = Spare: 0" size="1" pos="42" show="0" value="0" unmaskedvalue="20"/>
      <field name="pfcp.mp_flag" showname=".... ..0. = Message Priority (MP): False" size="1" pos="42" show="0" value="0" unmaskedvalue="20"/>
      <field name="pfcp.s" showname=".... ...0 = SEID (S): False" size="1" pos="42" show="0" value="0" unmaskedvalue="20"/>
    </field>
    <field name="pfcp.msg_type" showname="Message Type: PFCP Heartbeat Response (2)" size="1" pos="43" show="2" value="02"/>
    <field name="pfcp.length" showname="Length: 12" size="2" pos="44" show="12" value="000c"/>
    <field name="pfcp.seqno" showname="Sequence Number: 29" size="3" pos="46" show="29" value="00001d"/>
    <field name="pfcp.spare_oct" showname="Spare: 0" size="1" pos="49" show="0" value="00"/>
    <field name="" show="Recovery Time Stamp : May 19, 2023 20:57:14.000000000 UTC" size="8" pos="50" value="00600004e812612a">
      <field name="pfcp.ie_type" showname="IE Type: Recovery Time Stamp (96)" size="2" pos="50" show="96" value="0060"/>
      <field name="pfcp.ie_len" showname="IE Length: 4" size="2" pos="52" show="4" value="0004"/>
      <field name="pfcp.recovery_time_stamp" showname="Recovery Time Stamp: May 19, 2023 20:57:14.000000000 UTC" size="4" pos="54" show="May 19, 2023 22:57:14.000000000 CEST" value="e812612a"/>
    </field>
    <field name="pfcp.response_to" showname="Response To: 62" size="0" pos="42" show="62"/>
    <field name="pfcp.response_time" showname="Response Time: 0.000077401 seconds" size="0" pos="42" show="0.000077401"/>
  </proto>
</packet>


<packet>
  <proto name="geninfo" pos="0" showname="General information" size="58">
    <field name="num" pos="0" show="64" showname="Number" value="40" size="58"/>
    <field name="len" pos="0" show="58" showname="Frame Length" value="3a" size="58"/>
    <field name="caplen" pos="0" show="58" showname="Captured Length" value="3a" size="58"/>
    <field name="timestamp" pos="0" show="May 19, 2023 23:01:11.551062004 CEST" showname="Captured Time" value="1684530071.551062004" size="58"/>
  </proto>
  <proto name="frame" showname="Frame 64: 58 bytes on wire (464 bits), 58 bytes captured (464 bits) on interface veth_upf, id 0" size="58" pos="0">
    <field name="filtered" value="frame" />
  </proto>
  <proto name="eth" showname="Ethernet II, Src: ca:af:68:06:90:ef, Dst: 2a:84:b5:31:92:1e" size="14" pos="0">
    <field name="filtered" value="eth" />
  </proto>
  <proto name="ip" showname="Internet Protocol Version 4, Src: 10.0.14.1, Dst: 10.0.17.1" size="20" pos="14">
    <field name="filtered" value="ip" />
  </proto>
  <proto name="udp" showname="User Datagram Protocol, Src Port: 8805, Dst Port: 8805" size="8" pos="34">
    <field name="filtered" value="udp" />
  </proto>
  <proto name="pfcp" showname="Packet Forwarding Control Protocol" size="16" pos="42">
    <field name="pfcp.flags" showname="Flags: 0x20" size="1" pos="42" show="0x00000020" value="20">
      <field name="pfcp.version" showname="001. .... = Version: 1" size="1" pos="42" show="1" value="1" unmaskedvalue="20"/>
      <field name="pfcp.spare_b4" showname="...0 .... = Spare: 0" size="1" pos="42" show="0" value="0" unmaskedvalue="20"/>
      <field name="pfcp.spare_b3" showname=".... 0... = Spare: 0" size="1" pos="42" show="0" value="0" unmaskedvalue="20"/>
      <field name="pfcp.spare_b2" showname=".... .0.. = Spare: 0" size="1" pos="42" show="0" value="0" unmaskedvalue="20"/>
      <field name="pfcp.mp_flag" showname=".... ..0. = Message Priority (MP): False" size="1" pos="42" show="0" value="0" unmaskedvalue="20"/>
      <field name="pfcp.s" showname=".... ...0 = SEID (S): False" size="1" pos="42" show="0" value="0" unmaskedvalue="20"/>
    </field>
    <field name="pfcp.msg_type" showname="Message Type: PFCP Heartbeat Response (2)" size="1" pos="43" show="2" value="02"/>
    <field name="pfcp.length" showname="Length: 12" size="2" pos="44" show="12" value="000c"/>
    <field name="pfcp.seqno" showname="Sequence Number: 21" size="3" pos="46" show="21" value="000015"/>
    <field name="pfcp.spare_oct" showname="Spare: 0" size="1" pos="49" show="0" value="00"/>
    <field name="" show="Recovery Time Stamp : May 19, 2023 20:57:06.000000000 UTC" size="8" pos="50" value="00600004e8126122">
      <field name="pfcp.ie_type" showname="IE Type: Recovery Time Stamp (96)" size="2" pos="50" show="96" value="0060"/>
      <field name="pfcp.ie_len" showname="IE Length: 4" size="2" pos="52" show="4" value="0004"/>
      <field name="pfcp.recovery_time_stamp" showname="Recovery Time Stamp: May 19, 2023 20:57:06.000000000 UTC" size="4" pos="54" show="May 19, 2023 22:57:06.000000000 CEST" value="e8126122"/>
    </field>
    <field name="pfcp.response_to" showname="Response To: 61" size="0" pos="42" show="61"/>
    <field name="pfcp.response_time" showname="Response Time: 0.000277795 seconds" size="0" pos="42" show="0.000277795"/>
  </proto>
</packet>


<packet>
  <proto name="geninfo" pos="0" showname="General information" size="58">
    <field name="num" pos="0" show="65" showname="Number" value="41" size="58"/>
    <field name="len" pos="0" show="58" showname="Frame Length" value="3a" size="58"/>
    <field name="caplen" pos="0" show="58" showname="Captured Length" value="3a" size="58"/>
    <field name="timestamp" pos="0" show="May 19, 2023 23:01:22.561397726 CEST" showname="Captured Time" value="1684530082.561397726" size="58"/>
  </proto>
  <proto name="frame" showname="Frame 65: 58 bytes on wire (464 bits), 58 bytes captured (464 bits) on interface veth_upf, id 0" size="58" pos="0">
    <field name="filtered" value="frame" />
  </proto>
  <proto name="eth" showname="Ethernet II, Src: ca:af:68:06:90:ef, Dst: 2a:84:b5:31:92:1e" size="14" pos="0">
    <field name="filtered" value="eth" />
  </proto>
  <proto name="ip" showname="Internet Protocol Version 4, Src: 10.0.14.1, Dst: 10.0.17.1" size="20" pos="14">
    <field name="filtered" value="ip" />
  </proto>
  <proto name="udp" showname="User Datagram Protocol, Src Port: 8805, Dst Port: 8805" size="8" pos="34">
    <field name="filtered" value="udp" />
  </proto>
  <proto name="pfcp" showname="Packet Forwarding Control Protocol" size="16" pos="42">
    <field name="pfcp.flags" showname="Flags: 0x20" size="1" pos="42" show="0x00000020" value="20">
      <field name="pfcp.version" showname="001. .... = Version: 1" size="1" pos="42" show="1" value="1" unmaskedvalue="20"/>
      <field name="pfcp.spare_b4" showname="...0 .... = Spare: 0" size="1" pos="42" show="0" value="0" unmaskedvalue="20"/>
      <field name="pfcp.spare_b3" showname=".... 0... = Spare: 0" size="1" pos="42" show="0" value="0" unmaskedvalue="20"/>
      <field name="pfcp.spare_b2" showname=".... .0.. = Spare: 0" size="1" pos="42" show="0" value="0" unmaskedvalue="20"/>
      <field name="pfcp.mp_flag" showname=".... ..0. = Message Priority (MP): False" size="1" pos="42" show="0" value="0" unmaskedvalue="20"/>
      <field name="pfcp.s" showname=".... ...0 = SEID (S): False" size="1" pos="42" show="0" value="0" unmaskedvalue="20"/>
    </field>
    <field name="pfcp.msg_type" showname="Message Type: PFCP Heartbeat Request (1)" size="1" pos="43" show="1" value="01"/>
    <field name="pfcp.length" showname="Length: 12" size="2" pos="44" show="12" value="000c"/>
    <field name="pfcp.seqno" showname="Sequence Number: 30" size="3" pos="46" show="30" value="00001e"/>
    <field name="pfcp.spare_oct" showname="Spare: 0" size="1" pos="49" show="0" value="00"/>
    <field name="" show="Recovery Time Stamp : May 19, 2023 20:57:06.000000000 UTC" size="8" pos="50" value="00600004e8126122">
      <field name="pfcp.ie_type" showname="IE Type: Recovery Time Stamp (96)" size="2" pos="50" show="96" value="0060"/>
      <field name="pfcp.ie_len" showname="IE Length: 4" size="2" pos="52" show="4" value="0004"/>
      <field name="pfcp.recovery_time_stamp" showname="Recovery Time Stamp: May 19, 2023 20:57:06.000000000 UTC" size="4" pos="54" show="May 19, 2023 22:57:06.000000000 CEST" value="e8126122"/>
    </field>
    <field name="pfcp.response_in" showname="Response In: 66" size="0" pos="42" show="66"/>
  </proto>
</packet>


<packet>
  <proto name="geninfo" pos="0" showname="General information" size="58">
    <field name="num" pos="0" show="66" showname="Number" value="42" size="58"/>
    <field name="len" pos="0" show="58" showname="Frame Length" value="3a" size="58"/>
    <field name="caplen" pos="0" show="58" showname="Captured Length" value="3a" size="58"/>
    <field name="timestamp" pos="0" show="May 19, 2023 23:01:22.561548700 CEST" showname="Captured Time" value="1684530082.561548700" size="58"/>
  </proto>
  <proto name="frame" showname="Frame 66: 58 bytes on wire (464 bits), 58 bytes captured (464 bits) on interface veth_upf, id 0" size="58" pos="0">
    <field name="filtered" value="frame" />
  </proto>
  <proto name="eth" showname="Ethernet II, Src: 2a:84:b5:31:92:1e, Dst: ca:af:68:06:90:ef" size="14" pos="0">
    <field name="filtered" value="eth" />
  </proto>
  <proto name="ip" showname="Internet Protocol Version 4, Src: 10.0.17.1, Dst: 10.0.14.1" size="20" pos="14">
    <field name="filtered" value="ip" />
  </proto>
  <proto name="udp" showname="User Datagram Protocol, Src Port: 8805, Dst Port: 8805" size="8" pos="34">
    <field name="filtered" value="udp" />
  </proto>
  <proto name="pfcp" showname="Packet Forwarding Control Protocol" size="16" pos="42">
    <field name="pfcp.flags" showname="Flags: 0x20" size="1" pos="42" show="0x00000020" value="20">
      <field name="pfcp.version" showname="001. .... = Version: 1" size="1" pos="42" show="1" value="1" unmaskedvalue="20"/>
      <field name="pfcp.spare_b4" showname="...0 .... = Spare: 0" size="1" pos="42" show="0" value="0" unmaskedvalue="20"/>
      <field name="pfcp.spare_b3" showname=".... 0... = Spare: 0" size="1" pos="42" show="0" value="0" unmaskedvalue="20"/>
      <field name="pfcp.spare_b2" showname=".... .0.. = Spare: 0" size="1" pos="42" show="0" value="0" unmaskedvalue="20"/>
      <field name="pfcp.mp_flag" showname=".... ..0. = Message Priority (MP): False" size="1" pos="42" show="0" value="0" unmaskedvalue="20"/>
      <field name="pfcp.s" showname=".... ...0 = SEID (S): False" size="1" pos="42" show="0" value="0" unmaskedvalue="20"/>
    </field>
    <field name="pfcp.msg_type" showname="Message Type: PFCP Heartbeat Response (2)" size="1" pos="43" show="2" value="02"/>
    <field name="pfcp.length" showname="Length: 12" size="2" pos="44" show="12" value="000c"/>
    <field name="pfcp.seqno" showname="Sequence Number: 30" size="3" pos="46" show="30" value="00001e"/>
    <field name="pfcp.spare_oct" showname="Spare: 0" size="1" pos="49" show="0" value="00"/>
    <field name="" show="Recovery Time Stamp : May 19, 2023 20:57:14.000000000 UTC" size="8" pos="50" value="00600004e812612a">
      <field name="pfcp.ie_type" showname="IE Type: Recovery Time Stamp (96)" size="2" pos="50" show="96" value="0060"/>
      <field name="pfcp.ie_len" showname="IE Length: 4" size="2" pos="52" show="4" value="0004"/>
      <field name="pfcp.recovery_time_stamp" showname="Recovery Time Stamp: May 19, 2023 20:57:14.000000000 UTC" size="4" pos="54" show="May 19, 2023 22:57:14.000000000 CEST" value="e812612a"/>
    </field>
    <field name="pfcp.response_to" showname="Response To: 65" size="0" pos="42" show="65"/>
    <field name="pfcp.response_time" showname="Response Time: 0.000150974 seconds" size="0" pos="42" show="0.000150974"/>
  </proto>
</packet>


<packet>
  <proto name="geninfo" pos="0" showname="General information" size="58">
    <field name="num" pos="0" show="67" showname="Number" value="43" size="58"/>
    <field name="len" pos="0" show="58" showname="Frame Length" value="3a" size="58"/>
    <field name="caplen" pos="0" show="58" showname="Captured Length" value="3a" size="58"/>
    <field name="timestamp" pos="0" show="May 19, 2023 23:01:22.561591873 CEST" showname="Captured Time" value="1684530082.561591873" size="58"/>
  </proto>
  <proto name="frame" showname="Frame 67: 58 bytes on wire (464 bits), 58 bytes captured (464 bits) on interface veth_upf, id 0" size="58" pos="0">
    <field name="filtered" value="frame" />
  </proto>
  <proto name="eth" showname="Ethernet II, Src: 2a:84:b5:31:92:1e, Dst: ca:af:68:06:90:ef" size="14" pos="0">
    <field name="filtered" value="eth" />
  </proto>
  <proto name="ip" showname="Internet Protocol Version 4, Src: 10.0.17.1, Dst: 10.0.14.1" size="20" pos="14">
    <field name="filtered" value="ip" />
  </proto>
  <proto name="udp" showname="User Datagram Protocol, Src Port: 8805, Dst Port: 8805" size="8" pos="34">
    <field name="filtered" value="udp" />
  </proto>
  <proto name="pfcp" showname="Packet Forwarding Control Protocol" size="16" pos="42">
    <field name="pfcp.flags" showname="Flags: 0x20" size="1" pos="42" show="0x00000020" value="20">
      <field name="pfcp.version" showname="001. .... = Version: 1" size="1" pos="42" show="1" value="1" unmaskedvalue="20"/>
      <field name="pfcp.spare_b4" showname="...0 .... = Spare: 0" size="1" pos="42" show="0" value="0" unmaskedvalue="20"/>
      <field name="pfcp.spare_b3" showname=".... 0... = Spare: 0" size="1" pos="42" show="0" value="0" unmaskedvalue="20"/>
      <field name="pfcp.spare_b2" showname=".... .0.. = Spare: 0" size="1" pos="42" show="0" value="0" unmaskedvalue="20"/>
      <field name="pfcp.mp_flag" showname=".... ..0. = Message Priority (MP): False" size="1" pos="42" show="0" value="0" unmaskedvalue="20"/>
      <field name="pfcp.s" showname=".... ...0 = SEID (S): False" size="1" pos="42" show="0" value="0" unmaskedvalue="20"/>
    </field>
    <field name="pfcp.msg_type" showname="Message Type: PFCP Heartbeat Request (1)" size="1" pos="43" show="1" value="01"/>
    <field name="pfcp.length" showname="Length: 12" size="2" pos="44" show="12" value="000c"/>
    <field name="pfcp.seqno" showname="Sequence Number: 22" size="3" pos="46" show="22" value="000016"/>
    <field name="pfcp.spare_oct" showname="Spare: 0" size="1" pos="49" show="0" value="00"/>
    <field name="" show="Recovery Time Stamp : May 19, 2023 20:57:14.000000000 UTC" size="8" pos="50" value="00600004e812612a">
      <field name="pfcp.ie_type" showname="IE Type: Recovery Time Stamp (96)" size="2" pos="50" show="96" value="0060"/>
      <field name="pfcp.ie_len" showname="IE Length: 4" size="2" pos="52" show="4" value="0004"/>
      <field name="pfcp.recovery_time_stamp" showname="Recovery Time Stamp: May 19, 2023 20:57:14.000000000 UTC" size="4" pos="54" show="May 19, 2023 22:57:14.000000000 CEST" value="e812612a"/>
    </field>
    <field name="pfcp.response_in" showname="Response In: 68" size="0" pos="42" show="68"/>
  </proto>
</packet>


<packet>
  <proto name="geninfo" pos="0" showname="General information" size="58">
    <field name="num" pos="0" show="68" showname="Number" value="44" size="58"/>
    <field name="len" pos="0" show="58" showname="Frame Length" value="3a" size="58"/>
    <field name="caplen" pos="0" show="58" showname="Captured Length" value="3a" size="58"/>
    <field name="timestamp" pos="0" show="May 19, 2023 23:01:22.561921703 CEST" showname="Captured Time" value="1684530082.561921703" size="58"/>
  </proto>
  <proto name="frame" showname="Frame 68: 58 bytes on wire (464 bits), 58 bytes captured (464 bits) on interface veth_upf, id 0" size="58" pos="0">
    <field name="filtered" value="frame" />
  </proto>
  <proto name="eth" showname="Ethernet II, Src: ca:af:68:06:90:ef, Dst: 2a:84:b5:31:92:1e" size="14" pos="0">
    <field name="filtered" value="eth" />
  </proto>
  <proto name="ip" showname="Internet Protocol Version 4, Src: 10.0.14.1, Dst: 10.0.17.1" size="20" pos="14">
    <field name="filtered" value="ip" />
  </proto>
  <proto name="udp" showname="User Datagram Protocol, Src Port: 8805, Dst Port: 8805" size="8" pos="34">
    <field name="filtered" value="udp" />
  </proto>
  <proto name="pfcp" showname="Packet Forwarding Control Protocol" size="16" pos="42">
    <field name="pfcp.flags" showname="Flags: 0x20" size="1" pos="42" show="0x00000020" value="20">
      <field name="pfcp.version" showname="001. .... = Version: 1" size="1" pos="42" show="1" value="1" unmaskedvalue="20"/>
      <field name="pfcp.spare_b4" showname="...0 .... = Spare: 0" size="1" pos="42" show="0" value="0" unmaskedvalue="20"/>
      <field name="pfcp.spare_b3" showname=".... 0... = Spare: 0" size="1" pos="42" show="0" value="0" unmaskedvalue="20"/>
      <field name="pfcp.spare_b2" showname=".... .0.. = Spare: 0" size="1" pos="42" show="0" value="0" unmaskedvalue="20"/>
      <field name="pfcp.mp_flag" showname=".... ..0. = Message Priority (MP): False" size="1" pos="42" show="0" value="0" unmaskedvalue="20"/>
      <field name="pfcp.s" showname=".... ...0 = SEID (S): False" size="1" pos="42" show="0" value="0" unmaskedvalue="20"/>
    </field>
    <field name="pfcp.msg_type" showname="Message Type: PFCP Heartbeat Response (2)" size="1" pos="43" show="2" value="02"/>
    <field name="pfcp.length" showname="Length: 12" size="2" pos="44" show="12" value="000c"/>
    <field name="pfcp.seqno" showname="Sequence Number: 22" size="3" pos="46" show="22" value="000016"/>
    <field name="pfcp.spare_oct" showname="Spare: 0" size="1" pos="49" show="0" value="00"/>
    <field name="" show="Recovery Time Stamp : May 19, 2023 20:57:06.000000000 UTC" size="8" pos="50" value="00600004e8126122">
      <field name="pfcp.ie_type" showname="IE Type: Recovery Time Stamp (96)" size="2" pos="50" show="96" value="0060"/>
      <field name="pfcp.ie_len" showname="IE Length: 4" size="2" pos="52" show="4" value="0004"/>
      <field name="pfcp.recovery_time_stamp" showname="Recovery Time Stamp: May 19, 2023 20:57:06.000000000 UTC" size="4" pos="54" show="May 19, 2023 22:57:06.000000000 CEST" value="e8126122"/>
    </field>
    <field name="pfcp.response_to" showname="Response To: 67" size="0" pos="42" show="67"/>
    <field name="pfcp.response_time" showname="Response Time: 0.000329830 seconds" size="0" pos="42" show="0.000329830"/>
  </proto>
</packet>


</pdml>
