<?xml version="1.0" encoding="utf-8"?>
<?xml-stylesheet type="text/xsl" href="pdml2html.xsl"?>
<!-- You can find pdml2html.xsl in /usr/share/wireshark or at https://code.wireshark.org/review/gitweb?p=wireshark.git;a=blob_plain;f=pdml2html.xsl. -->
<pdml version="0" creator="wireshark/3.2.3" time="Tue May 23 23:45:27 2023" capture_file="/home/lily/5G/PCAPS/Core/delete_pcf_binding.pcapng">
<packet>
  <proto name="geninfo" pos="0" showname="General information" size="132">
    <field name="num" pos="0" show="1" showname="Number" value="1" size="132"/>
    <field name="len" pos="0" show="132" showname="Frame Length" value="84" size="132"/>
    <field name="caplen" pos="0" show="132" showname="Captured Length" value="84" size="132"/>
    <field name="timestamp" pos="0" show="May 23, 2023 23:37:25.378821262 CEST" showname="Captured Time" value="1684877845.378821262" size="132"/>
  </proto>
  <proto name="frame" showname="Frame 1: 132 bytes on wire (1056 bits), 132 bytes captured (1056 bits) on interface veth_pcf, id 0" size="132" pos="0">
    <field name="filtered" value="frame" />
  </proto>
  <proto name="eth" showname="Ethernet II, Src: 8a:0b:87:b7:1e:40, Dst: 52:d4:2e:8b:e5:24" size="14" pos="0">
    <field name="filtered" value="eth" />
  </proto>
  <proto name="ip" showname="Internet Protocol Version 4, Src: 10.0.10.1, Dst: 10.0.8.1" size="20" pos="14">
    <field name="filtered" value="ip" />
  </proto>
  <proto name="tcp" showname="Transmission Control Protocol, Src Port: 46984, Dst Port: 7777, Seq: 3602930907, Ack: 1422993327, Len: 66" size="32" pos="34">
    <field name="tcp.srcport" showname="Source Port: 46984" size="2" pos="34" show="46984" value="b788"/>
    <field name="tcp.dstport" showname="Destination Port: 7777" size="2" pos="36" show="7777" value="1e61"/>
    <field name="tcp.port" showname="Source or Destination Port: 46984" hide="yes" size="2" pos="34" show="46984" value="b788"/>
    <field name="tcp.port" showname="Source or Destination Port: 7777" hide="yes" size="2" pos="36" show="7777" value="1e61"/>
    <field name="tcp.stream" showname="Stream index: 0" size="0" pos="34" show="0"/>
    <field name="tcp.len" showname="TCP Segment Len: 66" size="1" pos="46" show="66" value="80"/>
    <field name="tcp.seq" showname="Sequence number: 3602930907" size="4" pos="38" show="3602930907" value="d6c05cdb"/>
    <field name="tcp.seq_raw" showname="Sequence number (raw): 3602930907" hide="yes" size="4" pos="38" show="3602930907" value="d6c05cdb"/>
    <field name="tcp.nxtseq" showname="Next sequence number: 3602930973" size="0" pos="34" show="3602930973"/>
    <field name="tcp.ack" showname="Acknowledgment number: 1422993327" size="4" pos="42" show="1422993327" value="54d127af"/>
    <field name="tcp.ack_raw" showname="Acknowledgment number (raw): 1422993327" hide="yes" size="4" pos="42" show="1422993327" value="54d127af"/>
    <field name="tcp.hdr_len" showname="1000 .... = Header Length: 32 bytes (8)" size="1" pos="46" show="32" value="80"/>
    <field name="tcp.flags" showname="Flags: 0x018 (PSH, ACK)" size="2" pos="46" show="0x00000018" value="18" unmaskedvalue="8018">
      <field name="tcp.flags.res" showname="000. .... .... = Reserved: Not set" size="1" pos="46" show="0" value="0" unmaskedvalue="80"/>
      <field name="tcp.flags.ns" showname="...0 .... .... = Nonce: Not set" size="1" pos="46" show="0" value="0" unmaskedvalue="80"/>
      <field name="tcp.flags.cwr" showname=".... 0... .... = Congestion Window Reduced (CWR): Not set" size="1" pos="47" show="0" value="0" unmaskedvalue="18"/>
      <field name="tcp.flags.ecn" showname=".... .0.. .... = ECN-Echo: Not set" size="1" pos="47" show="0" value="0" unmaskedvalue="18"/>
      <field name="tcp.flags.urg" showname=".... ..0. .... = Urgent: Not set" size="1" pos="47" show="0" value="0" unmaskedvalue="18"/>
      <field name="tcp.flags.ack" showname=".... ...1 .... = Acknowledgment: Set" size="1" pos="47" show="1" value="1" unmaskedvalue="18"/>
      <field name="tcp.flags.push" showname=".... .... 1... = Push: Set" size="1" pos="47" show="1" value="1" unmaskedvalue="18"/>
      <field name="tcp.flags.reset" showname=".... .... .0.. = Reset: Not set" size="1" pos="47" show="0" value="0" unmaskedvalue="18"/>
      <field name="tcp.flags.syn" showname=".... .... ..0. = Syn: Not set" size="1" pos="47" show="0" value="0" unmaskedvalue="18"/>
      <field name="tcp.flags.fin" showname=".... .... ...0 = Fin: Not set" size="1" pos="47" show="0" value="0" unmaskedvalue="18"/>
      <field name="tcp.flags.str" showname="TCP Flags: \xc2\xb7\xc2\xb7\xc2\xb7\xc2\xb7\xc2\xb7\xc2\xb7\xc2\xb7AP\xc2\xb7\xc2\xb7\xc2\xb7" size="2" pos="46" show="\xc2\xb7\xc2\xb7\xc2\xb7\xc2\xb7\xc2\xb7\xc2\xb7\xc2\xb7AP\xc2\xb7\xc2\xb7\xc2\xb7" value="8018"/>
    </field>
    <field name="tcp.window_size_value" showname="Window size value: 501" size="2" pos="48" show="501" value="01f5"/>
    <field name="tcp.window_size" showname="Calculated window size: 501" size="2" pos="48" show="501" value="01f5"/>
    <field name="tcp.window_size_scalefactor" showname="Window size scaling factor: -1 (unknown)" size="2" pos="48" show="-1" value="01f5"/>
    <field name="tcp.checksum" showname="Checksum: 0x266a [unverified]" size="2" pos="50" show="0x0000266a" value="266a"/>
    <field name="tcp.checksum.status" showname="Checksum Status: Unverified" size="0" pos="50" show="2"/>
    <field name="tcp.urgent_pointer" showname="Urgent pointer: 0" size="2" pos="52" show="0" value="0000"/>
    <field name="tcp.options" showname="Options: (12 bytes), No-Operation (NOP), No-Operation (NOP), Timestamps" size="12" pos="54" show="01:01:08:0a:4f:43:ed:2d:0b:e4:f5:d4" value="0101080a4f43ed2d0be4f5d4">
      <field name="tcp.options.nop" showname="TCP Option - No-Operation (NOP)" size="1" pos="54" show="01" value="01">
        <field name="tcp.option_kind" showname="Kind: No-Operation (1)" size="1" pos="54" show="1" value="01"/>
      </field>
      <field name="tcp.options.nop" showname="TCP Option - No-Operation (NOP)" size="1" pos="55" show="01" value="01">
        <field name="tcp.option_kind" showname="Kind: No-Operation (1)" size="1" pos="55" show="1" value="01"/>
      </field>
      <field name="tcp.options.timestamp" showname="TCP Option - Timestamps: TSval 1329851693, TSecr 199554516" size="10" pos="56" show="08:0a:4f:43:ed:2d:0b:e4:f5:d4" value="080a4f43ed2d0be4f5d4">
        <field name="tcp.option_kind" showname="Kind: Time Stamp Option (8)" size="1" pos="56" show="8" value="08"/>
        <field name="tcp.option_len" showname="Length: 10" size="1" pos="57" show="10" value="0a"/>
        <field name="tcp.options.timestamp.tsval" showname="Timestamp value: 1329851693" size="4" pos="58" show="1329851693" value="4f43ed2d"/>
        <field name="tcp.options.timestamp.tsecr" showname="Timestamp echo reply: 199554516" size="4" pos="62" show="199554516" value="0be4f5d4"/>
      </field>
    </field>
    <field name="" show="Timestamps" size="0" pos="34">
      <field name="tcp.time_relative" showname="Time since first frame in this TCP stream: 0.000000000 seconds" size="0" pos="34" show="0.000000000"/>
      <field name="tcp.time_delta" showname="Time since previous frame in this TCP stream: 0.000000000 seconds" size="0" pos="34" show="0.000000000"/>
    </field>
    <field name="tcp.payload" showname="TCP payload (66 bytes)" size="66" pos="66" show="00:00:39:01:04:00:00:05:d5:c1:04:ad:62:aa:ac:95:6a:a5:a5:8e:e1:62:a9:56:35:48:48:ea:21:50:c3:72:00:92:3f:2b:cb:4a:fb:e5:59:a0:96:45:9f:20:de:59:f9:4a:f1:42:db:2c:80:32:7f:86:c4:c0:c2:0f:0d:02:37:32" value="0000390104000005d5c104ad62aaac956aa5a58ee162a956354848ea2150c37200923f2bcb4afbe559a096459f20de59f94af142db2c80327f86c4c0c20f0d023732"/>
    <field name="tcp.pdu.size" showname="PDU Size: 66" size="66" pos="66" show="66" value="0000390104000005d5c104ad62aaac956aa5a58ee162a956354848ea2150c37200923f2bcb4afbe559a096459f20de59f94af142db2c80327f86c4c0c20f0d023732"/>
  </proto>
  <proto name="http2" showname="HyperText Transfer Protocol 2" size="66" pos="66">
    <field name="http2.stream" showname="Stream: HEADERS, Stream ID: 1493, Length 57" size="66" pos="66" show="" value="">
      <field name="http2.length" showname="Length: 57" size="3" pos="66" show="57" value="000039"/>
      <field name="http2.type" showname="Type: HEADERS (1)" size="1" pos="69" show="1" value="01"/>
      <field name="http2.flags" showname="Flags: 0x04" size="1" pos="70" show="0x00000004" value="04">
        <field name="http2.flags.end_stream" showname=".... ...0 = End Stream: False" size="1" pos="70" show="0" value="0" unmaskedvalue="04"/>
        <field name="http2.flags.eh" showname=".... .1.. = End Headers: True" size="1" pos="70" show="1" value="1" unmaskedvalue="04"/>
        <field name="http2.flags.padded" showname=".... 0... = Padded: False" size="1" pos="70" show="0" value="0" unmaskedvalue="04"/>
        <field name="http2.flags.priority" showname="..0. .... = Priority: False" size="1" pos="70" show="0" value="0" unmaskedvalue="04"/>
        <field name="http2.flags.unused_headers" showname="00.0 ..0. = Unused: 0x00" size="1" pos="70" show="0x00000000" value="0" unmaskedvalue="04"/>
      </field>
      <field name="http2.r" showname="0... .... .... .... .... .... .... .... = Reserved: 0x0" size="4" pos="71" show="0x00000000" value="0" unmaskedvalue="000005d5"/>
      <field name="http2.streamid" showname=".000 0000 0000 0000 0000 0101 1101 0101 = Stream Identifier: 1493" size="4" pos="71" show="1493" value="5D5" unmaskedvalue="000005d5"/>
      <field name="http2.pad_length" showname="Pad Length: 0" size="0" pos="75" show="0"/>
      <field name="http2.headers" showname="Header Block Fragment: c104ad62aaac956aa5a58ee162a956354848ea2150c37200\xe2\x80\xa6" size="57" pos="75" show="c1:04:ad:62:aa:ac:95:6a:a5:a5:8e:e1:62:a9:56:35:48:48:ea:21:50:c3:72:00:92:3f:2b:cb:4a:fb:e5:59:a0:96:45:9f:20:de:59:f9:4a:f1:42:db:2c:80:32:7f:86:c4:c0:c2:0f:0d:02:37:32" value="c104ad62aaac956aa5a58ee162a956354848ea2150c37200923f2bcb4afbe559a096459f20de59f94af142db2c80327f86c4c0c20f0d023732"/>
    </field>
  </proto>
</packet>


<packet>
  <proto name="geninfo" pos="0" showname="General information" size="147">
    <field name="num" pos="0" show="2" showname="Number" value="2" size="147"/>
    <field name="len" pos="0" show="147" showname="Frame Length" value="93" size="147"/>
    <field name="caplen" pos="0" show="147" showname="Captured Length" value="93" size="147"/>
    <field name="timestamp" pos="0" show="May 23, 2023 23:37:25.378834079 CEST" showname="Captured Time" value="1684877845.378834079" size="147"/>
  </proto>
  <proto name="frame" showname="Frame 2: 147 bytes on wire (1176 bits), 147 bytes captured (1176 bits) on interface veth_pcf, id 0" size="147" pos="0">
    <field name="filtered" value="frame" />
  </proto>
  <proto name="eth" showname="Ethernet II, Src: 8a:0b:87:b7:1e:40, Dst: 52:d4:2e:8b:e5:24" size="14" pos="0">
    <field name="filtered" value="eth" />
  </proto>
  <proto name="ip" showname="Internet Protocol Version 4, Src: 10.0.10.1, Dst: 10.0.8.1" size="20" pos="14">
    <field name="filtered" value="ip" />
  </proto>
  <proto name="tcp" showname="Transmission Control Protocol, Src Port: 46984, Dst Port: 7777, Seq: 3602930973, Ack: 1422993327, Len: 81" size="32" pos="34">
    <field name="tcp.srcport" showname="Source Port: 46984" size="2" pos="34" show="46984" value="b788"/>
    <field name="tcp.dstport" showname="Destination Port: 7777" size="2" pos="36" show="7777" value="1e61"/>
    <field name="tcp.port" showname="Source or Destination Port: 46984" hide="yes" size="2" pos="34" show="46984" value="b788"/>
    <field name="tcp.port" showname="Source or Destination Port: 7777" hide="yes" size="2" pos="36" show="7777" value="1e61"/>
    <field name="tcp.stream" showname="Stream index: 0" size="0" pos="34" show="0"/>
    <field name="tcp.len" showname="TCP Segment Len: 81" size="1" pos="46" show="81" value="80"/>
    <field name="tcp.seq" showname="Sequence number: 3602930973" size="4" pos="38" show="3602930973" value="d6c05d1d"/>
    <field name="tcp.seq_raw" showname="Sequence number (raw): 3602930973" hide="yes" size="4" pos="38" show="3602930973" value="d6c05d1d"/>
    <field name="tcp.nxtseq" showname="Next sequence number: 3602931054" size="0" pos="34" show="3602931054"/>
    <field name="tcp.ack" showname="Acknowledgment number: 1422993327" size="4" pos="42" show="1422993327" value="54d127af"/>
    <field name="tcp.ack_raw" showname="Acknowledgment number (raw): 1422993327" hide="yes" size="4" pos="42" show="1422993327" value="54d127af"/>
    <field name="tcp.hdr_len" showname="1000 .... = Header Length: 32 bytes (8)" size="1" pos="46" show="32" value="80"/>
    <field name="tcp.flags" showname="Flags: 0x018 (PSH, ACK)" size="2" pos="46" show="0x00000018" value="18" unmaskedvalue="8018">
      <field name="tcp.flags.res" showname="000. .... .... = Reserved: Not set" size="1" pos="46" show="0" value="0" unmaskedvalue="80"/>
      <field name="tcp.flags.ns" showname="...0 .... .... = Nonce: Not set" size="1" pos="46" show="0" value="0" unmaskedvalue="80"/>
      <field name="tcp.flags.cwr" showname=".... 0... .... = Congestion Window Reduced (CWR): Not set" size="1" pos="47" show="0" value="0" unmaskedvalue="18"/>
      <field name="tcp.flags.ecn" showname=".... .0.. .... = ECN-Echo: Not set" size="1" pos="47" show="0" value="0" unmaskedvalue="18"/>
      <field name="tcp.flags.urg" showname=".... ..0. .... = Urgent: Not set" size="1" pos="47" show="0" value="0" unmaskedvalue="18"/>
      <field name="tcp.flags.ack" showname=".... ...1 .... = Acknowledgment: Set" size="1" pos="47" show="1" value="1" unmaskedvalue="18"/>
      <field name="tcp.flags.push" showname=".... .... 1... = Push: Set" size="1" pos="47" show="1" value="1" unmaskedvalue="18"/>
      <field name="tcp.flags.reset" showname=".... .... .0.. = Reset: Not set" size="1" pos="47" show="0" value="0" unmaskedvalue="18"/>
      <field name="tcp.flags.syn" showname=".... .... ..0. = Syn: Not set" size="1" pos="47" show="0" value="0" unmaskedvalue="18"/>
      <field name="tcp.flags.fin" showname=".... .... ...0 = Fin: Not set" size="1" pos="47" show="0" value="0" unmaskedvalue="18"/>
      <field name="tcp.flags.str" showname="TCP Flags: \xc2\xb7\xc2\xb7\xc2\xb7\xc2\xb7\xc2\xb7\xc2\xb7\xc2\xb7AP\xc2\xb7\xc2\xb7\xc2\xb7" size="2" pos="46" show="\xc2\xb7\xc2\xb7\xc2\xb7\xc2\xb7\xc2\xb7\xc2\xb7\xc2\xb7AP\xc2\xb7\xc2\xb7\xc2\xb7" value="8018"/>
    </field>
    <field name="tcp.window_size_value" showname="Window size value: 501" size="2" pos="48" show="501" value="01f5"/>
    <field name="tcp.window_size" showname="Calculated window size: 501" size="2" pos="48" show="501" value="01f5"/>
    <field name="tcp.window_size_scalefactor" showname="Window size scaling factor: -1 (unknown)" size="2" pos="48" show="-1" value="01f5"/>
    <field name="tcp.checksum" showname="Checksum: 0x2679 [unverified]" size="2" pos="50" show="0x00002679" value="2679"/>
    <field name="tcp.checksum.status" showname="Checksum Status: Unverified" size="0" pos="50" show="2"/>
    <field name="tcp.urgent_pointer" showname="Urgent pointer: 0" size="2" pos="52" show="0" value="0000"/>
    <field name="tcp.options" showname="Options: (12 bytes), No-Operation (NOP), No-Operation (NOP), Timestamps" size="12" pos="54" show="01:01:08:0a:4f:43:ed:2d:0b:e4:f5:d4" value="0101080a4f43ed2d0be4f5d4">
      <field name="tcp.options.nop" showname="TCP Option - No-Operation (NOP)" size="1" pos="54" show="01" value="01">
        <field name="tcp.option_kind" showname="Kind: No-Operation (1)" size="1" pos="54" show="1" value="01"/>
      </field>
      <field name="tcp.options.nop" showname="TCP Option - No-Operation (NOP)" size="1" pos="55" show="01" value="01">
        <field name="tcp.option_kind" showname="Kind: No-Operation (1)" size="1" pos="55" show="1" value="01"/>
      </field>
      <field name="tcp.options.timestamp" showname="TCP Option - Timestamps: TSval 1329851693, TSecr 199554516" size="10" pos="56" show="08:0a:4f:43:ed:2d:0b:e4:f5:d4" value="080a4f43ed2d0be4f5d4">
        <field name="tcp.option_kind" showname="Kind: Time Stamp Option (8)" size="1" pos="56" show="8" value="08"/>
        <field name="tcp.option_len" showname="Length: 10" size="1" pos="57" show="10" value="0a"/>
        <field name="tcp.options.timestamp.tsval" showname="Timestamp value: 1329851693" size="4" pos="58" show="1329851693" value="4f43ed2d"/>
        <field name="tcp.options.timestamp.tsecr" showname="Timestamp echo reply: 199554516" size="4" pos="62" show="199554516" value="0be4f5d4"/>
      </field>
    </field>
    <field name="" show="Timestamps" size="0" pos="34">
      <field name="tcp.time_relative" showname="Time since first frame in this TCP stream: 0.000012817 seconds" size="0" pos="34" show="0.000012817"/>
      <field name="tcp.time_delta" showname="Time since previous frame in this TCP stream: 0.000012817 seconds" size="0" pos="34" show="0.000012817"/>
    </field>
    <field name="tcp.payload" showname="TCP payload (81 bytes)" size="81" pos="66" show="00:00:48:00:01:00:00:05:d5:5b:7b:0a:09:09:22:6f:70:22:3a:09:22:72:65:70:6c:61:63:65:22:2c:0a:09:09:22:70:61:74:68:22:3a:09:22:2f:6e:66:53:74:61:74:75:73:22:2c:0a:09:09:22:76:61:6c:75:65:22:3a:09:22:52:45:47:49:53:54:45:52:45:44:22:0a:09:7d:5d" value="0000480001000005d55b7b0a0909226f70223a09227265706c616365222c0a09092270617468223a09222f6e66537461747573222c0a09092276616c7565223a092252454749535445524544220a097d5d"/>
    <field name="tcp.pdu.size" showname="PDU Size: 81" size="81" pos="66" show="81" value="0000480001000005d55b7b0a0909226f70223a09227265706c616365222c0a09092270617468223a09222f6e66537461747573222c0a09092276616c7565223a092252454749535445524544220a097d5d"/>
  </proto>
  <proto name="http2" showname="HyperText Transfer Protocol 2" size="81" pos="66">
    <field name="http2.stream" showname="Stream: DATA, Stream ID: 1493, Length 72" size="81" pos="66" show="" value="">
      <field name="http2.length" showname="Length: 72" size="3" pos="66" show="72" value="000048"/>
      <field name="http2.type" showname="Type: DATA (0)" size="1" pos="69" show="0" value="00"/>
      <field name="http2.flags" showname="Flags: 0x01" size="1" pos="70" show="0x00000001" value="01">
        <field name="http2.flags.end_stream" showname=".... ...1 = End Stream: True" size="1" pos="70" show="1" value="1" unmaskedvalue="01"/>
        <field name="http2.flags.padded" showname=".... 0... = Padded: False" size="1" pos="70" show="0" value="0" unmaskedvalue="01"/>
        <field name="http2.flags.unused_data" showname="0000 .00. = Unused: 0x00" size="1" pos="70" show="0x00000000" value="0" unmaskedvalue="01"/>
      </field>
      <field name="http2.r" showname="0... .... .... .... .... .... .... .... = Reserved: 0x0" size="4" pos="71" show="0x00000000" value="0" unmaskedvalue="000005d5"/>
      <field name="http2.streamid" showname=".000 0000 0000 0000 0000 0101 1101 0101 = Stream Identifier: 1493" size="4" pos="71" show="1493" value="5D5" unmaskedvalue="000005d5"/>
      <field name="http2.pad_length" showname="Pad Length: 0" size="0" pos="75" show="0"/>
      <field name="http2.data.data" showname="Data: 5b7b0a0909226f70223a09227265706c616365222c0a0909\xe2\x80\xa6" size="72" pos="75" show="5b:7b:0a:09:09:22:6f:70:22:3a:09:22:72:65:70:6c:61:63:65:22:2c:0a:09:09:22:70:61:74:68:22:3a:09:22:2f:6e:66:53:74:61:74:75:73:22:2c:0a:09:09:22:76:61:6c:75:65:22:3a:09:22:52:45:47:49:53:54:45:52:45:44:22:0a:09:7d:5d" value="5b7b0a0909226f70223a09227265706c616365222c0a09092270617468223a09222f6e66537461747573222c0a09092276616c7565223a092252454749535445524544220a097d5d"/>
    </field>
  </proto>
</packet>


<packet>
  <proto name="geninfo" pos="0" showname="General information" size="101">
    <field name="num" pos="0" show="4" showname="Number" value="4" size="101"/>
    <field name="len" pos="0" show="101" showname="Frame Length" value="65" size="101"/>
    <field name="caplen" pos="0" show="101" showname="Captured Length" value="65" size="101"/>
    <field name="timestamp" pos="0" show="May 23, 2023 23:37:25.379254872 CEST" showname="Captured Time" value="1684877845.379254872" size="101"/>
  </proto>
  <proto name="frame" showname="Frame 4: 101 bytes on wire (808 bits), 101 bytes captured (808 bits) on interface veth_pcf, id 0" size="101" pos="0">
    <field name="filtered" value="frame" />
  </proto>
  <proto name="eth" showname="Ethernet II, Src: 52:d4:2e:8b:e5:24, Dst: 8a:0b:87:b7:1e:40" size="14" pos="0">
    <field name="filtered" value="eth" />
  </proto>
  <proto name="ip" showname="Internet Protocol Version 4, Src: 10.0.8.1, Dst: 10.0.10.1" size="20" pos="14">
    <field name="filtered" value="ip" />
  </proto>
  <proto name="tcp" showname="Transmission Control Protocol, Src Port: 7777, Dst Port: 46984, Seq: 1422993327, Ack: 3602931054, Len: 35" size="32" pos="34">
    <field name="tcp.srcport" showname="Source Port: 7777" size="2" pos="34" show="7777" value="1e61"/>
    <field name="tcp.dstport" showname="Destination Port: 46984" size="2" pos="36" show="46984" value="b788"/>
    <field name="tcp.port" showname="Source or Destination Port: 7777" hide="yes" size="2" pos="34" show="7777" value="1e61"/>
    <field name="tcp.port" showname="Source or Destination Port: 46984" hide="yes" size="2" pos="36" show="46984" value="b788"/>
    <field name="tcp.stream" showname="Stream index: 0" size="0" pos="34" show="0"/>
    <field name="tcp.len" showname="TCP Segment Len: 35" size="1" pos="46" show="35" value="80"/>
    <field name="tcp.seq" showname="Sequence number: 1422993327" size="4" pos="38" show="1422993327" value="54d127af"/>
    <field name="tcp.seq_raw" showname="Sequence number (raw): 1422993327" hide="yes" size="4" pos="38" show="1422993327" value="54d127af"/>
    <field name="tcp.nxtseq" showname="Next sequence number: 1422993362" size="0" pos="34" show="1422993362"/>
    <field name="tcp.ack" showname="Acknowledgment number: 3602931054" size="4" pos="42" show="3602931054" value="d6c05d6e"/>
    <field name="tcp.ack_raw" showname="Acknowledgment number (raw): 3602931054" hide="yes" size="4" pos="42" show="3602931054" value="d6c05d6e"/>
    <field name="tcp.hdr_len" showname="1000 .... = Header Length: 32 bytes (8)" size="1" pos="46" show="32" value="80"/>
    <field name="tcp.flags" showname="Flags: 0x018 (PSH, ACK)" size="2" pos="46" show="0x00000018" value="18" unmaskedvalue="8018">
      <field name="tcp.flags.res" showname="000. .... .... = Reserved: Not set" size="1" pos="46" show="0" value="0" unmaskedvalue="80"/>
      <field name="tcp.flags.ns" showname="...0 .... .... = Nonce: Not set" size="1" pos="46" show="0" value="0" unmaskedvalue="80"/>
      <field name="tcp.flags.cwr" showname=".... 0... .... = Congestion Window Reduced (CWR): Not set" size="1" pos="47" show="0" value="0" unmaskedvalue="18"/>
      <field name="tcp.flags.ecn" showname=".... .0.. .... = ECN-Echo: Not set" size="1" pos="47" show="0" value="0" unmaskedvalue="18"/>
      <field name="tcp.flags.urg" showname=".... ..0. .... = Urgent: Not set" size="1" pos="47" show="0" value="0" unmaskedvalue="18"/>
      <field name="tcp.flags.ack" showname=".... ...1 .... = Acknowledgment: Set" size="1" pos="47" show="1" value="1" unmaskedvalue="18"/>
      <field name="tcp.flags.push" showname=".... .... 1... = Push: Set" size="1" pos="47" show="1" value="1" unmaskedvalue="18"/>
      <field name="tcp.flags.reset" showname=".... .... .0.. = Reset: Not set" size="1" pos="47" show="0" value="0" unmaskedvalue="18"/>
      <field name="tcp.flags.syn" showname=".... .... ..0. = Syn: Not set" size="1" pos="47" show="0" value="0" unmaskedvalue="18"/>
      <field name="tcp.flags.fin" showname=".... .... ...0 = Fin: Not set" size="1" pos="47" show="0" value="0" unmaskedvalue="18"/>
      <field name="tcp.flags.str" showname="TCP Flags: \xc2\xb7\xc2\xb7\xc2\xb7\xc2\xb7\xc2\xb7\xc2\xb7\xc2\xb7AP\xc2\xb7\xc2\xb7\xc2\xb7" size="2" pos="46" show="\xc2\xb7\xc2\xb7\xc2\xb7\xc2\xb7\xc2\xb7\xc2\xb7\xc2\xb7AP\xc2\xb7\xc2\xb7\xc2\xb7" value="8018"/>
    </field>
    <field name="tcp.window_size_value" showname="Window size value: 716" size="2" pos="48" show="716" value="02cc"/>
    <field name="tcp.window_size" showname="Calculated window size: 716" size="2" pos="48" show="716" value="02cc"/>
    <field name="tcp.window_size_scalefactor" showname="Window size scaling factor: -1 (unknown)" size="2" pos="48" show="-1" value="02cc"/>
    <field name="tcp.checksum" showname="Checksum: 0x264b [unverified]" size="2" pos="50" show="0x0000264b" value="264b"/>
    <field name="tcp.checksum.status" showname="Checksum Status: Unverified" size="0" pos="50" show="2"/>
    <field name="tcp.urgent_pointer" showname="Urgent pointer: 0" size="2" pos="52" show="0" value="0000"/>
    <field name="tcp.options" showname="Options: (12 bytes), No-Operation (NOP), No-Operation (NOP), Timestamps" size="12" pos="54" show="01:01:08:0a:0b:e5:1c:ed:4f:43:ed:2d" value="0101080a0be51ced4f43ed2d">
      <field name="tcp.options.nop" showname="TCP Option - No-Operation (NOP)" size="1" pos="54" show="01" value="01">
        <field name="tcp.option_kind" showname="Kind: No-Operation (1)" size="1" pos="54" show="1" value="01"/>
      </field>
      <field name="tcp.options.nop" showname="TCP Option - No-Operation (NOP)" size="1" pos="55" show="01" value="01">
        <field name="tcp.option_kind" showname="Kind: No-Operation (1)" size="1" pos="55" show="1" value="01"/>
      </field>
      <field name="tcp.options.timestamp" showname="TCP Option - Timestamps: TSval 199564525, TSecr 1329851693" size="10" pos="56" show="08:0a:0b:e5:1c:ed:4f:43:ed:2d" value="080a0be51ced4f43ed2d">
        <field name="tcp.option_kind" showname="Kind: Time Stamp Option (8)" size="1" pos="56" show="8" value="08"/>
        <field name="tcp.option_len" showname="Length: 10" size="1" pos="57" show="10" value="0a"/>
        <field name="tcp.options.timestamp.tsval" showname="Timestamp value: 199564525" size="4" pos="58" show="199564525" value="0be51ced"/>
        <field name="tcp.options.timestamp.tsecr" showname="Timestamp echo reply: 1329851693" size="4" pos="62" show="1329851693" value="4f43ed2d"/>
      </field>
    </field>
    <field name="" show="Timestamps" size="0" pos="34">
      <field name="tcp.time_relative" showname="Time since first frame in this TCP stream: 0.000433610 seconds" size="0" pos="34" show="0.000433610"/>
      <field name="tcp.time_delta" showname="Time since previous frame in this TCP stream: 0.000185282 seconds" size="0" pos="34" show="0.000185282"/>
    </field>
    <field name="tcp.payload" showname="TCP payload (35 bytes)" size="35" pos="66" show="00:00:1a:01:05:00:00:05:d5:89:df:61:96:df:69:7e:94:13:2a:68:1f:a5:04:01:32:a0:83:71:97:6e:09:b5:31:68:df" value="00001a0105000005d589df6196df697e94132a681fa5040132a08371976e09b53168df"/>
    <field name="tcp.pdu.size" showname="PDU Size: 35" size="35" pos="66" show="35" value="00001a0105000005d589df6196df697e94132a681fa5040132a08371976e09b53168df"/>
  </proto>
  <proto name="http2" showname="HyperText Transfer Protocol 2" size="35" pos="66">
    <field name="http2.stream" showname="Stream: HEADERS, Stream ID: 1493, Length 26, 204 No Content" size="35" pos="66" show="" value="">
      <field name="http2.length" showname="Length: 26" size="3" pos="66" show="26" value="00001a"/>
      <field name="http2.type" showname="Type: HEADERS (1)" size="1" pos="69" show="1" value="01"/>
      <field name="http2.flags" showname="Flags: 0x05" size="1" pos="70" show="0x00000005" value="05">
        <field name="http2.flags.end_stream" showname=".... ...1 = End Stream: True" size="1" pos="70" show="1" value="1" unmaskedvalue="05"/>
        <field name="http2.flags.eh" showname=".... .1.. = End Headers: True" size="1" pos="70" show="1" value="1" unmaskedvalue="05"/>
        <field name="http2.flags.padded" showname=".... 0... = Padded: False" size="1" pos="70" show="0" value="0" unmaskedvalue="05"/>
        <field name="http2.flags.priority" showname="..0. .... = Priority: False" size="1" pos="70" show="0" value="0" unmaskedvalue="05"/>
        <field name="http2.flags.unused_headers" showname="00.0 ..0. = Unused: 0x00" size="1" pos="70" show="0x00000000" value="0" unmaskedvalue="05"/>
      </field>
      <field name="http2.r" showname="0... .... .... .... .... .... .... .... = Reserved: 0x0" size="4" pos="71" show="0x00000000" value="0" unmaskedvalue="000005d5"/>
      <field name="http2.streamid" showname=".000 0000 0000 0000 0000 0101 1101 0101 = Stream Identifier: 1493" size="4" pos="71" show="1493" value="5D5" unmaskedvalue="000005d5"/>
      <field name="http2.pad_length" showname="Pad Length: 0" size="0" pos="75" show="0"/>
      <field name="http2.headers" showname="Header Block Fragment: 89df6196df697e94132a681fa5040132a08371976e09b531\xe2\x80\xa6" size="26" pos="75" show="89:df:61:96:df:69:7e:94:13:2a:68:1f:a5:04:01:32:a0:83:71:97:6e:09:b5:31:68:df" value="89df6196df697e94132a681fa5040132a08371976e09b53168df"/>
      <field name="http2.header.length" showname="Header Length: 18" size="1" pos="66" show="18" value="00"/>
      <field name="http2.header.count" showname="Header Count: 1" size="1" pos="66" show="1" value="00"/>
      <field name="http2.header" showname="Header: :status: 204 No Content" size="1" pos="75" show="" value="">
        <field name="http2.header.name.length" showname="Name Length: 7" size="4" pos="75" show="7" value="00000007"/>
        <field name="http2.header.name" showname="Name: :status" size="7" pos="79" show=":status" value="3a737461747573"/>
        <field name="http2.header.value.length" showname="Value Length: 3" size="4" pos="86" show="3" value="00000003"/>
        <field name="http2.header.value" showname="Value: 204" size="3" pos="90" show="204" value="323034"/>
        <field name="http2.headers.status" showname=":status: 204" size="3" pos="90" show="204" value="323034"/>
        <field name="http2.header.unescaped" showname="Unescaped: 204" size="3" pos="90" show="204" value="323034"/>
        <field name="http2.header.repr" showname="Representation: Indexed Header Field" size="1" pos="75" show="Indexed Header Field" value="89"/>
        <field name="http2.header.index" showname="Index: 9" size="1" pos="75" show="9" value="89"/>
      </field>
    </field>
  </proto>
</packet>


<packet>
  <proto name="geninfo" pos="0" showname="General information" size="1126">
    <field name="num" pos="0" show="11" showname="Number" value="b" size="1126"/>
    <field name="len" pos="0" show="1126" showname="Frame Length" value="466" size="1126"/>
    <field name="caplen" pos="0" show="1126" showname="Captured Length" value="466" size="1126"/>
    <field name="timestamp" pos="0" show="May 23, 2023 23:37:30.607044603 CEST" showname="Captured Time" value="1684877850.607044603" size="1126"/>
  </proto>
  <proto name="frame" showname="Frame 11: 1126 bytes on wire (9008 bits), 1126 bytes captured (9008 bits) on interface veth_pcf, id 0" size="1126" pos="0">
    <field name="filtered" value="frame" />
  </proto>
  <proto name="eth" showname="Ethernet II, Src: 52:d4:2e:8b:e5:24, Dst: 8a:0b:87:b7:1e:40" size="14" pos="0">
    <field name="filtered" value="eth" />
  </proto>
  <proto name="ip" showname="Internet Protocol Version 4, Src: 10.0.10.2, Dst: 10.0.10.1" size="20" pos="14">
    <field name="filtered" value="ip" />
  </proto>
  <proto name="tcp" showname="Transmission Control Protocol, Src Port: 41478, Dst Port: 7777, Seq: 3699595870, Ack: 1345898063, Len: 1060" size="32" pos="34">
    <field name="tcp.srcport" showname="Source Port: 41478" size="2" pos="34" show="41478" value="a206"/>
    <field name="tcp.dstport" showname="Destination Port: 7777" size="2" pos="36" show="7777" value="1e61"/>
    <field name="tcp.port" showname="Source or Destination Port: 41478" hide="yes" size="2" pos="34" show="41478" value="a206"/>
    <field name="tcp.port" showname="Source or Destination Port: 7777" hide="yes" size="2" pos="36" show="7777" value="1e61"/>
    <field name="tcp.stream" showname="Stream index: 1" size="0" pos="34" show="1"/>
    <field name="tcp.len" showname="TCP Segment Len: 1060" size="1" pos="46" show="1060" value="80"/>
    <field name="tcp.seq" showname="Sequence number: 3699595870" size="4" pos="38" show="3699595870" value="dc835a5e"/>
    <field name="tcp.seq_raw" showname="Sequence number (raw): 3699595870" hide="yes" size="4" pos="38" show="3699595870" value="dc835a5e"/>
    <field name="tcp.nxtseq" showname="Next sequence number: 3699596930" size="0" pos="34" show="3699596930"/>
    <field name="tcp.ack" showname="Acknowledgment number: 1345898063" size="4" pos="42" show="1345898063" value="5038c64f"/>
    <field name="tcp.ack_raw" showname="Acknowledgment number (raw): 1345898063" hide="yes" size="4" pos="42" show="1345898063" value="5038c64f"/>
    <field name="tcp.hdr_len" showname="1000 .... = Header Length: 32 bytes (8)" size="1" pos="46" show="32" value="80"/>
    <field name="tcp.flags" showname="Flags: 0x018 (PSH, ACK)" size="2" pos="46" show="0x00000018" value="18" unmaskedvalue="8018">
      <field name="tcp.flags.res" showname="000. .... .... = Reserved: Not set" size="1" pos="46" show="0" value="0" unmaskedvalue="80"/>
      <field name="tcp.flags.ns" showname="...0 .... .... = Nonce: Not set" size="1" pos="46" show="0" value="0" unmaskedvalue="80"/>
      <field name="tcp.flags.cwr" showname=".... 0... .... = Congestion Window Reduced (CWR): Not set" size="1" pos="47" show="0" value="0" unmaskedvalue="18"/>
      <field name="tcp.flags.ecn" showname=".... .0.. .... = ECN-Echo: Not set" size="1" pos="47" show="0" value="0" unmaskedvalue="18"/>
      <field name="tcp.flags.urg" showname=".... ..0. .... = Urgent: Not set" size="1" pos="47" show="0" value="0" unmaskedvalue="18"/>
      <field name="tcp.flags.ack" showname=".... ...1 .... = Acknowledgment: Set" size="1" pos="47" show="1" value="1" unmaskedvalue="18"/>
      <field name="tcp.flags.push" showname=".... .... 1... = Push: Set" size="1" pos="47" show="1" value="1" unmaskedvalue="18"/>
      <field name="tcp.flags.reset" showname=".... .... .0.. = Reset: Not set" size="1" pos="47" show="0" value="0" unmaskedvalue="18"/>
      <field name="tcp.flags.syn" showname=".... .... ..0. = Syn: Not set" size="1" pos="47" show="0" value="0" unmaskedvalue="18"/>
      <field name="tcp.flags.fin" showname=".... .... ...0 = Fin: Not set" size="1" pos="47" show="0" value="0" unmaskedvalue="18"/>
      <field name="tcp.flags.str" showname="TCP Flags: \xc2\xb7\xc2\xb7\xc2\xb7\xc2\xb7\xc2\xb7\xc2\xb7\xc2\xb7AP\xc2\xb7\xc2\xb7\xc2\xb7" size="2" pos="46" show="\xc2\xb7\xc2\xb7\xc2\xb7\xc2\xb7\xc2\xb7\xc2\xb7\xc2\xb7AP\xc2\xb7\xc2\xb7\xc2\xb7" value="8018"/>
    </field>
    <field name="tcp.window_size_value" showname="Window size value: 502" size="2" pos="48" show="502" value="01f6"/>
    <field name="tcp.window_size" showname="Calculated window size: 64256" size="2" pos="48" show="64256" value="01f6"/>
    <field name="tcp.window_size_scalefactor" showname="Window size scaling factor: 128" size="2" pos="48" show="128" value="01f6"/>
    <field name="tcp.checksum" showname="Checksum: 0x2c4d [unverified]" size="2" pos="50" show="0x00002c4d" value="2c4d"/>
    <field name="tcp.checksum.status" showname="Checksum Status: Unverified" size="0" pos="50" show="2"/>
    <field name="tcp.urgent_pointer" showname="Urgent pointer: 0" size="2" pos="52" show="0" value="0000"/>
    <field name="tcp.options" showname="Options: (12 bytes), No-Operation (NOP), No-Operation (NOP), Timestamps" size="12" pos="54" show="01:01:08:0a:66:91:d4:bb:4a:0c:b9:fe" value="0101080a6691d4bb4a0cb9fe">
      <field name="tcp.options.nop" showname="TCP Option - No-Operation (NOP)" size="1" pos="54" show="01" value="01">
        <field name="tcp.option_kind" showname="Kind: No-Operation (1)" size="1" pos="54" show="1" value="01"/>
      </field>
      <field name="tcp.options.nop" showname="TCP Option - No-Operation (NOP)" size="1" pos="55" show="01" value="01">
        <field name="tcp.option_kind" showname="Kind: No-Operation (1)" size="1" pos="55" show="1" value="01"/>
      </field>
      <field name="tcp.options.timestamp" showname="TCP Option - Timestamps: TSval 1720833211, TSecr 1242348030" size="10" pos="56" show="08:0a:66:91:d4:bb:4a:0c:b9:fe" value="080a6691d4bb4a0cb9fe">
        <field name="tcp.option_kind" showname="Kind: Time Stamp Option (8)" size="1" pos="56" show="8" value="08"/>
        <field name="tcp.option_len" showname="Length: 10" size="1" pos="57" show="10" value="0a"/>
        <field name="tcp.options.timestamp.tsval" showname="Timestamp value: 1720833211" size="4" pos="58" show="1720833211" value="6691d4bb"/>
        <field name="tcp.options.timestamp.tsecr" showname="Timestamp echo reply: 1242348030" size="4" pos="62" show="1242348030" value="4a0cb9fe"/>
      </field>
    </field>
    <field name="" show="Timestamps" size="0" pos="34">
      <field name="tcp.time_relative" showname="Time since first frame in this TCP stream: 0.000371716 seconds" size="0" pos="34" show="0.000371716"/>
      <field name="tcp.time_delta" showname="Time since previous frame in this TCP stream: 0.000150464 seconds" size="0" pos="34" show="0.000150464"/>
    </field>
    <field name="tcp.payload" showname="TCP payload (1060 bytes)" size="1060" pos="66" show="50:52:49:20:2a:20:48:54:54:50:2f:32:2e:30:0d:0a:0d:0a:53:4d:0d:0a:0d:0a:00:00:0c:04:00:00:00:00:00:00:03:00:00:00:64:00:04:00:00:ff:ff:00:00:00:04:01:00:00:00:00:00:00:05:02:00:00:00:00:03:00:00:00:00:c8:00:00:05:02:00:00:00:00:05:00:00:00:00:64:00:00:05:02:00:00:00:00:07:00:00:00:00:00:00:00:05:02:00:00:00:00:09:00:00:00:07:00:00:00:05:02:00:00:00:00:0b:00:00:00:03:00:00:00:5a:01:24:00:00:00:0d:00:00:00:0b:0f:83:04:a0:62:aa:c9:2a:c8:a6:b3:d0:62:7a:21:ea:4d:87:a1:8e:e1:61:14:ad:59:e8:31:0c:54:30:16:d8:90:b4:15:25:86:41:8a:08:17:02:e1:02:e1:b8:eb:ae:bb:53:03:2a:2f:2a:90:7a:8a:aa:69:d2:9a:c4:c0:57:68:0b:83:0f:0d:03:38:32:38:5f:8b:1d:75:d0:62:0d:26:3d:4c:74:41:ea:00:03:3c:00:01:00:00:00:0d:7b:0a:09:22:6e:6f:74:69:66:69:63:61:74:69:6f:6e:55:72:69:22:3a:09:22:68:74:74:70:3a:2f:2f:31:30:2e:30:2e:33:2e:31:3a:37:37:37:37:2f:6e:61:6d:66:2d:63:61:6c:6c:62:61:63:6b:2f:76:31:2f:69:6d:73:69:2d:39:30:31:37:30:30:30:30:30:30:30:30:30:30:31:2f:61:6d:2d:70:6f:6c:69:63:79:2d:6e:6f:74:69:66:79:22:2c:0a:09:22:73:75:70:69:22:3a:09:22:69:6d:73:69:2d:39:30:31:37:30:30:30:30:30:30:30:30:30:30:34:22:2c:0a:09:22:61:63:63:65:73:73:54:79:70:65:22:3a:09:22:33:47:50:50:5f:41:43:43:45:53:53:22:2c:0a:09:22:75:73:65:72:4c:6f:63:22:3a:09:7b:0a:09:09:22:6e:72:4c:6f:63:61:74:69:6f:6e:22:3a:09:7b:0a:09:09:09:22:74:61:69:22:3a:09:7b:0a:09:09:09:09:22:70:6c:6d:6e:49:64:22:3a:09:7b:0a:09:09:09:09:09:22:6d:63:63:22:3a:09:22:39:30:31:22:2c:0a:09:09:09:09:09:22:6d:6e:63:22:3a:09:22:37:30:22:0a:09:09:09:09:7d:2c:0a:09:09:09:09:22:74:61:63:22:3a:09:22:30:30:30:30:30:31:22:0a:09:09:09:7d:2c:0a:09:09:09:22:6e:63:67:69:22:3a:09:7b:0a:09:09:09:09:22:70:6c:6d:6e:49:64:22:3a:09:7b:0a:09:09:09:09:09:22:6d:63:63:22:3a:09:22:39:30:31:22:2c:0a:09:09:09:09:09:22:6d:6e:63:22:3a:09:22:37:30:22:0a:09:09:09:09:7d:2c:0a:09:09:09:09:22:6e:72:43:65:6c:6c:49:64:22:3a:09:22:30:30:30:30:30:30:30:31:30:22:0a:09:09:09:7d:2c:0a:09:09:09:22:75:65:4c:6f:63:61:74:69:6f:6e:54:69:6d:65:73:74:61:6d:70:22:3a:09:22:32:30:32:33:2d:30:35:2d:32:33:54:32:30:3a:32:34:3a:30:34:2e:37:39:37:32:38:35:5a:22:0a:09:09:7d:0a:09:7d:2c:0a:09:22:74:69:6d:65:5a:6f:6e:65:22:3a:09:22:2b:30:32:3a:30:30:22:2c:0a:09:22:73:65:72:76:69:6e:67:50:6c:6d:6e:22:3a:09:7b:0a:09:09:22:6d:63:63:22:3a:09:22:39:30:31:22:2c:0a:09:09:22:6d:6e:63:22:3a:09:22:37:30:22:0a:09:7d:2c:0a:09:22:72:61:74:54:79:70:65:22:3a:09:22:4e:52:22:2c:0a:09:22:75:65:41:6d:62:72:22:3a:09:7b:0a:09:09:22:75:70:6c:69:6e:6b:22:3a:09:22:31:30:34:38:35:37:36:20:4b:62:70:73:22:2c:0a:09:09:22:64:6f:77:6e:6c:69:6e:6b:22:3a:09:22:31:30:34:38:35:37:36:20:4b:62:70:73:22:0a:09:7d:2c:0a:09:22:61:6c:6c:6f:77:65:64:53:6e:73:73:61:69:73:22:3a:09:5b:7b:0a:09:09:09:22:73:73:74:22:3a:09:31:2c:0a:09:09:09:22:73:64:22:3a:09:22:30:30:30:30:30:31:22:0a:09:09:7d:5d:2c:0a:09:22:67:75:61:6d:69:22:3a:09:7b:0a:09:09:22:70:6c:6d:6e:49:64:22:3a:09:7b:0a:09:09:09:22:6d:63:63:22:3a:09:22:39:30:31:22:2c:0a:09:09:09:22:6d:6e:63:22:3a:09:22:37:30:22:0a:09:09:7d:2c:0a:09:09:22:61:6d:66:49:64:22:3a:09:22:30:32:30:30:34:30:22:0a:09:7d:2c:0a:09:22:73:65:72:76:69:63:65:4e:61:6d:65:22:3a:09:22:6e:61:6d:66:2d:63:61:6c:6c:62:61:63:6b:22:2c:0a:09:22:73:75:70:70:46:65:61:74:22:3a:09:22:34:22:0a:7d:0a" value="505249202a20485454502f322e300d0a0d0a534d0d0a0d0a00000c04000000000000030000006400040000ffff00000004010000000000000502000000000300000000c800000502000000000500000000640000050200000000070000000000000005020000000009000000070000000502000000000b000000030000005a01240000000d0000000b0f8304a062aac92ac8a6b3d0627a21ea4d87a18ee16114ad59e8310c543016d890b4152586418a081702e102e1b8ebaebb53032a2f2a907a8aaa69d29ac4c057680b830f0d033832385f8b1d75d0620d263d4c7441ea00033c00010000000d7b0a09226e6f74696669636174696f6e557269223a0922687474703a2f2f31302e302e332e313a373737372f6e616d662d63616c6c6261636b2f76312f696d73692d3930313730303030303030303030312f616d2d706f6c6963792d6e6f74696679222c0a092273757069223a0922696d73692d393031373030303030303030303034222c0a092261636365737354797065223a0922334750505f414343455353222c0a0922757365724c6f63223a097b0a0909226e724c6f636174696f6e223a097b0a09090922746169223a097b0a0909090922706c6d6e4964223a097b0a0909090909226d6363223a0922393031222c0a0909090909226d6e63223a09223730220a090909097d2c0a0909090922746163223a0922303030303031220a0909097d2c0a090909226e636769223a097b0a0909090922706c6d6e4964223a097b0a0909090909226d6363223a0922393031222c0a0909090909226d6e63223a09223730220a090909097d2c0a09090909226e7243656c6c4964223a0922303030303030303130220a0909097d2c0a0909092275654c6f636174696f6e54696d657374616d70223a0922323032332d30352d32335432303a32343a30342e3739373238355a220a09097d0a097d2c0a092274696d655a6f6e65223a09222b30323a3030222c0a092273657276696e67506c6d6e223a097b0a0909226d6363223a0922393031222c0a0909226d6e63223a09223730220a097d2c0a092272617454797065223a09224e52222c0a09227565416d6272223a097b0a09092275706c696e6b223a092231303438353736204b627073222c0a090922646f776e6c696e6b223a092231303438353736204b627073220a097d2c0a0922616c6c6f776564536e7373616973223a095b7b0a09090922737374223a09312c0a090909227364223a0922303030303031220a09097d5d2c0a09226775616d69223a097b0a090922706c6d6e4964223a097b0a090909226d6363223a0922393031222c0a090909226d6e63223a09223730220a09097d2c0a090922616d664964223a0922303230303430220a097d2c0a0922736572766963654e616d65223a09226e616d662d63616c6c6261636b222c0a09227375707046656174223a092234220a7d0a"/>
    <field name="tcp.pdu.size" showname="PDU Size: 24" size="24" pos="66" show="24" value="505249202a20485454502f322e300d0a0d0a534d0d0a0d0a"/>
    <field name="tcp.pdu.size" showname="PDU Size: 21" size="21" pos="90" show="21" value="00000c04000000000000030000006400040000ffff"/>
    <field name="tcp.pdu.size" showname="PDU Size: 9" size="9" pos="111" show="9" value="000000040100000000"/>
    <field name="tcp.pdu.size" showname="PDU Size: 14" size="14" pos="120" show="14" value="00000502000000000300000000c8"/>
    <field name="tcp.pdu.size" showname="PDU Size: 14" size="14" pos="134" show="14" value="0000050200000000050000000064"/>
    <field name="tcp.pdu.size" showname="PDU Size: 14" size="14" pos="148" show="14" value="0000050200000000070000000000"/>
    <field name="tcp.pdu.size" showname="PDU Size: 14" size="14" pos="162" show="14" value="0000050200000000090000000700"/>
    <field name="tcp.pdu.size" showname="PDU Size: 14" size="14" pos="176" show="14" value="00000502000000000b0000000300"/>
    <field name="tcp.pdu.size" showname="PDU Size: 99" size="99" pos="190" show="99" value="00005a01240000000d0000000b0f8304a062aac92ac8a6b3d0627a21ea4d87a18ee16114ad59e8310c543016d890b4152586418a081702e102e1b8ebaebb53032a2f2a907a8aaa69d29ac4c057680b830f0d033832385f8b1d75d0620d263d4c7441ea"/>
    <field name="tcp.pdu.size" showname="PDU Size: 837" size="837" pos="289" show="837" value="00033c00010000000d7b0a09226e6f74696669636174696f6e557269223a0922687474703a2f2f31302e302e332e313a373737372f6e616d662d63616c6c6261636b2f76312f696d73692d3930313730303030303030303030312f616d2d706f6c6963792d6e6f74696679222c0a092273757069223a0922696d73692d393031373030303030303030303034222c0a092261636365737354797065223a0922334750505f414343455353222c0a0922757365724c6f63223a097b0a0909226e724c6f636174696f6e223a097b0a09090922746169223a097b0a0909090922706c6d6e4964223a097b0a0909090909226d6363223a0922393031222c0a0909090909226d6e63223a09223730220a090909097d2c0a0909090922746163223a0922303030303031220a0909097d2c0a090909226e636769223a097b0a0909090922706c6d6e4964223a097b0a0909090909226d6363223a0922393031222c0a0909090909226d6e63223a09223730220a090909097d2c0a09090909226e7243656c6c4964223a0922303030303030303130220a0909097d2c0a0909092275654c6f636174696f6e54696d657374616d70223a0922323032332d30352d32335432303a32343a30342e3739373238355a220a09097d0a097d2c0a092274696d655a6f6e65223a09222b30323a3030222c0a092273657276696e67506c6d6e223a097b0a0909226d6363223a0922393031222c0a0909226d6e63223a09223730220a097d2c0a092272617454797065223a09224e52222c0a09227565416d6272223a097b0a09092275706c696e6b223a092231303438353736204b627073222c0a090922646f776e6c696e6b223a092231303438353736204b627073220a097d2c0a0922616c6c6f776564536e7373616973223a095b7b0a09090922737374223a09312c0a090909227364223a0922303030303031220a09097d5d2c0a09226775616d69223a097b0a090922706c6d6e4964223a097b0a090909226d6363223a0922393031222c0a090909226d6e63223a09223730220a09097d2c0a090922616d664964223a0922303230303430220a097d2c0a0922736572766963654e616d65223a09226e616d662d63616c6c6261636b222c0a09227375707046656174223a092234220a7d0a"/>
  </proto>
  <proto name="http2" showname="HyperText Transfer Protocol 2" size="1060" pos="66">
    <field name="http2.stream" showname="Stream: Magic" size="24" pos="66" show="" value="">
      <field name="http2.magic" showname="Magic: PRI * HTTP/2.0\r\n\r\nSM\r\n\r\n" size="24" pos="66" show="PRI * HTTP/2.0\xd\xa\xd\xaSM\xd\xa\xd\xa" value="505249202a20485454502f322e300d0a0d0a534d0d0a0d0a"/>
    </field>
    <field name="http2.stream" showname="Stream: SETTINGS, Stream ID: 0, Length 12" size="21" pos="90" show="" value="">
      <field name="http2.length" showname="Length: 12" size="3" pos="90" show="12" value="00000c"/>
      <field name="http2.type" showname="Type: SETTINGS (4)" size="1" pos="93" show="4" value="04"/>
      <field name="http2.flags" showname="Flags: 0x00" size="1" pos="94" show="0x00000000" value="00">
        <field name="http2.flags.ack.settings" showname=".... ...0 = ACK: False" size="1" pos="94" show="0" value="0" unmaskedvalue="00"/>
        <field name="http2.flags.unused_settings" showname="0000 000. = Unused: 0x00" size="1" pos="94" show="0x00000000" value="0" unmaskedvalue="00"/>
      </field>
      <field name="http2.r" showname="0... .... .... .... .... .... .... .... = Reserved: 0x0" size="4" pos="95" show="0x00000000" value="0" unmaskedvalue="00000000"/>
      <field name="http2.streamid" showname=".000 0000 0000 0000 0000 0000 0000 0000 = Stream Identifier: 0" size="4" pos="95" show="0" value="0" unmaskedvalue="00000000"/>
      <field name="http2.settings" showname="Settings - Max concurrent streams : 100" size="6" pos="99" show="" value="">
        <field name="http2.settings.id" showname="Settings Identifier: Max concurrent streams (3)" size="2" pos="99" show="3" value="0003"/>
        <field name="http2.settings.max_concurrent_streams" showname="Max concurrent streams: 100" size="4" pos="101" show="100" value="00000064"/>
      </field>
      <field name="http2.settings" showname="Settings - Initial Windows size : 65535" size="6" pos="105" show="" value="">
        <field name="http2.settings.id" showname="Settings Identifier: Initial Windows size (4)" size="2" pos="105" show="4" value="0004"/>
        <field name="http2.settings.initial_window_size" showname="Initial Windows Size: 65535" size="4" pos="107" show="65535" value="0000ffff"/>
      </field>
    </field>
    <field name="http2.stream" showname="Stream: SETTINGS, Stream ID: 0, Length 0" size="9" pos="111" show="" value="">
      <field name="http2.length" showname="Length: 0" size="3" pos="111" show="0" value="000000"/>
      <field name="http2.type" showname="Type: SETTINGS (4)" size="1" pos="114" show="4" value="04"/>
      <field name="http2.flags" showname="Flags: 0x01" size="1" pos="115" show="0x00000001" value="01">
        <field name="http2.flags.ack.settings" showname=".... ...1 = ACK: True" size="1" pos="115" show="1" value="1" unmaskedvalue="01"/>
        <field name="http2.flags.unused_settings" showname="0000 000. = Unused: 0x00" size="1" pos="115" show="0x00000000" value="0" unmaskedvalue="01"/>
      </field>
      <field name="http2.r" showname="0... .... .... .... .... .... .... .... = Reserved: 0x0" size="4" pos="116" show="0x00000000" value="0" unmaskedvalue="00000000"/>
      <field name="http2.streamid" showname=".000 0000 0000 0000 0000 0000 0000 0000 = Stream Identifier: 0" size="4" pos="116" show="0" value="0" unmaskedvalue="00000000"/>
    </field>
    <field name="http2.stream" showname="Stream: PRIORITY, Stream ID: 3, Length 5" size="14" pos="120" show="" value="">
      <field name="http2.length" showname="Length: 5" size="3" pos="120" show="5" value="000005"/>
      <field name="http2.type" showname="Type: PRIORITY (2)" size="1" pos="123" show="2" value="02"/>
      <field name="http2.flags" showname="Flags: 0x00" size="1" pos="124" show="0x00000000" value="00">
        <field name="http2.flags.unused" showname="0000 0000 = Unused: 0x00" size="1" pos="124" show="0x00000000" value="0" unmaskedvalue="00"/>
      </field>
      <field name="http2.r" showname="0... .... .... .... .... .... .... .... = Reserved: 0x0" size="4" pos="125" show="0x00000000" value="0" unmaskedvalue="00000003"/>
      <field name="http2.streamid" showname=".000 0000 0000 0000 0000 0000 0000 0011 = Stream Identifier: 3" size="4" pos="125" show="3" value="3" unmaskedvalue="00000003"/>
      <field name="http2.exclusive" showname="0... .... .... .... .... .... .... .... = Exclusive: False" size="4" pos="129" show="0" value="0" unmaskedvalue="00000000"/>
      <field name="http2.stream_dependency" showname=".000 0000 0000 0000 0000 0000 0000 0000 = Stream Dependency: 0" size="4" pos="129" show="0" value="0" unmaskedvalue="00000000"/>
      <field name="http2.headers.weight" showname="Weight: 200" size="1" pos="133" show="200" value="c8"/>
      <field name="http2.headers.weight_real" showname="Weight real: 201" size="1" pos="133" show="201" value="c8"/>
    </field>
    <field name="http2.stream" showname="Stream: PRIORITY, Stream ID: 5, Length 5" size="14" pos="134" show="" value="">
      <field name="http2.length" showname="Length: 5" size="3" pos="134" show="5" value="000005"/>
      <field name="http2.type" showname="Type: PRIORITY (2)" size="1" pos="137" show="2" value="02"/>
      <field name="http2.flags" showname="Flags: 0x00" size="1" pos="138" show="0x00000000" value="00">
        <field name="http2.flags.unused" showname="0000 0000 = Unused: 0x00" size="1" pos="138" show="0x00000000" value="0" unmaskedvalue="00"/>
      </field>
      <field name="http2.r" showname="0... .... .... .... .... .... .... .... = Reserved: 0x0" size="4" pos="139" show="0x00000000" value="0" unmaskedvalue="00000005"/>
      <field name="http2.streamid" showname=".000 0000 0000 0000 0000 0000 0000 0101 = Stream Identifier: 5" size="4" pos="139" show="5" value="5" unmaskedvalue="00000005"/>
      <field name="http2.exclusive" showname="0... .... .... .... .... .... .... .... = Exclusive: False" size="4" pos="143" show="0" value="0" unmaskedvalue="00000000"/>
      <field name="http2.stream_dependency" showname=".000 0000 0000 0000 0000 0000 0000 0000 = Stream Dependency: 0" size="4" pos="143" show="0" value="0" unmaskedvalue="00000000"/>
      <field name="http2.headers.weight" showname="Weight: 100" size="1" pos="147" show="100" value="64"/>
      <field name="http2.headers.weight_real" showname="Weight real: 101" size="1" pos="147" show="101" value="64"/>
    </field>
    <field name="http2.stream" showname="Stream: PRIORITY, Stream ID: 7, Length 5" size="14" pos="148" show="" value="">
      <field name="http2.length" showname="Length: 5" size="3" pos="148" show="5" value="000005"/>
      <field name="http2.type" showname="Type: PRIORITY (2)" size="1" pos="151" show="2" value="02"/>
      <field name="http2.flags" showname="Flags: 0x00" size="1" pos="152" show="0x00000000" value="00">
        <field name="http2.flags.unused" showname="0000 0000 = Unused: 0x00" size="1" pos="152" show="0x00000000" value="0" unmaskedvalue="00"/>
      </field>
      <field name="http2.r" showname="0... .... .... .... .... .... .... .... = Reserved: 0x0" size="4" pos="153" show="0x00000000" value="0" unmaskedvalue="00000007"/>
      <field name="http2.streamid" showname=".000 0000 0000 0000 0000 0000 0000 0111 = Stream Identifier: 7" size="4" pos="153" show="7" value="7" unmaskedvalue="00000007"/>
      <field name="http2.exclusive" showname="0... .... .... .... .... .... .... .... = Exclusive: False" size="4" pos="157" show="0" value="0" unmaskedvalue="00000000"/>
      <field name="http2.stream_dependency" showname=".000 0000 0000 0000 0000 0000 0000 0000 = Stream Dependency: 0" size="4" pos="157" show="0" value="0" unmaskedvalue="00000000"/>
      <field name="http2.headers.weight" showname="Weight: 0" size="1" pos="161" show="0" value="00"/>
      <field name="http2.headers.weight_real" showname="Weight real: 1" size="1" pos="161" show="1" value="00"/>
    </field>
    <field name="http2.stream" showname="Stream: PRIORITY, Stream ID: 9, Length 5" size="14" pos="162" show="" value="">
      <field name="http2.length" showname="Length: 5" size="3" pos="162" show="5" value="000005"/>
      <field name="http2.type" showname="Type: PRIORITY (2)" size="1" pos="165" show="2" value="02"/>
      <field name="http2.flags" showname="Flags: 0x00" size="1" pos="166" show="0x00000000" value="00">
        <field name="http2.flags.unused" showname="0000 0000 = Unused: 0x00" size="1" pos="166" show="0x00000000" value="0" unmaskedvalue="00"/>
      </field>
      <field name="http2.r" showname="0... .... .... .... .... .... .... .... = Reserved: 0x0" size="4" pos="167" show="0x00000000" value="0" unmaskedvalue="00000009"/>
      <field name="http2.streamid" showname=".000 0000 0000 0000 0000 0000 0000 1001 = Stream Identifier: 9" size="4" pos="167" show="9" value="9" unmaskedvalue="00000009"/>
      <field name="http2.exclusive" showname="0... .... .... .... .... .... .... .... = Exclusive: False" size="4" pos="171" show="0" value="0" unmaskedvalue="00000007"/>
      <field name="http2.stream_dependency" showname=".000 0000 0000 0000 0000 0000 0000 0111 = Stream Dependency: 7" size="4" pos="171" show="7" value="7" unmaskedvalue="00000007"/>
      <field name="http2.headers.weight" showname="Weight: 0" size="1" pos="175" show="0" value="00"/>
      <field name="http2.headers.weight_real" showname="Weight real: 1" size="1" pos="175" show="1" value="00"/>
    </field>
    <field name="http2.stream" showname="Stream: PRIORITY, Stream ID: 11, Length 5" size="14" pos="176" show="" value="">
      <field name="http2.length" showname="Length: 5" size="3" pos="176" show="5" value="000005"/>
      <field name="http2.type" showname="Type: PRIORITY (2)" size="1" pos="179" show="2" value="02"/>
      <field name="http2.flags" showname="Flags: 0x00" size="1" pos="180" show="0x00000000" value="00">
        <field name="http2.flags.unused" showname="0000 0000 = Unused: 0x00" size="1" pos="180" show="0x00000000" value="0" unmaskedvalue="00"/>
      </field>
      <field name="http2.r" showname="0... .... .... .... .... .... .... .... = Reserved: 0x0" size="4" pos="181" show="0x00000000" value="0" unmaskedvalue="0000000b"/>
      <field name="http2.streamid" showname=".000 0000 0000 0000 0000 0000 0000 1011 = Stream Identifier: 11" size="4" pos="181" show="11" value="B" unmaskedvalue="0000000b"/>
      <field name="http2.exclusive" showname="0... .... .... .... .... .... .... .... = Exclusive: False" size="4" pos="185" show="0" value="0" unmaskedvalue="00000003"/>
      <field name="http2.stream_dependency" showname=".000 0000 0000 0000 0000 0000 0000 0011 = Stream Dependency: 3" size="4" pos="185" show="3" value="3" unmaskedvalue="00000003"/>
      <field name="http2.headers.weight" showname="Weight: 0" size="1" pos="189" show="0" value="00"/>
      <field name="http2.headers.weight_real" showname="Weight real: 1" size="1" pos="189" show="1" value="00"/>
    </field>
    <field name="http2.stream" showname="Stream: HEADERS, Stream ID: 13, Length 90, POST /npcf-smpolicycontrol/v1/sm-policies/15/delete" size="99" pos="190" show="" value="">
      <field name="http2.length" showname="Length: 90" size="3" pos="190" show="90" value="00005a"/>
      <field name="http2.type" showname="Type: HEADERS (1)" size="1" pos="193" show="1" value="01"/>
      <field name="http2.flags" showname="Flags: 0x24" size="1" pos="194" show="0x00000024" value="24">
        <field name="http2.flags.end_stream" showname=".... ...0 = End Stream: False" size="1" pos="194" show="0" value="0" unmaskedvalue="24"/>
        <field name="http2.flags.eh" showname=".... .1.. = End Headers: True" size="1" pos="194" show="1" value="1" unmaskedvalue="24"/>
        <field name="http2.flags.padded" showname=".... 0... = Padded: False" size="1" pos="194" show="0" value="0" unmaskedvalue="24"/>
        <field name="http2.flags.priority" showname="..1. .... = Priority: True" size="1" pos="194" show="1" value="1" unmaskedvalue="24"/>
        <field name="http2.flags.unused_headers" showname="00.0 ..0. = Unused: 0x00" size="1" pos="194" show="0x00000000" value="0" unmaskedvalue="24"/>
      </field>
      <field name="http2.r" showname="0... .... .... .... .... .... .... .... = Reserved: 0x0" size="4" pos="195" show="0x00000000" value="0" unmaskedvalue="0000000d"/>
      <field name="http2.streamid" showname=".000 0000 0000 0000 0000 0000 0000 1101 = Stream Identifier: 13" size="4" pos="195" show="13" value="D" unmaskedvalue="0000000d"/>
      <field name="http2.pad_length" showname="Pad Length: 0" size="0" pos="199" show="0"/>
      <field name="http2.exclusive" showname="0... .... .... .... .... .... .... .... = Exclusive: False" size="4" pos="199" show="0" value="0" unmaskedvalue="0000000b"/>
      <field name="http2.stream_dependency" showname=".000 0000 0000 0000 0000 0000 0000 1011 = Stream Dependency: 11" size="4" pos="199" show="11" value="B" unmaskedvalue="0000000b"/>
      <field name="http2.headers.weight" showname="Weight: 15" size="1" pos="203" show="15" value="0f"/>
      <field name="http2.headers.weight_real" showname="Weight real: 16" size="1" pos="203" show="16" value="0f"/>
      <field name="http2.headers" showname="Header Block Fragment: 8304a062aac92ac8a6b3d0627a21ea4d87a18ee16114ad59\xe2\x80\xa6" size="85" pos="204" show="83:04:a0:62:aa:c9:2a:c8:a6:b3:d0:62:7a:21:ea:4d:87:a1:8e:e1:61:14:ad:59:e8:31:0c:54:30:16:d8:90:b4:15:25:86:41:8a:08:17:02:e1:02:e1:b8:eb:ae:bb:53:03:2a:2f:2a:90:7a:8a:aa:69:d2:9a:c4:c0:57:68:0b:83:0f:0d:03:38:32:38:5f:8b:1d:75:d0:62:0d:26:3d:4c:74:41:ea" value="8304a062aac92ac8a6b3d0627a21ea4d87a18ee16114ad59e8310c543016d890b4152586418a081702e102e1b8ebaebb53032a2f2a907a8aaa69d29ac4c057680b830f0d033832385f8b1d75d0620d263d4c7441ea"/>
      <field name="http2.header.length" showname="Header Length: 275" size="1" pos="190" show="275" value="00"/>
      <field name="http2.header.count" showname="Header Count: 9" size="1" pos="190" show="9" value="00"/>
      <field name="http2.header" showname="Header: :method: POST" size="1" pos="204" show="" value="">
        <field name="http2.header.name.length" showname="Name Length: 7" size="4" pos="204" show="7" value="00000007"/>
        <field name="http2.header.name" showname="Name: :method" size="7" pos="208" show=":method" value="3a6d6574686f64"/>
        <field name="http2.header.value.length" showname="Value Length: 4" size="4" pos="215" show="4" value="00000004"/>
        <field name="http2.header.value" showname="Value: POST" size="4" pos="219" show="POST" value="504f5354"/>
        <field name="http2.headers.method" showname=":method: POST" size="4" pos="219" show="POST" value="504f5354"/>
        <field name="http2.header.unescaped" showname="Unescaped: POST" size="4" pos="219" show="POST" value="504f5354"/>
        <field name="http2.header.repr" showname="Representation: Indexed Header Field" size="1" pos="204" show="Indexed Header Field" value="83"/>
        <field name="http2.header.index" showname="Index: 3" size="1" pos="204" show="3" value="83"/>
      </field>
      <field name="http2.header" showname="Header: :path: /npcf-smpolicycontrol/v1/sm-policies/15/delete" size="34" pos="205" show="" value="">
        <field name="http2.header.name.length" showname="Name Length: 5" size="4" pos="224" show="5" value="00000005"/>
        <field name="http2.header.name" showname="Name: :path" size="5" pos="228" show=":path" value="3a70617468"/>
        <field name="http2.header.value.length" showname="Value Length: 46" size="4" pos="233" show="46" value="0000002e"/>
        <field name="http2.header.value" showname="Value: /npcf-smpolicycontrol/v1/sm-policies/15/delete" size="46" pos="237" show="/npcf-smpolicycontrol/v1/sm-policies/15/delete" value="2f6e7063662d736d706f6c696379636f6e74726f6c2f76312f736d2d706f6c69636965732f31352f64656c657465"/>
        <field name="http2.headers.path" showname=":path: /npcf-smpolicycontrol/v1/sm-policies/15/delete" size="46" pos="237" show="/npcf-smpolicycontrol/v1/sm-policies/15/delete" value="2f6e7063662d736d706f6c696379636f6e74726f6c2f76312f736d2d706f6c69636965732f31352f64656c657465"/>
        <field name="http2.header.unescaped" showname="Unescaped: /npcf-smpolicycontrol/v1/sm-policies/15/delete" size="46" pos="237" show="/npcf-smpolicycontrol/v1/sm-policies/15/delete" value="2f6e7063662d736d706f6c696379636f6e74726f6c2f76312f736d2d706f6c69636965732f31352f64656c657465"/>
        <field name="http2.header.repr" showname="Representation: Literal Header Field without Indexing - Indexed Name" size="1" pos="205" show="Literal Header Field without Indexing - Indexed Name" value="04"/>
        <field name="http2.header.index" showname="Index: 4" size="1" pos="205" show="4" value="04"/>
      </field>
      <field name="http2.header" showname="Header: :scheme: http" size="1" pos="239" show="" value="">
        <field name="http2.header.name.length" showname="Name Length: 7" size="4" pos="317" show="7" value="00000007"/>
        <field name="http2.header.name" showname="Name: :scheme" size="7" pos="321" show=":scheme" value="3a736368656d65"/>
        <field name="http2.header.value.length" showname="Value Length: 4" size="4" pos="328" show="4" value="00000004"/>
        <field name="http2.header.value" showname="Value: http" size="4" pos="332" show="http" value="68747470"/>
        <field name="http2.headers.scheme" showname=":scheme: http" size="4" pos="332" show="http" value="68747470"/>
        <field name="http2.header.unescaped" showname="Unescaped: http" size="4" pos="332" show="http" value="68747470"/>
        <field name="http2.header.repr" showname="Representation: Indexed Header Field" size="1" pos="239" show="Indexed Header Field" value="86"/>
        <field name="http2.header.index" showname="Index: 6" size="1" pos="239" show="6" value="86"/>
      </field>
      <field name="http2.header" showname="Header: :authority: 10.0.10.1:7777" size="12" pos="240" show="" value="">
        <field name="http2.header.name.length" showname="Name Length: 10" size="4" pos="337" show="10" value="0000000a"/>
        <field name="http2.header.name" showname="Name: :authority" size="10" pos="341" show=":authority" value="3a617574686f72697479"/>
        <field name="http2.header.value.length" showname="Value Length: 14" size="4" pos="351" show="14" value="0000000e"/>
        <field name="http2.header.value" showname="Value: 10.0.10.1:7777" size="14" pos="355" show="10.0.10.1:7777" value="31302e302e31302e313a37373737"/>
        <field name="http2.headers.authority" showname=":authority: 10.0.10.1:7777" size="14" pos="355" show="10.0.10.1:7777" value="31302e302e31302e313a37373737"/>
        <field name="http2.header.unescaped" showname="Unescaped: 10.0.10.1:7777" size="14" pos="355" show="10.0.10.1:7777" value="31302e302e31302e313a37373737"/>
        <field name="http2.header.repr" showname="Representation: Literal Header Field with Incremental Indexing - Indexed Name" size="1" pos="240" show="Literal Header Field with Incremental Indexing - Indexed Name" value="41"/>
        <field name="http2.header.index" showname="Index: 1" size="1" pos="240" show="1" value="41"/>
      </field>
      <field name="http2.header" showname="Header: accept: */*" size="5" pos="252" show="" value="">
        <field name="http2.header.name.length" showname="Name Length: 6" size="4" pos="381" show="6" value="00000006"/>
        <field name="http2.header.name" showname="Name: accept" size="6" pos="385" show="accept" value="616363657074"/>
        <field name="http2.header.value.length" showname="Value Length: 3" size="4" pos="391" show="3" value="00000003"/>
        <field name="http2.header.value" showname="Value: */*" size="3" pos="395" show="*/*" value="2a2f2a"/>
        <field name="http2.headers.accept" showname="accept: */*" size="3" pos="395" show="*/*" value="2a2f2a"/>
        <field name="http2.header.unescaped" showname="Unescaped: */*" size="3" pos="395" show="*/*" value="2a2f2a"/>
        <field name="http2.header.repr" showname="Representation: Literal Header Field with Incremental Indexing - Indexed Name" size="1" pos="252" show="Literal Header Field with Incremental Indexing - Indexed Name" value="53"/>
        <field name="http2.header.index" showname="Index: 19" size="1" pos="252" show="19" value="53"/>
      </field>
      <field name="http2.header" showname="Header: accept-encoding: gzip, deflate" size="1" pos="257" show="" value="">
        <field name="http2.header.name.length" showname="Name Length: 15" size="4" pos="403" show="15" value="0000000f"/>
        <field name="http2.header.name" showname="Name: accept-encoding" size="15" pos="407" show="accept-encoding" value="6163636570742d656e636f64696e67"/>
        <field name="http2.header.value.length" showname="Value Length: 13" size="4" pos="422" show="13" value="0000000d"/>
        <field name="http2.header.value" showname="Value: gzip, deflate" size="13" pos="426" show="gzip, deflate" value="677a69702c206465666c617465"/>
        <field name="http2.headers.accept_encoding" showname="accept-encoding: gzip, deflate" size="13" pos="426" show="gzip, deflate" value="677a69702c206465666c617465"/>
        <field name="http2.header.unescaped" showname="Unescaped: gzip, deflate" size="13" pos="426" show="gzip, deflate" value="677a69702c206465666c617465"/>
        <field name="http2.header.repr" showname="Representation: Indexed Header Field" size="1" pos="257" show="Indexed Header Field" value="90"/>
        <field name="http2.header.index" showname="Index: 16" size="1" pos="257" show="16" value="90"/>
      </field>
      <field name="http2.header" showname="Header: user-agent: nghttp2/1.40.0" size="12" pos="258" show="" value="">
        <field name="http2.header.name.length" showname="Name Length: 10" size="4" pos="440" show="10" value="0000000a"/>
        <field name="http2.header.name" showname="Name: user-agent" size="10" pos="444" show="user-agent" value="757365722d6167656e74"/>
        <field name="http2.header.value.length" showname="Value Length: 14" size="4" pos="454" show="14" value="0000000e"/>
        <field name="http2.header.value" showname="Value: nghttp2/1.40.0" size="14" pos="458" show="nghttp2/1.40.0" value="6e6768747470322f312e34302e30"/>
        <field name="http2.headers.user_agent" showname="user-agent: nghttp2/1.40.0" size="14" pos="458" show="nghttp2/1.40.0" value="6e6768747470322f312e34302e30"/>
        <field name="http2.header.unescaped" showname="Unescaped: nghttp2/1.40.0" size="14" pos="458" show="nghttp2/1.40.0" value="6e6768747470322f312e34302e30"/>
        <field name="http2.header.repr" showname="Representation: Literal Header Field with Incremental Indexing - Indexed Name" size="1" pos="258" show="Literal Header Field with Incremental Indexing - Indexed Name" value="7a"/>
        <field name="http2.header.index" showname="Index: 58" size="1" pos="258" show="58" value="7a"/>
      </field>
      <field name="http2.header" showname="Header: content-length: 828" size="6" pos="270" show="" value="">
        <field name="http2.header.name.length" showname="Name Length: 14" size="4" pos="484" show="14" value="0000000e"/>
        <field name="http2.header.name" showname="Name: content-length" size="14" pos="488" show="content-length" value="636f6e74656e742d6c656e677468"/>
        <field name="http2.header.value.length" showname="Value Length: 3" size="4" pos="502" show="3" value="00000003"/>
        <field name="http2.header.value" showname="Value: 828" size="3" pos="506" show="828" value="383238"/>
        <field name="http2.headers.content_length" showname="content-length: 828" size="3" pos="506" show="828" value="383238"/>
        <field name="http2.header.unescaped" showname="Unescaped: 828" size="3" pos="506" show="828" value="383238"/>
        <field name="http2.header.repr" showname="Representation: Literal Header Field without Indexing - Indexed Name" size="1" pos="270" show="Literal Header Field without Indexing - Indexed Name" value="0f"/>
        <field name="http2.header.index" showname="Index: 28" size="1" pos="270" show="28" value="0f"/>
      </field>
      <field name="http2.header" showname="Header: content-type: application/json" size="13" pos="276" show="" value="">
        <field name="http2.header.name.length" showname="Name Length: 12" size="4" pos="515" show="12" value="0000000c"/>
        <field name="http2.header.name" showname="Name: content-type" size="12" pos="519" show="content-type" value="636f6e74656e742d74797065"/>
        <field name="http2.header.value.length" showname="Value Length: 16" size="4" pos="531" show="16" value="00000010"/>
        <field name="http2.header.value" showname="Value: application/json" size="16" pos="535" show="application/json" value="6170706c69636174696f6e2f6a736f6e"/>
        <field name="http2.headers.content_type" showname="content-type: application/json" size="16" pos="535" show="application/json" value="6170706c69636174696f6e2f6a736f6e"/>
        <field name="http2.header.unescaped" showname="Unescaped: application/json" size="16" pos="535" show="application/json" value="6170706c69636174696f6e2f6a736f6e"/>
        <field name="http2.header.repr" showname="Representation: Literal Header Field with Incremental Indexing - Indexed Name" size="1" pos="276" show="Literal Header Field with Incremental Indexing - Indexed Name" value="5f"/>
        <field name="http2.header.index" showname="Index: 31" size="1" pos="276" show="31" value="5f"/>
      </field>
    </field>
    <field name="http2.stream" showname="Stream: DATA, Stream ID: 13, Length 828" size="837" pos="289" show="" value="">
      <field name="http2.length" showname="Length: 828" size="3" pos="289" show="828" value="00033c"/>
      <field name="http2.type" showname="Type: DATA (0)" size="1" pos="292" show="0" value="00"/>
      <field name="http2.flags" showname="Flags: 0x01" size="1" pos="293" show="0x00000001" value="01">
        <field name="http2.flags.end_stream" showname=".... ...1 = End Stream: True" size="1" pos="293" show="1" value="1" unmaskedvalue="01"/>
        <field name="http2.flags.padded" showname=".... 0... = Padded: False" size="1" pos="293" show="0" value="0" unmaskedvalue="01"/>
        <field name="http2.flags.unused_data" showname="0000 .00. = Unused: 0x00" size="1" pos="293" show="0x00000000" value="0" unmaskedvalue="01"/>
      </field>
      <field name="http2.r" showname="0... .... .... .... .... .... .... .... = Reserved: 0x0" size="4" pos="294" show="0x00000000" value="0" unmaskedvalue="0000000d"/>
      <field name="http2.streamid" showname=".000 0000 0000 0000 0000 0000 0000 1101 = Stream Identifier: 13" size="4" pos="294" show="13" value="D" unmaskedvalue="0000000d"/>
      <field name="http2.pad_length" showname="Pad Length: 0" size="0" pos="298" show="0"/>
      <field name="http2.data.data" showname="Data: 7b0a09226e6f74696669636174696f6e557269223a092268\xe2\x80\xa6" size="828" pos="298" show="7b:0a:09:22:6e:6f:74:69:66:69:63:61:74:69:6f:6e:55:72:69:22:3a:09:22:68:74:74:70:3a:2f:2f:31:30:2e:30:2e:33:2e:31:3a:37:37:37:37:2f:6e:61:6d:66:2d:63:61:6c:6c:62:61:63:6b:2f:76:31:2f:69:6d:73:69:2d:39:30:31:37:30:30:30:30:30:30:30:30:30:30:31:2f:61:6d:2d:70:6f:6c:69:63:79:2d:6e:6f:74:69:66:79:22:2c:0a:09:22:73:75:70:69:22:3a:09:22:69:6d:73:69:2d:39:30:31:37:30:30:30:30:30:30:30:30:30:30:34:22:2c:0a:09:22:61:63:63:65:73:73:54:79:70:65:22:3a:09:22:33:47:50:50:5f:41:43:43:45:53:53:22:2c:0a:09:22:75:73:65:72:4c:6f:63:22:3a:09:7b:0a:09:09:22:6e:72:4c:6f:63:61:74:69:6f:6e:22:3a:09:7b:0a:09:09:09:22:74:61:69:22:3a:09:7b:0a:09:09:09:09:22:70:6c:6d:6e:49:64:22:3a:09:7b:0a:09:09:09:09:09:22:6d:63:63:22:3a:09:22:39:30:31:22:2c:0a:09:09:09:09:09:22:6d:6e:63:22:3a:09:22:37:30:22:0a:09:09:09:09:7d:2c:0a:09:09:09:09:22:74:61:63:22:3a:09:22:30:30:30:30:30:31:22:0a:09:09:09:7d:2c:0a:09:09:09:22:6e:63:67:69:22:3a:09:7b:0a:09:09:09:09:22:70:6c:6d:6e:49:64:22:3a:09:7b:0a:09:09:09:09:09:22:6d:63:63:22:3a:09:22:39:30:31:22:2c:0a:09:09:09:09:09:22:6d:6e:63:22:3a:09:22:37:30:22:0a:09:09:09:09:7d:2c:0a:09:09:09:09:22:6e:72:43:65:6c:6c:49:64:22:3a:09:22:30:30:30:30:30:30:30:31:30:22:0a:09:09:09:7d:2c:0a:09:09:09:22:75:65:4c:6f:63:61:74:69:6f:6e:54:69:6d:65:73:74:61:6d:70:22:3a:09:22:32:30:32:33:2d:30:35:2d:32:33:54:32:30:3a:32:34:3a:30:34:2e:37:39:37:32:38:35:5a:22:0a:09:09:7d:0a:09:7d:2c:0a:09:22:74:69:6d:65:5a:6f:6e:65:22:3a:09:22:2b:30:32:3a:30:30:22:2c:0a:09:22:73:65:72:76:69:6e:67:50:6c:6d:6e:22:3a:09:7b:0a:09:09:22:6d:63:63:22:3a:09:22:39:30:31:22:2c:0a:09:09:22:6d:6e:63:22:3a:09:22:37:30:22:0a:09:7d:2c:0a:09:22:72:61:74:54:79:70:65:22:3a:09:22:4e:52:22:2c:0a:09:22:75:65:41:6d:62:72:22:3a:09:7b:0a:09:09:22:75:70:6c:69:6e:6b:22:3a:09:22:31:30:34:38:35:37:36:20:4b:62:70:73:22:2c:0a:09:09:22:64:6f:77:6e:6c:69:6e:6b:22:3a:09:22:31:30:34:38:35:37:36:20:4b:62:70:73:22:0a:09:7d:2c:0a:09:22:61:6c:6c:6f:77:65:64:53:6e:73:73:61:69:73:22:3a:09:5b:7b:0a:09:09:09:22:73:73:74:22:3a:09:31:2c:0a:09:09:09:22:73:64:22:3a:09:22:30:30:30:30:30:31:22:0a:09:09:7d:5d:2c:0a:09:22:67:75:61:6d:69:22:3a:09:7b:0a:09:09:22:70:6c:6d:6e:49:64:22:3a:09:7b:0a:09:09:09:22:6d:63:63:22:3a:09:22:39:30:31:22:2c:0a:09:09:09:22:6d:6e:63:22:3a:09:22:37:30:22:0a:09:09:7d:2c:0a:09:09:22:61:6d:66:49:64:22:3a:09:22:30:32:30:30:34:30:22:0a:09:7d:2c:0a:09:22:73:65:72:76:69:63:65:4e:61:6d:65:22:3a:09:22:6e:61:6d:66:2d:63:61:6c:6c:62:61:63:6b:22:2c:0a:09:22:73:75:70:70:46:65:61:74:22:3a:09:22:34:22:0a:7d:0a" value="7b0a09226e6f74696669636174696f6e557269223a0922687474703a2f2f31302e302e332e313a373737372f6e616d662d63616c6c6261636b2f76312f696d73692d3930313730303030303030303030312f616d2d706f6c6963792d6e6f74696679222c0a092273757069223a0922696d73692d393031373030303030303030303034222c0a092261636365737354797065223a0922334750505f414343455353222c0a0922757365724c6f63223a097b0a0909226e724c6f636174696f6e223a097b0a09090922746169223a097b0a0909090922706c6d6e4964223a097b0a0909090909226d6363223a0922393031222c0a0909090909226d6e63223a09223730220a090909097d2c0a0909090922746163223a0922303030303031220a0909097d2c0a090909226e636769223a097b0a0909090922706c6d6e4964223a097b0a0909090909226d6363223a0922393031222c0a0909090909226d6e63223a09223730220a090909097d2c0a09090909226e7243656c6c4964223a0922303030303030303130220a0909097d2c0a0909092275654c6f636174696f6e54696d657374616d70223a0922323032332d30352d32335432303a32343a30342e3739373238355a220a09097d0a097d2c0a092274696d655a6f6e65223a09222b30323a3030222c0a092273657276696e67506c6d6e223a097b0a0909226d6363223a0922393031222c0a0909226d6e63223a09223730220a097d2c0a092272617454797065223a09224e52222c0a09227565416d6272223a097b0a09092275706c696e6b223a092231303438353736204b627073222c0a090922646f776e6c696e6b223a092231303438353736204b627073220a097d2c0a0922616c6c6f776564536e7373616973223a095b7b0a09090922737374223a09312c0a090909227364223a0922303030303031220a09097d5d2c0a09226775616d69223a097b0a090922706c6d6e4964223a097b0a090909226d6363223a0922393031222c0a090909226d6e63223a09223730220a09097d2c0a090922616d664964223a0922303230303430220a097d2c0a0922736572766963654e616d65223a09226e616d662d63616c6c6261636b222c0a09227375707046656174223a092234220a7d0a"/>
    </field>
    <proto name="json" showname="JavaScript Object Notation: application/json" size="828" pos="298">
      <field name="json.object" showname="Object" size="827" pos="298" show="" value="">
        <field name="json.member" showname="Member Key: notificationUri" size="96" pos="301" show="" value="">
          <field name="json.value.string" showname="String value: http://10.0.3.1:7777/namf-callback/v1/imsi-901700000000001/am-policy-notify" size="77" pos="320" show="http://10.0.3.1:7777/namf-callback/v1/imsi-901700000000001/am-policy-notify" value="22687474703a2f2f31302e302e332e313a373737372f6e616d662d63616c6c6261636b2f76312f696d73692d3930313730303030303030303030312f616d2d706f6c6963792d6e6f7469667922"/>
          <field name="json.key" showname="Key: notificationUri" size="17" pos="301" show="notificationUri" value="226e6f74696669636174696f6e55726922"/>
        </field>
        <field name="json.member" showname="Member Key: supi" size="30" pos="400" show="" value="">
          <field name="json.value.string" showname="String value: imsi-901700000000004" size="22" pos="408" show="imsi-901700000000004" value="22696d73692d39303137303030303030303030303422"/>
          <field name="json.key" showname="Key: supi" size="6" pos="400" show="supi" value="227375706922"/>
        </field>
        <field name="json.member" showname="Member Key: accessType" size="27" pos="433" show="" value="">
          <field name="json.value.string" showname="String value: 3GPP_ACCESS" size="13" pos="447" show="3GPP_ACCESS" value="22334750505f41434345535322"/>
          <field name="json.key" showname="Key: accessType" size="12" pos="433" show="accessType" value="226163636573735479706522"/>
        </field>
        <field name="json.member" showname="Member Key: userLoc" size="296" pos="463" show="" value="">
          <field name="json.object" showname="Object" size="285" pos="474" show="" value="">
            <field name="json.member" showname="Member Key: nrLocation" size="278" pos="478" show="" value="">
              <field name="json.object" showname="Object" size="264" pos="492" show="" value="">
                <field name="json.member" showname="Member Key: tai" size="92" pos="497" show="" value="">
                  <field name="json.object" showname="Object" size="85" pos="504" show="" value="">
                    <field name="json.member" showname="Member Key: plmnId" size="53" pos="510" show="" value="">
                      <field name="json.object" showname="Object" size="43" pos="520" show="" value="">
                        <field name="json.member" showname="Member Key: mcc" size="12" pos="527" show="" value="">
                          <field name="json.value.string" showname="String value: 901" size="5" pos="534" show="901" value="2239303122"/>
                          <field name="json.key" showname="Key: mcc" size="5" pos="527" show="mcc" value="226d636322"/>
                        </field>
                        <field name="json.member" showname="Member Key: mnc" size="11" pos="546" show="" value="">
                          <field name="json.value.string" showname="String value: 70" size="4" pos="553" show="70" value="22373022"/>
                          <field name="json.key" showname="Key: mnc" size="5" pos="546" show="mnc" value="226d6e6322"/>
                        </field>
                      </field>
                      <field name="json.key" showname="Key: plmnId" size="8" pos="510" show="plmnId" value="22706c6d6e496422"/>
                    </field>
                    <field name="json.member" showname="Member Key: tac" size="15" pos="569" show="" value="">
                      <field name="json.value.string" showname="String value: 000001" size="8" pos="576" show="000001" value="2230303030303122"/>
                      <field name="json.key" showname="Key: tac" size="5" pos="569" show="tac" value="2274616322"/>
                    </field>
                  </field>
                  <field name="json.key" showname="Key: tai" size="5" pos="497" show="tai" value="2274616922"/>
                </field>
                <field name="json.member" showname="Member Key: ncgi" size="101" pos="594" show="" value="">
                  <field name="json.object" showname="Object" size="93" pos="602" show="" value="">
                    <field name="json.member" showname="Member Key: plmnId" size="53" pos="608" show="" value="">
                      <field name="json.object" showname="Object" size="43" pos="618" show="" value="">
                        <field name="json.member" showname="Member Key: mcc" size="12" pos="625" show="" value="">
                          <field name="json.value.string" showname="String value: 901" size="5" pos="632" show="901" value="2239303122"/>
                          <field name="json.key" showname="Key: mcc" size="5" pos="625" show="mcc" value="226d636322"/>
                        </field>
                        <field name="json.member" showname="Member Key: mnc" size="11" pos="644" show="" value="">
                          <field name="json.value.string" showname="String value: 70" size="4" pos="651" show="70" value="22373022"/>
                          <field name="json.key" showname="Key: mnc" size="5" pos="644" show="mnc" value="226d6e6322"/>
                        </field>
                      </field>
                      <field name="json.key" showname="Key: plmnId" size="8" pos="608" show="plmnId" value="22706c6d6e496422"/>
                    </field>
                    <field name="json.member" showname="Member Key: nrCellId" size="23" pos="667" show="" value="">
                      <field name="json.value.string" showname="String value: 000000010" size="11" pos="679" show="000000010" value="2230303030303030313022"/>
                      <field name="json.key" showname="Key: nrCellId" size="10" pos="667" show="nrCellId" value="226e7243656c6c496422"/>
                    </field>
                  </field>
                  <field name="json.key" showname="Key: ncgi" size="6" pos="594" show="ncgi" value="226e63676922"/>
                </field>
                <field name="json.member" showname="Member Key: ueLocationTimestamp" size="52" pos="700" show="" value="">
                  <field name="json.value.string" showname="String value: 2023-05-23T20:24:04.797285Z" size="29" pos="723" show="2023-05-23T20:24:04.797285Z" value="22323032332d30352d32335432303a32343a30342e3739373238355a22"/>
                  <field name="json.key" showname="Key: ueLocationTimestamp" size="21" pos="700" show="ueLocationTimestamp" value="2275654c6f636174696f6e54696d657374616d7022"/>
                </field>
              </field>
              <field name="json.key" showname="Key: nrLocation" size="12" pos="478" show="nrLocation" value="226e724c6f636174696f6e22"/>
            </field>
          </field>
          <field name="json.key" showname="Key: userLoc" size="9" pos="463" show="userLoc" value="22757365724c6f6322"/>
        </field>
        <field name="json.member" showname="Member Key: timeZone" size="20" pos="762" show="" value="">
          <field name="json.value.string" showname="String value: +02:00" size="8" pos="774" show="+02:00" value="222b30323a303022"/>
          <field name="json.key" showname="Key: timeZone" size="10" pos="762" show="timeZone" value="2274696d655a6f6e6522"/>
        </field>
        <field name="json.member" showname="Member Key: servingPlmn" size="49" pos="785" show="" value="">
          <field name="json.object" showname="Object" size="34" pos="800" show="" value="">
            <field name="json.member" showname="Member Key: mcc" size="12" pos="804" show="" value="">
              <field name="json.value.string" showname="String value: 901" size="5" pos="811" show="901" value="2239303122"/>
              <field name="json.key" showname="Key: mcc" size="5" pos="804" show="mcc" value="226d636322"/>
            </field>
            <field name="json.member" showname="Member Key: mnc" size="11" pos="820" show="" value="">
              <field name="json.value.string" showname="String value: 70" size="4" pos="827" show="70" value="22373022"/>
              <field name="json.key" showname="Key: mnc" size="5" pos="820" show="mnc" value="226d6e6322"/>
            </field>
          </field>
          <field name="json.key" showname="Key: servingPlmn" size="13" pos="785" show="servingPlmn" value="2273657276696e67506c6d6e22"/>
        </field>
        <field name="json.member" showname="Member Key: ratType" size="15" pos="837" show="" value="">
          <field name="json.value.string" showname="String value: NR" size="4" pos="848" show="NR" value="224e5222"/>
          <field name="json.key" showname="Key: ratType" size="9" pos="837" show="ratType" value="227261745479706522"/>
        </field>
        <field name="json.member" showname="Member Key: ueAmbr" size="71" pos="855" show="" value="">
          <field name="json.object" showname="Object" size="61" pos="865" show="" value="">
            <field name="json.member" showname="Member Key: uplink" size="24" pos="869" show="" value="">
              <field name="json.value.string" showname="String value: 1048576 Kbps" size="14" pos="879" show="1048576 Kbps" value="2231303438353736204b62707322"/>
              <field name="json.key" showname="Key: uplink" size="8" pos="869" show="uplink" value="2275706c696e6b22"/>
            </field>
            <field name="json.member" showname="Member Key: downlink" size="26" pos="897" show="" value="">
              <field name="json.value.string" showname="String value: 1048576 Kbps" size="14" pos="909" show="1048576 Kbps" value="2231303438353736204b62707322"/>
              <field name="json.key" showname="Key: downlink" size="10" pos="897" show="downlink" value="22646f776e6c696e6b22"/>
            </field>
          </field>
          <field name="json.key" showname="Key: ueAmbr" size="8" pos="855" show="ueAmbr" value="227565416d627222"/>
        </field>
        <field name="json.member" showname="Member Key: allowedSnssais" size="56" pos="929" show="" value="">
          <field name="json.array" showname="Array" size="38" pos="947" show="" value="">
            <field name="json.object" showname="Object" size="36" pos="948" show="" value="">
              <field name="json.member" showname="Member Key: sst" size="8" pos="953" show="" value="">
                <field name="json.value.number" showname="Number value: 1" size="1" pos="960" show="1" value="31"/>
                <field name="json.key" showname="Key: sst" size="5" pos="953" show="sst" value="2273737422"/>
              </field>
              <field name="json.member" showname="Member Key: sd" size="14" pos="966" show="" value="">
                <field name="json.value.string" showname="String value: 000001" size="8" pos="972" show="000001" value="2230303030303122"/>
                <field name="json.key" showname="Key: sd" size="4" pos="966" show="sd" value="22736422"/>
              </field>
            </field>
          </field>
          <field name="json.key" showname="Key: allowedSnssais" size="16" pos="929" show="allowedSnssais" value="22616c6c6f776564536e737361697322"/>
        </field>
        <field name="json.member" showname="Member Key: guami" size="84" pos="988" show="" value="">
          <field name="json.object" showname="Object" size="75" pos="997" show="" value="">
            <field name="json.member" showname="Member Key: plmnId" size="47" pos="1001" show="" value="">
              <field name="json.object" showname="Object" size="37" pos="1011" show="" value="">
                <field name="json.member" showname="Member Key: mcc" size="12" pos="1016" show="" value="">
                  <field name="json.value.string" showname="String value: 901" size="5" pos="1023" show="901" value="2239303122"/>
                  <field name="json.key" showname="Key: mcc" size="5" pos="1016" show="mcc" value="226d636322"/>
                </field>
                <field name="json.member" showname="Member Key: mnc" size="11" pos="1033" show="" value="">
                  <field name="json.value.string" showname="String value: 70" size="4" pos="1040" show="70" value="22373022"/>
                  <field name="json.key" showname="Key: mnc" size="5" pos="1033" show="mnc" value="226d6e6322"/>
                </field>
              </field>
              <field name="json.key" showname="Key: plmnId" size="8" pos="1001" show="plmnId" value="22706c6d6e496422"/>
            </field>
            <field name="json.member" showname="Member Key: amfId" size="17" pos="1052" show="" value="">
              <field name="json.value.string" showname="String value: 020040" size="8" pos="1061" show="020040" value="2230323030343022"/>
              <field name="json.key" showname="Key: amfId" size="7" pos="1052" show="amfId" value="22616d66496422"/>
            </field>
          </field>
          <field name="json.key" showname="Key: guami" size="7" pos="988" show="guami" value="226775616d6922"/>
        </field>
        <field name="json.member" showname="Member Key: serviceName" size="30" pos="1075" show="" value="">
          <field name="json.value.string" showname="String value: namf-callback" size="15" pos="1090" show="namf-callback" value="226e616d662d63616c6c6261636b22"/>
          <field name="json.key" showname="Key: serviceName" size="13" pos="1075" show="serviceName" value="22736572766963654e616d6522"/>
        </field>
        <field name="json.member" showname="Member Key: suppFeat" size="15" pos="1108" show="" value="">
          <field name="json.value.string" showname="String value: 4" size="3" pos="1120" show="4" value="223422"/>
          <field name="json.key" showname="Key: suppFeat" size="10" pos="1108" show="suppFeat" value="22737570704665617422"/>
        </field>
      </field>
    </proto>
  </proto>
</packet>


<packet>
  <proto name="geninfo" pos="0" showname="General information" size="106">
    <field name="num" pos="0" show="13" showname="Number" value="d" size="106"/>
    <field name="len" pos="0" show="106" showname="Frame Length" value="6a" size="106"/>
    <field name="caplen" pos="0" show="106" showname="Captured Length" value="6a" size="106"/>
    <field name="timestamp" pos="0" show="May 23, 2023 23:37:30.607218754 CEST" showname="Captured Time" value="1684877850.607218754" size="106"/>
  </proto>
  <proto name="frame" showname="Frame 13: 106 bytes on wire (848 bits), 106 bytes captured (848 bits) on interface veth_pcf, id 0" size="106" pos="0">
    <field name="filtered" value="frame" />
  </proto>
  <proto name="eth" showname="Ethernet II, Src: 8a:0b:87:b7:1e:40, Dst: 52:d4:2e:8b:e5:24" size="14" pos="0">
    <field name="filtered" value="eth" />
  </proto>
  <proto name="ip" showname="Internet Protocol Version 4, Src: 10.0.10.1, Dst: 10.0.5.1" size="20" pos="14">
    <field name="filtered" value="ip" />
  </proto>
  <proto name="tcp" showname="Transmission Control Protocol, Src Port: 49872, Dst Port: 7777, Seq: 5447160, Ack: 265718867, Len: 40" size="32" pos="34">
    <field name="tcp.srcport" showname="Source Port: 49872" size="2" pos="34" show="49872" value="c2d0"/>
    <field name="tcp.dstport" showname="Destination Port: 7777" size="2" pos="36" show="7777" value="1e61"/>
    <field name="tcp.port" showname="Source or Destination Port: 49872" hide="yes" size="2" pos="34" show="49872" value="c2d0"/>
    <field name="tcp.port" showname="Source or Destination Port: 7777" hide="yes" size="2" pos="36" show="7777" value="1e61"/>
    <field name="tcp.stream" showname="Stream index: 2" size="0" pos="34" show="2"/>
    <field name="tcp.len" showname="TCP Segment Len: 40" size="1" pos="46" show="40" value="80"/>
    <field name="tcp.seq" showname="Sequence number: 5447160" size="4" pos="38" show="5447160" value="00531df8"/>
    <field name="tcp.seq_raw" showname="Sequence number (raw): 5447160" hide="yes" size="4" pos="38" show="5447160" value="00531df8"/>
    <field name="tcp.nxtseq" showname="Next sequence number: 5447200" size="0" pos="34" show="5447200"/>
    <field name="tcp.ack" showname="Acknowledgment number: 265718867" size="4" pos="42" show="265718867" value="0fd68c53"/>
    <field name="tcp.ack_raw" showname="Acknowledgment number (raw): 265718867" hide="yes" size="4" pos="42" show="265718867" value="0fd68c53"/>
    <field name="tcp.hdr_len" showname="1000 .... = Header Length: 32 bytes (8)" size="1" pos="46" show="32" value="80"/>
    <field name="tcp.flags" showname="Flags: 0x018 (PSH, ACK)" size="2" pos="46" show="0x00000018" value="18" unmaskedvalue="8018">
      <field name="tcp.flags.res" showname="000. .... .... = Reserved: Not set" size="1" pos="46" show="0" value="0" unmaskedvalue="80"/>
      <field name="tcp.flags.ns" showname="...0 .... .... = Nonce: Not set" size="1" pos="46" show="0" value="0" unmaskedvalue="80"/>
      <field name="tcp.flags.cwr" showname=".... 0... .... = Congestion Window Reduced (CWR): Not set" size="1" pos="47" show="0" value="0" unmaskedvalue="18"/>
      <field name="tcp.flags.ecn" showname=".... .0.. .... = ECN-Echo: Not set" size="1" pos="47" show="0" value="0" unmaskedvalue="18"/>
      <field name="tcp.flags.urg" showname=".... ..0. .... = Urgent: Not set" size="1" pos="47" show="0" value="0" unmaskedvalue="18"/>
      <field name="tcp.flags.ack" showname=".... ...1 .... = Acknowledgment: Set" size="1" pos="47" show="1" value="1" unmaskedvalue="18"/>
      <field name="tcp.flags.push" showname=".... .... 1... = Push: Set" size="1" pos="47" show="1" value="1" unmaskedvalue="18"/>
      <field name="tcp.flags.reset" showname=".... .... .0.. = Reset: Not set" size="1" pos="47" show="0" value="0" unmaskedvalue="18"/>
      <field name="tcp.flags.syn" showname=".... .... ..0. = Syn: Not set" size="1" pos="47" show="0" value="0" unmaskedvalue="18"/>
      <field name="tcp.flags.fin" showname=".... .... ...0 = Fin: Not set" size="1" pos="47" show="0" value="0" unmaskedvalue="18"/>
      <field name="tcp.flags.str" showname="TCP Flags: \xc2\xb7\xc2\xb7\xc2\xb7\xc2\xb7\xc2\xb7\xc2\xb7\xc2\xb7AP\xc2\xb7\xc2\xb7\xc2\xb7" size="2" pos="46" show="\xc2\xb7\xc2\xb7\xc2\xb7\xc2\xb7\xc2\xb7\xc2\xb7\xc2\xb7AP\xc2\xb7\xc2\xb7\xc2\xb7" value="8018"/>
    </field>
    <field name="tcp.window_size_value" showname="Window size value: 502" size="2" pos="48" show="502" value="01f6"/>
    <field name="tcp.window_size" showname="Calculated window size: 502" size="2" pos="48" show="502" value="01f6"/>
    <field name="tcp.window_size_scalefactor" showname="Window size scaling factor: -1 (unknown)" size="2" pos="48" show="-1" value="01f6"/>
    <field name="tcp.checksum" showname="Checksum: 0x2350 [unverified]" size="2" pos="50" show="0x00002350" value="2350"/>
    <field name="tcp.checksum.status" showname="Checksum Status: Unverified" size="0" pos="50" show="2"/>
    <field name="tcp.urgent_pointer" showname="Urgent pointer: 0" size="2" pos="52" show="0" value="0000"/>
    <field name="tcp.options" showname="Options: (12 bytes), No-Operation (NOP), No-Operation (NOP), Timestamps" size="12" pos="54" show="01:01:08:0a:b0:7f:77:44:33:20:57:2c" value="0101080ab07f77443320572c">
      <field name="tcp.options.nop" showname="TCP Option - No-Operation (NOP)" size="1" pos="54" show="01" value="01">
        <field name="tcp.option_kind" showname="Kind: No-Operation (1)" size="1" pos="54" show="1" value="01"/>
      </field>
      <field name="tcp.options.nop" showname="TCP Option - No-Operation (NOP)" size="1" pos="55" show="01" value="01">
        <field name="tcp.option_kind" showname="Kind: No-Operation (1)" size="1" pos="55" show="1" value="01"/>
      </field>
      <field name="tcp.options.timestamp" showname="TCP Option - Timestamps: TSval 2961143620, TSecr 857757484" size="10" pos="56" show="08:0a:b0:7f:77:44:33:20:57:2c" value="080ab07f77443320572c">
        <field name="tcp.option_kind" showname="Kind: Time Stamp Option (8)" size="1" pos="56" show="8" value="08"/>
        <field name="tcp.option_len" showname="Length: 10" size="1" pos="57" show="10" value="0a"/>
        <field name="tcp.options.timestamp.tsval" showname="Timestamp value: 2961143620" size="4" pos="58" show="2961143620" value="b07f7744"/>
        <field name="tcp.options.timestamp.tsecr" showname="Timestamp echo reply: 857757484" size="4" pos="62" show="857757484" value="3320572c"/>
      </field>
    </field>
    <field name="" show="Timestamps" size="0" pos="34">
      <field name="tcp.time_relative" showname="Time since first frame in this TCP stream: 0.000000000 seconds" size="0" pos="34" show="0.000000000"/>
      <field name="tcp.time_delta" showname="Time since previous frame in this TCP stream: 0.000000000 seconds" size="0" pos="34" show="0.000000000"/>
    </field>
    <field name="tcp.payload" showname="TCP payload (40 bytes)" size="40" pos="66" show="00:00:1f:01:05:00:00:00:03:c0:04:99:62:a8:d1:2a:d4:8e:a1:cc:5a:4b:52:58:ee:16:2b:24:b7:4d:54:86:aa:64:30:16:ff:86:bf:be" value="00001f010500000003c0049962a8d12ad48ea1cc5a4b5258ee162b24b74d5486aa643016ff86bfbe"/>
    <field name="tcp.pdu.size" showname="PDU Size: 40" size="40" pos="66" show="40" value="00001f010500000003c0049962a8d12ad48ea1cc5a4b5258ee162b24b74d5486aa643016ff86bfbe"/>
  </proto>
  <proto name="http2" showname="HyperText Transfer Protocol 2" size="40" pos="66">
    <field name="http2.stream" showname="Stream: HEADERS, Stream ID: 3, Length 31" size="40" pos="66" show="" value="">
      <field name="http2.length" showname="Length: 31" size="3" pos="66" show="31" value="00001f"/>
      <field name="http2.type" showname="Type: HEADERS (1)" size="1" pos="69" show="1" value="01"/>
      <field name="http2.flags" showname="Flags: 0x05" size="1" pos="70" show="0x00000005" value="05">
        <field name="http2.flags.end_stream" showname=".... ...1 = End Stream: True" size="1" pos="70" show="1" value="1" unmaskedvalue="05"/>
        <field name="http2.flags.eh" showname=".... .1.. = End Headers: True" size="1" pos="70" show="1" value="1" unmaskedvalue="05"/>
        <field name="http2.flags.padded" showname=".... 0... = Padded: False" size="1" pos="70" show="0" value="0" unmaskedvalue="05"/>
        <field name="http2.flags.priority" showname="..0. .... = Priority: False" size="1" pos="70" show="0" value="0" unmaskedvalue="05"/>
        <field name="http2.flags.unused_headers" showname="00.0 ..0. = Unused: 0x00" size="1" pos="70" show="0x00000000" value="0" unmaskedvalue="05"/>
      </field>
      <field name="http2.r" showname="0... .... .... .... .... .... .... .... = Reserved: 0x0" size="4" pos="71" show="0x00000000" value="0" unmaskedvalue="00000003"/>
      <field name="http2.streamid" showname=".000 0000 0000 0000 0000 0000 0000 0011 = Stream Identifier: 3" size="4" pos="71" show="3" value="3" unmaskedvalue="00000003"/>
      <field name="http2.pad_length" showname="Pad Length: 0" size="0" pos="75" show="0"/>
      <field name="http2.headers" showname="Header Block Fragment: c0049962a8d12ad48ea1cc5a4b5258ee162b24b74d5486aa\xe2\x80\xa6" size="31" pos="75" show="c0:04:99:62:a8:d1:2a:d4:8e:a1:cc:5a:4b:52:58:ee:16:2b:24:b7:4d:54:86:aa:64:30:16:ff:86:bf:be" value="c0049962a8d12ad48ea1cc5a4b5258ee162b24b74d5486aa643016ff86bfbe"/>
    </field>
  </proto>
</packet>


<packet>
  <proto name="geninfo" pos="0" showname="General information" size="101">
    <field name="num" pos="0" show="15" showname="Number" value="f" size="101"/>
    <field name="len" pos="0" show="101" showname="Frame Length" value="65" size="101"/>
    <field name="caplen" pos="0" show="101" showname="Captured Length" value="65" size="101"/>
    <field name="timestamp" pos="0" show="May 23, 2023 23:37:30.607340363 CEST" showname="Captured Time" value="1684877850.607340363" size="101"/>
  </proto>
  <proto name="frame" showname="Frame 15: 101 bytes on wire (808 bits), 101 bytes captured (808 bits) on interface veth_pcf, id 0" size="101" pos="0">
    <field name="filtered" value="frame" />
  </proto>
  <proto name="eth" showname="Ethernet II, Src: 52:d4:2e:8b:e5:24, Dst: 8a:0b:87:b7:1e:40" size="14" pos="0">
    <field name="filtered" value="eth" />
  </proto>
  <proto name="ip" showname="Internet Protocol Version 4, Src: 10.0.5.1, Dst: 10.0.10.1" size="20" pos="14">
    <field name="filtered" value="ip" />
  </proto>
  <proto name="tcp" showname="Transmission Control Protocol, Src Port: 7777, Dst Port: 49872, Seq: 265718867, Ack: 5447200, Len: 35" size="32" pos="34">
    <field name="tcp.srcport" showname="Source Port: 7777" size="2" pos="34" show="7777" value="1e61"/>
    <field name="tcp.dstport" showname="Destination Port: 49872" size="2" pos="36" show="49872" value="c2d0"/>
    <field name="tcp.port" showname="Source or Destination Port: 7777" hide="yes" size="2" pos="34" show="7777" value="1e61"/>
    <field name="tcp.port" showname="Source or Destination Port: 49872" hide="yes" size="2" pos="36" show="49872" value="c2d0"/>
    <field name="tcp.stream" showname="Stream index: 2" size="0" pos="34" show="2"/>
    <field name="tcp.len" showname="TCP Segment Len: 35" size="1" pos="46" show="35" value="80"/>
    <field name="tcp.seq" showname="Sequence number: 265718867" size="4" pos="38" show="265718867" value="0fd68c53"/>
    <field name="tcp.seq_raw" showname="Sequence number (raw): 265718867" hide="yes" size="4" pos="38" show="265718867" value="0fd68c53"/>
    <field name="tcp.nxtseq" showname="Next sequence number: 265718902" size="0" pos="34" show="265718902"/>
    <field name="tcp.ack" showname="Acknowledgment number: 5447200" size="4" pos="42" show="5447200" value="00531e20"/>
    <field name="tcp.ack_raw" showname="Acknowledgment number (raw): 5447200" hide="yes" size="4" pos="42" show="5447200" value="00531e20"/>
    <field name="tcp.hdr_len" showname="1000 .... = Header Length: 32 bytes (8)" size="1" pos="46" show="32" value="80"/>
    <field name="tcp.flags" showname="Flags: 0x018 (PSH, ACK)" size="2" pos="46" show="0x00000018" value="18" unmaskedvalue="8018">
      <field name="tcp.flags.res" showname="000. .... .... = Reserved: Not set" size="1" pos="46" show="0" value="0" unmaskedvalue="80"/>
      <field name="tcp.flags.ns" showname="...0 .... .... = Nonce: Not set" size="1" pos="46" show="0" value="0" unmaskedvalue="80"/>
      <field name="tcp.flags.cwr" showname=".... 0... .... = Congestion Window Reduced (CWR): Not set" size="1" pos="47" show="0" value="0" unmaskedvalue="18"/>
      <field name="tcp.flags.ecn" showname=".... .0.. .... = ECN-Echo: Not set" size="1" pos="47" show="0" value="0" unmaskedvalue="18"/>
      <field name="tcp.flags.urg" showname=".... ..0. .... = Urgent: Not set" size="1" pos="47" show="0" value="0" unmaskedvalue="18"/>
      <field name="tcp.flags.ack" showname=".... ...1 .... = Acknowledgment: Set" size="1" pos="47" show="1" value="1" unmaskedvalue="18"/>
      <field name="tcp.flags.push" showname=".... .... 1... = Push: Set" size="1" pos="47" show="1" value="1" unmaskedvalue="18"/>
      <field name="tcp.flags.reset" showname=".... .... .0.. = Reset: Not set" size="1" pos="47" show="0" value="0" unmaskedvalue="18"/>
      <field name="tcp.flags.syn" showname=".... .... ..0. = Syn: Not set" size="1" pos="47" show="0" value="0" unmaskedvalue="18"/>
      <field name="tcp.flags.fin" showname=".... .... ...0 = Fin: Not set" size="1" pos="47" show="0" value="0" unmaskedvalue="18"/>
      <field name="tcp.flags.str" showname="TCP Flags: \xc2\xb7\xc2\xb7\xc2\xb7\xc2\xb7\xc2\xb7\xc2\xb7\xc2\xb7AP\xc2\xb7\xc2\xb7\xc2\xb7" size="2" pos="46" show="\xc2\xb7\xc2\xb7\xc2\xb7\xc2\xb7\xc2\xb7\xc2\xb7\xc2\xb7AP\xc2\xb7\xc2\xb7\xc2\xb7" value="8018"/>
    </field>
    <field name="tcp.window_size_value" showname="Window size value: 509" size="2" pos="48" show="509" value="01fd"/>
    <field name="tcp.window_size" showname="Calculated window size: 509" size="2" pos="48" show="509" value="01fd"/>
    <field name="tcp.window_size_scalefactor" showname="Window size scaling factor: -1 (unknown)" size="2" pos="48" show="-1" value="01fd"/>
    <field name="tcp.checksum" showname="Checksum: 0x234b [unverified]" size="2" pos="50" show="0x0000234b" value="234b"/>
    <field name="tcp.checksum.status" showname="Checksum Status: Unverified" size="0" pos="50" show="2"/>
    <field name="tcp.urgent_pointer" showname="Urgent pointer: 0" size="2" pos="52" show="0" value="0000"/>
    <field name="tcp.options" showname="Options: (12 bytes), No-Operation (NOP), No-Operation (NOP), Timestamps" size="12" pos="54" show="01:01:08:0a:33:21:4b:4c:b0:7f:77:44" value="0101080a33214b4cb07f7744">
      <field name="tcp.options.nop" showname="TCP Option - No-Operation (NOP)" size="1" pos="54" show="01" value="01">
        <field name="tcp.option_kind" showname="Kind: No-Operation (1)" size="1" pos="54" show="1" value="01"/>
      </field>
      <field name="tcp.options.nop" showname="TCP Option - No-Operation (NOP)" size="1" pos="55" show="01" value="01">
        <field name="tcp.option_kind" showname="Kind: No-Operation (1)" size="1" pos="55" show="1" value="01"/>
      </field>
      <field name="tcp.options.timestamp" showname="TCP Option - Timestamps: TSval 857819980, TSecr 2961143620" size="10" pos="56" show="08:0a:33:21:4b:4c:b0:7f:77:44" value="080a33214b4cb07f7744">
        <field name="tcp.option_kind" showname="Kind: Time Stamp Option (8)" size="1" pos="56" show="8" value="08"/>
        <field name="tcp.option_len" showname="Length: 10" size="1" pos="57" show="10" value="0a"/>
        <field name="tcp.options.timestamp.tsval" showname="Timestamp value: 857819980" size="4" pos="58" show="857819980" value="33214b4c"/>
        <field name="tcp.options.timestamp.tsecr" showname="Timestamp echo reply: 2961143620" size="4" pos="62" show="2961143620" value="b07f7744"/>
      </field>
    </field>
    <field name="" show="Timestamps" size="0" pos="34">
      <field name="tcp.time_relative" showname="Time since first frame in this TCP stream: 0.000121609 seconds" size="0" pos="34" show="0.000121609"/>
      <field name="tcp.time_delta" showname="Time since previous frame in this TCP stream: 0.000096225 seconds" size="0" pos="34" show="0.000096225"/>
    </field>
    <field name="tcp.payload" showname="TCP payload (35 bytes)" size="35" pos="66" show="00:00:1a:01:05:00:00:00:03:89:bf:61:96:df:69:7e:94:13:2a:68:1f:a5:04:01:32:a0:83:71:97:6e:32:05:31:68:df" value="00001a01050000000389bf6196df697e94132a681fa5040132a08371976e32053168df"/>
    <field name="tcp.pdu.size" showname="PDU Size: 35" size="35" pos="66" show="35" value="00001a01050000000389bf6196df697e94132a681fa5040132a08371976e32053168df"/>
  </proto>
  <proto name="http2" showname="HyperText Transfer Protocol 2" size="35" pos="66">
    <field name="http2.stream" showname="Stream: HEADERS, Stream ID: 3, Length 26, 204 No Content" size="35" pos="66" show="" value="">
      <field name="http2.length" showname="Length: 26" size="3" pos="66" show="26" value="00001a"/>
      <field name="http2.type" showname="Type: HEADERS (1)" size="1" pos="69" show="1" value="01"/>
      <field name="http2.flags" showname="Flags: 0x05" size="1" pos="70" show="0x00000005" value="05">
        <field name="http2.flags.end_stream" showname=".... ...1 = End Stream: True" size="1" pos="70" show="1" value="1" unmaskedvalue="05"/>
        <field name="http2.flags.eh" showname=".... .1.. = End Headers: True" size="1" pos="70" show="1" value="1" unmaskedvalue="05"/>
        <field name="http2.flags.padded" showname=".... 0... = Padded: False" size="1" pos="70" show="0" value="0" unmaskedvalue="05"/>
        <field name="http2.flags.priority" showname="..0. .... = Priority: False" size="1" pos="70" show="0" value="0" unmaskedvalue="05"/>
        <field name="http2.flags.unused_headers" showname="00.0 ..0. = Unused: 0x00" size="1" pos="70" show="0x00000000" value="0" unmaskedvalue="05"/>
      </field>
      <field name="http2.r" showname="0... .... .... .... .... .... .... .... = Reserved: 0x0" size="4" pos="71" show="0x00000000" value="0" unmaskedvalue="00000003"/>
      <field name="http2.streamid" showname=".000 0000 0000 0000 0000 0000 0000 0011 = Stream Identifier: 3" size="4" pos="71" show="3" value="3" unmaskedvalue="00000003"/>
      <field name="http2.pad_length" showname="Pad Length: 0" size="0" pos="75" show="0"/>
      <field name="http2.headers" showname="Header Block Fragment: 89bf6196df697e94132a681fa5040132a08371976e320531\xe2\x80\xa6" size="26" pos="75" show="89:bf:61:96:df:69:7e:94:13:2a:68:1f:a5:04:01:32:a0:83:71:97:6e:32:05:31:68:df" value="89bf6196df697e94132a681fa5040132a08371976e32053168df"/>
      <field name="http2.header.length" showname="Header Length: 18" size="1" pos="66" show="18" value="00"/>
      <field name="http2.header.count" showname="Header Count: 1" size="1" pos="66" show="1" value="00"/>
      <field name="http2.header" showname="Header: :status: 204 No Content" size="1" pos="75" show="" value="">
        <field name="http2.header.name.length" showname="Name Length: 7" size="4" pos="75" show="7" value="00000007"/>
        <field name="http2.header.name" showname="Name: :status" size="7" pos="79" show=":status" value="3a737461747573"/>
        <field name="http2.header.value.length" showname="Value Length: 3" size="4" pos="86" show="3" value="00000003"/>
        <field name="http2.header.value" showname="Value: 204" size="3" pos="90" show="204" value="323034"/>
        <field name="http2.headers.status" showname=":status: 204" size="3" pos="90" show="204" value="323034"/>
        <field name="http2.header.unescaped" showname="Unescaped: 204" size="3" pos="90" show="204" value="323034"/>
        <field name="http2.header.repr" showname="Representation: Indexed Header Field" size="1" pos="75" show="Indexed Header Field" value="89"/>
        <field name="http2.header.index" showname="Index: 9" size="1" pos="75" show="9" value="89"/>
      </field>
    </field>
  </proto>
</packet>


<packet>
  <proto name="geninfo" pos="0" showname="General information" size="114">
    <field name="num" pos="0" show="17" showname="Number" value="11" size="114"/>
    <field name="len" pos="0" show="114" showname="Frame Length" value="72" size="114"/>
    <field name="caplen" pos="0" show="114" showname="Captured Length" value="72" size="114"/>
    <field name="timestamp" pos="0" show="May 23, 2023 23:37:30.607454906 CEST" showname="Captured Time" value="1684877850.607454906" size="114"/>
  </proto>
  <proto name="frame" showname="Frame 17: 114 bytes on wire (912 bits), 114 bytes captured (912 bits) on interface veth_pcf, id 0" size="114" pos="0">
    <field name="filtered" value="frame" />
  </proto>
  <proto name="eth" showname="Ethernet II, Src: 8a:0b:87:b7:1e:40, Dst: 52:d4:2e:8b:e5:24" size="14" pos="0">
    <field name="filtered" value="eth" />
  </proto>
  <proto name="ip" showname="Internet Protocol Version 4, Src: 10.0.10.1, Dst: 10.0.10.2" size="20" pos="14">
    <field name="filtered" value="ip" />
  </proto>
  <proto name="tcp" showname="Transmission Control Protocol, Src Port: 7777, Dst Port: 41478, Seq: 1345898072, Ack: 3699596930, Len: 48" size="32" pos="34">
    <field name="tcp.srcport" showname="Source Port: 7777" size="2" pos="34" show="7777" value="1e61"/>
    <field name="tcp.dstport" showname="Destination Port: 41478" size="2" pos="36" show="41478" value="a206"/>
    <field name="tcp.port" showname="Source or Destination Port: 7777" hide="yes" size="2" pos="34" show="7777" value="1e61"/>
    <field name="tcp.port" showname="Source or Destination Port: 41478" hide="yes" size="2" pos="36" show="41478" value="a206"/>
    <field name="tcp.stream" showname="Stream index: 1" size="0" pos="34" show="1"/>
    <field name="tcp.len" showname="TCP Segment Len: 48" size="1" pos="46" show="48" value="80"/>
    <field name="tcp.seq" showname="Sequence number: 1345898072" size="4" pos="38" show="1345898072" value="5038c658"/>
    <field name="tcp.seq_raw" showname="Sequence number (raw): 1345898072" hide="yes" size="4" pos="38" show="1345898072" value="5038c658"/>
    <field name="tcp.nxtseq" showname="Next sequence number: 1345898120" size="0" pos="34" show="1345898120"/>
    <field name="tcp.ack" showname="Acknowledgment number: 3699596930" size="4" pos="42" show="3699596930" value="dc835e82"/>
    <field name="tcp.ack_raw" showname="Acknowledgment number (raw): 3699596930" hide="yes" size="4" pos="42" show="3699596930" value="dc835e82"/>
    <field name="tcp.hdr_len" showname="1000 .... = Header Length: 32 bytes (8)" size="1" pos="46" show="32" value="80"/>
    <field name="tcp.flags" showname="Flags: 0x018 (PSH, ACK)" size="2" pos="46" show="0x00000018" value="18" unmaskedvalue="8018">
      <field name="tcp.flags.res" showname="000. .... .... = Reserved: Not set" size="1" pos="46" show="0" value="0" unmaskedvalue="80"/>
      <field name="tcp.flags.ns" showname="...0 .... .... = Nonce: Not set" size="1" pos="46" show="0" value="0" unmaskedvalue="80"/>
      <field name="tcp.flags.cwr" showname=".... 0... .... = Congestion Window Reduced (CWR): Not set" size="1" pos="47" show="0" value="0" unmaskedvalue="18"/>
      <field name="tcp.flags.ecn" showname=".... .0.. .... = ECN-Echo: Not set" size="1" pos="47" show="0" value="0" unmaskedvalue="18"/>
      <field name="tcp.flags.urg" showname=".... ..0. .... = Urgent: Not set" size="1" pos="47" show="0" value="0" unmaskedvalue="18"/>
      <field name="tcp.flags.ack" showname=".... ...1 .... = Acknowledgment: Set" size="1" pos="47" show="1" value="1" unmaskedvalue="18"/>
      <field name="tcp.flags.push" showname=".... .... 1... = Push: Set" size="1" pos="47" show="1" value="1" unmaskedvalue="18"/>
      <field name="tcp.flags.reset" showname=".... .... .0.. = Reset: Not set" size="1" pos="47" show="0" value="0" unmaskedvalue="18"/>
      <field name="tcp.flags.syn" showname=".... .... ..0. = Syn: Not set" size="1" pos="47" show="0" value="0" unmaskedvalue="18"/>
      <field name="tcp.flags.fin" showname=".... .... ...0 = Fin: Not set" size="1" pos="47" show="0" value="0" unmaskedvalue="18"/>
      <field name="tcp.flags.str" showname="TCP Flags: \xc2\xb7\xc2\xb7\xc2\xb7\xc2\xb7\xc2\xb7\xc2\xb7\xc2\xb7AP\xc2\xb7\xc2\xb7\xc2\xb7" size="2" pos="46" show="\xc2\xb7\xc2\xb7\xc2\xb7\xc2\xb7\xc2\xb7\xc2\xb7\xc2\xb7AP\xc2\xb7\xc2\xb7\xc2\xb7" value="8018"/>
    </field>
    <field name="tcp.window_size_value" showname="Window size value: 502" size="2" pos="48" show="502" value="01f6"/>
    <field name="tcp.window_size" showname="Calculated window size: 64256" size="2" pos="48" show="64256" value="01f6"/>
    <field name="tcp.window_size_scalefactor" showname="Window size scaling factor: 128" size="2" pos="48" show="128" value="01f6"/>
    <field name="tcp.checksum" showname="Checksum: 0x2859 [unverified]" size="2" pos="50" show="0x00002859" value="2859"/>
    <field name="tcp.checksum.status" showname="Checksum Status: Unverified" size="0" pos="50" show="2"/>
    <field name="tcp.urgent_pointer" showname="Urgent pointer: 0" size="2" pos="52" show="0" value="0000"/>
    <field name="tcp.options" showname="Options: (12 bytes), No-Operation (NOP), No-Operation (NOP), Timestamps" size="12" pos="54" show="01:01:08:0a:4a:0c:b9:ff:66:91:d4:bb" value="0101080a4a0cb9ff6691d4bb">
      <field name="tcp.options.nop" showname="TCP Option - No-Operation (NOP)" size="1" pos="54" show="01" value="01">
        <field name="tcp.option_kind" showname="Kind: No-Operation (1)" size="1" pos="54" show="1" value="01"/>
      </field>
      <field name="tcp.options.nop" showname="TCP Option - No-Operation (NOP)" size="1" pos="55" show="01" value="01">
        <field name="tcp.option_kind" showname="Kind: No-Operation (1)" size="1" pos="55" show="1" value="01"/>
      </field>
      <field name="tcp.options.timestamp" showname="TCP Option - Timestamps: TSval 1242348031, TSecr 1720833211" size="10" pos="56" show="08:0a:4a:0c:b9:ff:66:91:d4:bb" value="080a4a0cb9ff6691d4bb">
        <field name="tcp.option_kind" showname="Kind: Time Stamp Option (8)" size="1" pos="56" show="8" value="08"/>
        <field name="tcp.option_len" showname="Length: 10" size="1" pos="57" show="10" value="0a"/>
        <field name="tcp.options.timestamp.tsval" showname="Timestamp value: 1242348031" size="4" pos="58" show="1242348031" value="4a0cb9ff"/>
        <field name="tcp.options.timestamp.tsecr" showname="Timestamp echo reply: 1720833211" size="4" pos="62" show="1720833211" value="6691d4bb"/>
      </field>
    </field>
    <field name="" show="Timestamps" size="0" pos="34">
      <field name="tcp.time_relative" showname="Time since first frame in this TCP stream: 0.000782019 seconds" size="0" pos="34" show="0.000782019"/>
      <field name="tcp.time_delta" showname="Time since previous frame in this TCP stream: 0.000014954 seconds" size="0" pos="34" show="0.000014954"/>
    </field>
    <field name="tcp.payload" showname="TCP payload (48 bytes)" size="48" pos="66" show="00:00:27:01:05:00:00:00:0d:89:76:8c:d5:59:6a:6f:16:e5:3b:89:76:97:08:3f:61:96:df:69:7e:94:13:2a:68:1f:a5:04:01:32:a0:83:71:97:6e:32:05:31:68:df" value="00002701050000000d89768cd5596a6f16e53b897697083f6196df697e94132a681fa5040132a08371976e32053168df"/>
    <field name="tcp.pdu.size" showname="PDU Size: 48" size="48" pos="66" show="48" value="00002701050000000d89768cd5596a6f16e53b897697083f6196df697e94132a681fa5040132a08371976e32053168df"/>
  </proto>
  <proto name="http2" showname="HyperText Transfer Protocol 2" size="48" pos="66">
    <field name="http2.stream" showname="Stream: HEADERS, Stream ID: 13, Length 39, 204 No Content" size="48" pos="66" show="" value="">
      <field name="http2.length" showname="Length: 39" size="3" pos="66" show="39" value="000027"/>
      <field name="http2.type" showname="Type: HEADERS (1)" size="1" pos="69" show="1" value="01"/>
      <field name="http2.flags" showname="Flags: 0x05" size="1" pos="70" show="0x00000005" value="05">
        <field name="http2.flags.end_stream" showname=".... ...1 = End Stream: True" size="1" pos="70" show="1" value="1" unmaskedvalue="05"/>
        <field name="http2.flags.eh" showname=".... .1.. = End Headers: True" size="1" pos="70" show="1" value="1" unmaskedvalue="05"/>
        <field name="http2.flags.padded" showname=".... 0... = Padded: False" size="1" pos="70" show="0" value="0" unmaskedvalue="05"/>
        <field name="http2.flags.priority" showname="..0. .... = Priority: False" size="1" pos="70" show="0" value="0" unmaskedvalue="05"/>
        <field name="http2.flags.unused_headers" showname="00.0 ..0. = Unused: 0x00" size="1" pos="70" show="0x00000000" value="0" unmaskedvalue="05"/>
      </field>
      <field name="http2.r" showname="0... .... .... .... .... .... .... .... = Reserved: 0x0" size="4" pos="71" show="0x00000000" value="0" unmaskedvalue="0000000d"/>
      <field name="http2.streamid" showname=".000 0000 0000 0000 0000 0000 0000 1101 = Stream Identifier: 13" size="4" pos="71" show="13" value="D" unmaskedvalue="0000000d"/>
      <field name="http2.pad_length" showname="Pad Length: 0" size="0" pos="75" show="0"/>
      <field name="http2.headers" showname="Header Block Fragment: 89768cd5596a6f16e53b897697083f6196df697e94132a68\xe2\x80\xa6" size="39" pos="75" show="89:76:8c:d5:59:6a:6f:16:e5:3b:89:76:97:08:3f:61:96:df:69:7e:94:13:2a:68:1f:a5:04:01:32:a0:83:71:97:6e:32:05:31:68:df" value="89768cd5596a6f16e53b897697083f6196df697e94132a681fa5040132a08371976e32053168df"/>
      <field name="http2.header.length" showname="Header Length: 88" size="1" pos="66" show="88" value="00"/>
      <field name="http2.header.count" showname="Header Count: 3" size="1" pos="66" show="3" value="00"/>
      <field name="http2.header" showname="Header: :status: 204 No Content" size="1" pos="75" show="" value="">
        <field name="http2.header.name.length" showname="Name Length: 7" size="4" pos="75" show="7" value="00000007"/>
        <field name="http2.header.name" showname="Name: :status" size="7" pos="79" show=":status" value="3a737461747573"/>
        <field name="http2.header.value.length" showname="Value Length: 3" size="4" pos="86" show="3" value="00000003"/>
        <field name="http2.header.value" showname="Value: 204" size="3" pos="90" show="204" value="323034"/>
        <field name="http2.headers.status" showname=":status: 204" size="3" pos="90" show="204" value="323034"/>
        <field name="http2.header.unescaped" showname="Unescaped: 204" size="3" pos="90" show="204" value="323034"/>
        <field name="http2.header.repr" showname="Representation: Indexed Header Field" size="1" pos="75" show="Indexed Header Field" value="89"/>
        <field name="http2.header.index" showname="Index: 9" size="1" pos="75" show="9" value="89"/>
      </field>
      <field name="http2.header" showname="Header: server: Open5GS v2.4.10" size="14" pos="76" show="" value="">
        <field name="http2.header.name.length" showname="Name Length: 6" size="4" pos="94" show="6" value="00000006"/>
        <field name="http2.header.name" showname="Name: server" size="6" pos="98" show="server" value="736572766572"/>
        <field name="http2.header.value.length" showname="Value Length: 15" size="4" pos="104" show="15" value="0000000f"/>
        <field name="http2.header.value" showname="Value: Open5GS v2.4.10" size="15" pos="108" show="Open5GS v2.4.10" value="4f70656e3547532076322e342e3130"/>
        <field name="http2.headers.server" showname="server: Open5GS v2.4.10" size="15" pos="108" show="Open5GS v2.4.10" value="4f70656e3547532076322e342e3130"/>
        <field name="http2.header.unescaped" showname="Unescaped: Open5GS v2.4.10" size="15" pos="108" show="Open5GS v2.4.10" value="4f70656e3547532076322e342e3130"/>
        <field name="http2.header.repr" showname="Representation: Literal Header Field with Incremental Indexing - Indexed Name" size="1" pos="76" show="Literal Header Field with Incremental Indexing - Indexed Name" value="76"/>
        <field name="http2.header.index" showname="Index: 54" size="1" pos="76" show="54" value="76"/>
      </field>
      <field name="http2.header" showname="Header: date: Tue, 23 May 2023 21:37:30 GMT" size="24" pos="90" show="" value="">
        <field name="http2.header.name.length" showname="Name Length: 4" size="4" pos="137" show="4" value="00000004"/>
        <field name="http2.header.name" showname="Name: date" size="4" pos="141" show="date" value="64617465"/>
        <field name="http2.header.value.length" showname="Value Length: 29" size="4" pos="145" show="29" value="0000001d"/>
        <field name="http2.header.value" showname="Value: Tue, 23 May 2023 21:37:30 GMT" size="29" pos="149" show="Tue, 23 May 2023 21:37:30 GMT" value="5475652c203233204d617920323032332032313a33373a333020474d54"/>
        <field name="http2.headers.date" showname="date: Tue, 23 May 2023 21:37:30 GMT" size="29" pos="149" show="Tue, 23 May 2023 21:37:30 GMT" value="5475652c203233204d617920323032332032313a33373a333020474d54"/>
        <field name="http2.header.unescaped" showname="Unescaped: Tue, 23 May 2023 21:37:30 GMT" size="29" pos="149" show="Tue, 23 May 2023 21:37:30 GMT" value="5475652c203233204d617920323032332032313a33373a333020474d54"/>
        <field name="http2.header.repr" showname="Representation: Literal Header Field with Incremental Indexing - Indexed Name" size="1" pos="90" show="Literal Header Field with Incremental Indexing - Indexed Name" value="61"/>
        <field name="http2.header.index" showname="Index: 33" size="1" pos="90" show="33" value="61"/>
      </field>
    </field>
  </proto>
</packet>


</pdml>
