<?xml version="1.0" encoding="utf-8"?>
<?xml-stylesheet type="text/xsl" href="pdml2html.xsl"?>
<!-- You can find pdml2html.xsl in /usr/share/wireshark or at https://code.wireshark.org/review/gitweb?p=wireshark.git;a=blob_plain;f=pdml2html.xsl. -->
<pdml version="0" creator="wireshark/3.2.3" time="Wed May 24 00:03:14 2023" capture_file="/home/lily/5G/PCAPS/Core/post_ue.pcapng">
<packet>
  <proto name="geninfo" pos="0" showname="General information" size="403">
    <field name="num" pos="0" show="6" showname="Number" value="6" size="403"/>
    <field name="len" pos="0" show="403" showname="Frame Length" value="193" size="403"/>
    <field name="caplen" pos="0" show="403" showname="Captured Length" value="193" size="403"/>
    <field name="timestamp" pos="0" show="May 23, 2023 23:58:43.851477692 CEST" showname="Captured Time" value="1684879123.851477692" size="403"/>
  </proto>
  <proto name="frame" showname="Frame 6: 403 bytes on wire (3224 bits), 403 bytes captured (3224 bits) on interface veth_ausf, id 0" size="403" pos="0">
    <field name="filtered" value="frame" />
  </proto>
  <proto name="eth" showname="Ethernet II, Src: fe:f2:39:7d:56:21, Dst: ea:77:ac:4e:9a:ef" size="14" pos="0">
    <field name="filtered" value="eth" />
  </proto>
  <proto name="ip" showname="Internet Protocol Version 4, Src: 10.0.4.2, Dst: 10.0.4.1" size="20" pos="14">
    <field name="filtered" value="ip" />
  </proto>
  <proto name="tcp" showname="Transmission Control Protocol, Src Port: 38758, Dst Port: 7777, Seq: 1222043682, Ack: 2500380177, Len: 337" size="32" pos="34">
    <field name="tcp.srcport" showname="Source Port: 38758" size="2" pos="34" show="38758" value="9766"/>
    <field name="tcp.dstport" showname="Destination Port: 7777" size="2" pos="36" show="7777" value="1e61"/>
    <field name="tcp.port" showname="Source or Destination Port: 38758" hide="yes" size="2" pos="34" show="38758" value="9766"/>
    <field name="tcp.port" showname="Source or Destination Port: 7777" hide="yes" size="2" pos="36" show="7777" value="1e61"/>
    <field name="tcp.stream" showname="Stream index: 0" size="0" pos="34" show="0"/>
    <field name="tcp.len" showname="TCP Segment Len: 337" size="1" pos="46" show="337" value="80"/>
    <field name="tcp.seq" showname="Sequence number: 1222043682" size="4" pos="38" show="1222043682" value="48d6e822"/>
    <field name="tcp.seq_raw" showname="Sequence number (raw): 1222043682" hide="yes" size="4" pos="38" show="1222043682" value="48d6e822"/>
    <field name="tcp.nxtseq" showname="Next sequence number: 1222044019" size="0" pos="34" show="1222044019"/>
    <field name="tcp.ack" showname="Acknowledgment number: 2500380177" size="4" pos="42" show="2500380177" value="9508c611"/>
    <field name="tcp.ack_raw" showname="Acknowledgment number (raw): 2500380177" hide="yes" size="4" pos="42" show="2500380177" value="9508c611"/>
    <field name="tcp.hdr_len" showname="1000 .... = Header Length: 32 bytes (8)" size="1" pos="46" show="32" value="80"/>
    <field name="tcp.flags" showname="Flags: 0x018 (PSH, ACK)" size="2" pos="46" show="0x00000018" value="18" unmaskedvalue="8018">
      <field name="tcp.flags.res" showname="000. .... .... = Reserved: Not set" size="1" pos="46" show="0" value="0" unmaskedvalue="80"/>
      <field name="tcp.flags.ns" showname="...0 .... .... = Nonce: Not set" size="1" pos="46" show="0" value="0" unmaskedvalue="80"/>
      <field name="tcp.flags.cwr" showname=".... 0... .... = Congestion Window Reduced (CWR): Not set" size="1" pos="47" show="0" value="0" unmaskedvalue="18"/>
      <field name="tcp.flags.ecn" showname=".... .0.. .... = ECN-Echo: Not set" size="1" pos="47" show="0" value="0" unmaskedvalue="18"/>
      <field name="tcp.flags.urg" showname=".... ..0. .... = Urgent: Not set" size="1" pos="47" show="0" value="0" unmaskedvalue="18"/>
      <field name="tcp.flags.ack" showname=".... ...1 .... = Acknowledgment: Set" size="1" pos="47" show="1" value="1" unmaskedvalue="18"/>
      <field name="tcp.flags.push" showname=".... .... 1... = Push: Set" size="1" pos="47" show="1" value="1" unmaskedvalue="18"/>
      <field name="tcp.flags.reset" showname=".... .... .0.. = Reset: Not set" size="1" pos="47" show="0" value="0" unmaskedvalue="18"/>
      <field name="tcp.flags.syn" showname=".... .... ..0. = Syn: Not set" size="1" pos="47" show="0" value="0" unmaskedvalue="18"/>
      <field name="tcp.flags.fin" showname=".... .... ...0 = Fin: Not set" size="1" pos="47" show="0" value="0" unmaskedvalue="18"/>
      <field name="tcp.flags.str" showname="TCP Flags: \xc2\xb7\xc2\xb7\xc2\xb7\xc2\xb7\xc2\xb7\xc2\xb7\xc2\xb7AP\xc2\xb7\xc2\xb7\xc2\xb7" size="2" pos="46" show="\xc2\xb7\xc2\xb7\xc2\xb7\xc2\xb7\xc2\xb7\xc2\xb7\xc2\xb7AP\xc2\xb7\xc2\xb7\xc2\xb7" value="8018"/>
    </field>
    <field name="tcp.window_size_value" showname="Window size value: 502" size="2" pos="48" show="502" value="01f6"/>
    <field name="tcp.window_size" showname="Calculated window size: 64256" size="2" pos="48" show="64256" value="01f6"/>
    <field name="tcp.window_size_scalefactor" showname="Window size scaling factor: 128" size="2" pos="48" show="128" value="01f6"/>
    <field name="tcp.checksum" showname="Checksum: 0x1d7a [unverified]" size="2" pos="50" show="0x00001d7a" value="1d7a"/>
    <field name="tcp.checksum.status" showname="Checksum Status: Unverified" size="0" pos="50" show="2"/>
    <field name="tcp.urgent_pointer" showname="Urgent pointer: 0" size="2" pos="52" show="0" value="0000"/>
    <field name="tcp.options" showname="Options: (12 bytes), No-Operation (NOP), No-Operation (NOP), Timestamps" size="12" pos="54" show="01:01:08:0a:4c:29:9c:b8:3f:e5:5b:56" value="0101080a4c299cb83fe55b56">
      <field name="tcp.options.nop" showname="TCP Option - No-Operation (NOP)" size="1" pos="54" show="01" value="01">
        <field name="tcp.option_kind" showname="Kind: No-Operation (1)" size="1" pos="54" show="1" value="01"/>
      </field>
      <field name="tcp.options.nop" showname="TCP Option - No-Operation (NOP)" size="1" pos="55" show="01" value="01">
        <field name="tcp.option_kind" showname="Kind: No-Operation (1)" size="1" pos="55" show="1" value="01"/>
      </field>
      <field name="tcp.options.timestamp" showname="TCP Option - Timestamps: TSval 1277795512, TSecr 1071995734" size="10" pos="56" show="08:0a:4c:29:9c:b8:3f:e5:5b:56" value="080a4c299cb83fe55b56">
        <field name="tcp.option_kind" showname="Kind: Time Stamp Option (8)" size="1" pos="56" show="8" value="08"/>
        <field name="tcp.option_len" showname="Length: 10" size="1" pos="57" show="10" value="0a"/>
        <field name="tcp.options.timestamp.tsval" showname="Timestamp value: 1277795512" size="4" pos="58" show="1277795512" value="4c299cb8"/>
        <field name="tcp.options.timestamp.tsecr" showname="Timestamp echo reply: 1071995734" size="4" pos="62" show="1071995734" value="3fe55b56"/>
      </field>
    </field>
    <field name="" show="Timestamps" size="0" pos="34">
      <field name="tcp.time_relative" showname="Time since first frame in this TCP stream: 0.014637903 seconds" size="0" pos="34" show="0.014637903"/>
      <field name="tcp.time_delta" showname="Time since previous frame in this TCP stream: 0.000359020 seconds" size="0" pos="34" show="0.000359020"/>
    </field>
    <field name="tcp.payload" showname="TCP payload (337 bytes)" size="337" pos="66" show="50:52:49:20:2a:20:48:54:54:50:2f:32:2e:30:0d:0a:0d:0a:53:4d:0d:0a:0d:0a:00:00:0c:04:00:00:00:00:00:00:03:00:00:00:64:00:04:00:00:ff:ff:00:00:00:04:01:00:00:00:00:00:00:05:02:00:00:00:00:03:00:00:00:00:c8:00:00:05:02:00:00:00:00:05:00:00:00:00:64:00:00:05:02:00:00:00:00:07:00:00:00:00:00:00:00:05:02:00:00:00:00:09:00:00:00:07:00:00:00:05:02:00:00:00:00:0b:00:00:00:03:00:00:00:50:01:24:00:00:00:0d:00:00:00:0b:0f:83:04:97:62:a1:da:89:56:1d:a9:9d:8e:e1:62:d2:ac:3b:53:39:6a:49:88:34:98:f5:23:86:41:8a:08:17:02:ed:2e:1b:8e:ba:eb:bf:53:03:2a:2f:2a:90:7a:8a:aa:69:d2:9a:c4:c0:57:68:0b:83:0f:0d:82:08:5b:5f:8b:1d:75:d0:62:0d:26:3d:4c:74:41:ea:00:00:73:00:01:00:00:00:0d:7b:0a:09:22:73:75:70:69:4f:72:53:75:63:69:22:3a:09:22:73:75:63:69:2d:30:2d:39:30:31:2d:37:30:2d:30:30:30:30:2d:30:2d:30:2d:30:30:30:30:30:30:30:31:32:33:34:22:2c:0a:09:22:73:65:72:76:69:6e:67:4e:65:74:77:6f:72:6b:4e:61:6d:65:22:3a:09:22:35:47:3a:6d:6e:63:30:37:30:2e:6d:63:63:39:30:31:2e:33:67:70:70:6e:65:74:77:6f:72:6b:2e:6f:72:67:22:0a:7d:0a" value="505249202a20485454502f322e300d0a0d0a534d0d0a0d0a00000c04000000000000030000006400040000ffff00000004010000000000000502000000000300000000c800000502000000000500000000640000050200000000070000000000000005020000000009000000070000000502000000000b000000030000005001240000000d0000000b0f83049762a1da89561da99d8ee162d2ac3b53396a49883498f52386418a081702ed2e1b8ebaebbf53032a2f2a907a8aaa69d29ac4c057680b830f0d82085b5f8b1d75d0620d263d4c7441ea00007300010000000d7b0a0922737570694f7253756369223a0922737563692d302d3930312d37302d303030302d302d302d3030303030303031323334222c0a092273657276696e674e6574776f726b4e616d65223a092235473a6d6e633037302e6d63633930312e336770706e6574776f726b2e6f7267220a7d0a"/>
    <field name="tcp.pdu.size" showname="PDU Size: 24" size="24" pos="66" show="24" value="505249202a20485454502f322e300d0a0d0a534d0d0a0d0a"/>
    <field name="tcp.pdu.size" showname="PDU Size: 21" size="21" pos="90" show="21" value="00000c04000000000000030000006400040000ffff"/>
    <field name="tcp.pdu.size" showname="PDU Size: 9" size="9" pos="111" show="9" value="000000040100000000"/>
    <field name="tcp.pdu.size" showname="PDU Size: 14" size="14" pos="120" show="14" value="00000502000000000300000000c8"/>
    <field name="tcp.pdu.size" showname="PDU Size: 14" size="14" pos="134" show="14" value="0000050200000000050000000064"/>
    <field name="tcp.pdu.size" showname="PDU Size: 14" size="14" pos="148" show="14" value="0000050200000000070000000000"/>
    <field name="tcp.pdu.size" showname="PDU Size: 14" size="14" pos="162" show="14" value="0000050200000000090000000700"/>
    <field name="tcp.pdu.size" showname="PDU Size: 14" size="14" pos="176" show="14" value="00000502000000000b0000000300"/>
    <field name="tcp.pdu.size" showname="PDU Size: 89" size="89" pos="190" show="89" value="00005001240000000d0000000b0f83049762a1da89561da99d8ee162d2ac3b53396a49883498f52386418a081702ed2e1b8ebaebbf53032a2f2a907a8aaa69d29ac4c057680b830f0d82085b5f8b1d75d0620d263d4c7441ea"/>
    <field name="tcp.pdu.size" showname="PDU Size: 124" size="124" pos="279" show="124" value="00007300010000000d7b0a0922737570694f7253756369223a0922737563692d302d3930312d37302d303030302d302d302d3030303030303031323334222c0a092273657276696e674e6574776f726b4e616d65223a092235473a6d6e633037302e6d63633930312e336770706e6574776f726b2e6f7267220a7d0a"/>
  </proto>
  <proto name="http2" showname="HyperText Transfer Protocol 2" size="337" pos="66">
    <field name="http2.stream" showname="Stream: Magic" size="24" pos="66" show="" value="">
      <field name="http2.magic" showname="Magic: PRI * HTTP/2.0\r\n\r\nSM\r\n\r\n" size="24" pos="66" show="PRI * HTTP/2.0\xd\xa\xd\xaSM\xd\xa\xd\xa" value="505249202a20485454502f322e300d0a0d0a534d0d0a0d0a"/>
    </field>
    <field name="http2.stream" showname="Stream: SETTINGS, Stream ID: 0, Length 12" size="21" pos="90" show="" value="">
      <field name="http2.length" showname="Length: 12" size="3" pos="90" show="12" value="00000c"/>
      <field name="http2.type" showname="Type: SETTINGS (4)" size="1" pos="93" show="4" value="04"/>
      <field name="http2.flags" showname="Flags: 0x00" size="1" pos="94" show="0x00000000" value="00">
        <field name="http2.flags.ack.settings" showname=".... ...0 = ACK: False" size="1" pos="94" show="0" value="0" unmaskedvalue="00"/>
        <field name="http2.flags.unused_settings" showname="0000 000. = Unused: 0x00" size="1" pos="94" show="0x00000000" value="0" unmaskedvalue="00"/>
      </field>
      <field name="http2.r" showname="0... .... .... .... .... .... .... .... = Reserved: 0x0" size="4" pos="95" show="0x00000000" value="0" unmaskedvalue="00000000"/>
      <field name="http2.streamid" showname=".000 0000 0000 0000 0000 0000 0000 0000 = Stream Identifier: 0" size="4" pos="95" show="0" value="0" unmaskedvalue="00000000"/>
      <field name="http2.settings" showname="Settings - Max concurrent streams : 100" size="6" pos="99" show="" value="">
        <field name="http2.settings.id" showname="Settings Identifier: Max concurrent streams (3)" size="2" pos="99" show="3" value="0003"/>
        <field name="http2.settings.max_concurrent_streams" showname="Max concurrent streams: 100" size="4" pos="101" show="100" value="00000064"/>
      </field>
      <field name="http2.settings" showname="Settings - Initial Windows size : 65535" size="6" pos="105" show="" value="">
        <field name="http2.settings.id" showname="Settings Identifier: Initial Windows size (4)" size="2" pos="105" show="4" value="0004"/>
        <field name="http2.settings.initial_window_size" showname="Initial Windows Size: 65535" size="4" pos="107" show="65535" value="0000ffff"/>
      </field>
    </field>
    <field name="http2.stream" showname="Stream: SETTINGS, Stream ID: 0, Length 0" size="9" pos="111" show="" value="">
      <field name="http2.length" showname="Length: 0" size="3" pos="111" show="0" value="000000"/>
      <field name="http2.type" showname="Type: SETTINGS (4)" size="1" pos="114" show="4" value="04"/>
      <field name="http2.flags" showname="Flags: 0x01" size="1" pos="115" show="0x00000001" value="01">
        <field name="http2.flags.ack.settings" showname=".... ...1 = ACK: True" size="1" pos="115" show="1" value="1" unmaskedvalue="01"/>
        <field name="http2.flags.unused_settings" showname="0000 000. = Unused: 0x00" size="1" pos="115" show="0x00000000" value="0" unmaskedvalue="01"/>
      </field>
      <field name="http2.r" showname="0... .... .... .... .... .... .... .... = Reserved: 0x0" size="4" pos="116" show="0x00000000" value="0" unmaskedvalue="00000000"/>
      <field name="http2.streamid" showname=".000 0000 0000 0000 0000 0000 0000 0000 = Stream Identifier: 0" size="4" pos="116" show="0" value="0" unmaskedvalue="00000000"/>
    </field>
    <field name="http2.stream" showname="Stream: PRIORITY, Stream ID: 3, Length 5" size="14" pos="120" show="" value="">
      <field name="http2.length" showname="Length: 5" size="3" pos="120" show="5" value="000005"/>
      <field name="http2.type" showname="Type: PRIORITY (2)" size="1" pos="123" show="2" value="02"/>
      <field name="http2.flags" showname="Flags: 0x00" size="1" pos="124" show="0x00000000" value="00">
        <field name="http2.flags.unused" showname="0000 0000 = Unused: 0x00" size="1" pos="124" show="0x00000000" value="0" unmaskedvalue="00"/>
      </field>
      <field name="http2.r" showname="0... .... .... .... .... .... .... .... = Reserved: 0x0" size="4" pos="125" show="0x00000000" value="0" unmaskedvalue="00000003"/>
      <field name="http2.streamid" showname=".000 0000 0000 0000 0000 0000 0000 0011 = Stream Identifier: 3" size="4" pos="125" show="3" value="3" unmaskedvalue="00000003"/>
      <field name="http2.exclusive" showname="0... .... .... .... .... .... .... .... = Exclusive: False" size="4" pos="129" show="0" value="0" unmaskedvalue="00000000"/>
      <field name="http2.stream_dependency" showname=".000 0000 0000 0000 0000 0000 0000 0000 = Stream Dependency: 0" size="4" pos="129" show="0" value="0" unmaskedvalue="00000000"/>
      <field name="http2.headers.weight" showname="Weight: 200" size="1" pos="133" show="200" value="c8"/>
      <field name="http2.headers.weight_real" showname="Weight real: 201" size="1" pos="133" show="201" value="c8"/>
    </field>
    <field name="http2.stream" showname="Stream: PRIORITY, Stream ID: 5, Length 5" size="14" pos="134" show="" value="">
      <field name="http2.length" showname="Length: 5" size="3" pos="134" show="5" value="000005"/>
      <field name="http2.type" showname="Type: PRIORITY (2)" size="1" pos="137" show="2" value="02"/>
      <field name="http2.flags" showname="Flags: 0x00" size="1" pos="138" show="0x00000000" value="00">
        <field name="http2.flags.unused" showname="0000 0000 = Unused: 0x00" size="1" pos="138" show="0x00000000" value="0" unmaskedvalue="00"/>
      </field>
      <field name="http2.r" showname="0... .... .... .... .... .... .... .... = Reserved: 0x0" size="4" pos="139" show="0x00000000" value="0" unmaskedvalue="00000005"/>
      <field name="http2.streamid" showname=".000 0000 0000 0000 0000 0000 0000 0101 = Stream Identifier: 5" size="4" pos="139" show="5" value="5" unmaskedvalue="00000005"/>
      <field name="http2.exclusive" showname="0... .... .... .... .... .... .... .... = Exclusive: False" size="4" pos="143" show="0" value="0" unmaskedvalue="00000000"/>
      <field name="http2.stream_dependency" showname=".000 0000 0000 0000 0000 0000 0000 0000 = Stream Dependency: 0" size="4" pos="143" show="0" value="0" unmaskedvalue="00000000"/>
      <field name="http2.headers.weight" showname="Weight: 100" size="1" pos="147" show="100" value="64"/>
      <field name="http2.headers.weight_real" showname="Weight real: 101" size="1" pos="147" show="101" value="64"/>
    </field>
    <field name="http2.stream" showname="Stream: PRIORITY, Stream ID: 7, Length 5" size="14" pos="148" show="" value="">
      <field name="http2.length" showname="Length: 5" size="3" pos="148" show="5" value="000005"/>
      <field name="http2.type" showname="Type: PRIORITY (2)" size="1" pos="151" show="2" value="02"/>
      <field name="http2.flags" showname="Flags: 0x00" size="1" pos="152" show="0x00000000" value="00">
        <field name="http2.flags.unused" showname="0000 0000 = Unused: 0x00" size="1" pos="152" show="0x00000000" value="0" unmaskedvalue="00"/>
      </field>
      <field name="http2.r" showname="0... .... .... .... .... .... .... .... = Reserved: 0x0" size="4" pos="153" show="0x00000000" value="0" unmaskedvalue="00000007"/>
      <field name="http2.streamid" showname=".000 0000 0000 0000 0000 0000 0000 0111 = Stream Identifier: 7" size="4" pos="153" show="7" value="7" unmaskedvalue="00000007"/>
      <field name="http2.exclusive" showname="0... .... .... .... .... .... .... .... = Exclusive: False" size="4" pos="157" show="0" value="0" unmaskedvalue="00000000"/>
      <field name="http2.stream_dependency" showname=".000 0000 0000 0000 0000 0000 0000 0000 = Stream Dependency: 0" size="4" pos="157" show="0" value="0" unmaskedvalue="00000000"/>
      <field name="http2.headers.weight" showname="Weight: 0" size="1" pos="161" show="0" value="00"/>
      <field name="http2.headers.weight_real" showname="Weight real: 1" size="1" pos="161" show="1" value="00"/>
    </field>
    <field name="http2.stream" showname="Stream: PRIORITY, Stream ID: 9, Length 5" size="14" pos="162" show="" value="">
      <field name="http2.length" showname="Length: 5" size="3" pos="162" show="5" value="000005"/>
      <field name="http2.type" showname="Type: PRIORITY (2)" size="1" pos="165" show="2" value="02"/>
      <field name="http2.flags" showname="Flags: 0x00" size="1" pos="166" show="0x00000000" value="00">
        <field name="http2.flags.unused" showname="0000 0000 = Unused: 0x00" size="1" pos="166" show="0x00000000" value="0" unmaskedvalue="00"/>
      </field>
      <field name="http2.r" showname="0... .... .... .... .... .... .... .... = Reserved: 0x0" size="4" pos="167" show="0x00000000" value="0" unmaskedvalue="00000009"/>
      <field name="http2.streamid" showname=".000 0000 0000 0000 0000 0000 0000 1001 = Stream Identifier: 9" size="4" pos="167" show="9" value="9" unmaskedvalue="00000009"/>
      <field name="http2.exclusive" showname="0... .... .... .... .... .... .... .... = Exclusive: False" size="4" pos="171" show="0" value="0" unmaskedvalue="00000007"/>
      <field name="http2.stream_dependency" showname=".000 0000 0000 0000 0000 0000 0000 0111 = Stream Dependency: 7" size="4" pos="171" show="7" value="7" unmaskedvalue="00000007"/>
      <field name="http2.headers.weight" showname="Weight: 0" size="1" pos="175" show="0" value="00"/>
      <field name="http2.headers.weight_real" showname="Weight real: 1" size="1" pos="175" show="1" value="00"/>
    </field>
    <field name="http2.stream" showname="Stream: PRIORITY, Stream ID: 11, Length 5" size="14" pos="176" show="" value="">
      <field name="http2.length" showname="Length: 5" size="3" pos="176" show="5" value="000005"/>
      <field name="http2.type" showname="Type: PRIORITY (2)" size="1" pos="179" show="2" value="02"/>
      <field name="http2.flags" showname="Flags: 0x00" size="1" pos="180" show="0x00000000" value="00">
        <field name="http2.flags.unused" showname="0000 0000 = Unused: 0x00" size="1" pos="180" show="0x00000000" value="0" unmaskedvalue="00"/>
      </field>
      <field name="http2.r" showname="0... .... .... .... .... .... .... .... = Reserved: 0x0" size="4" pos="181" show="0x00000000" value="0" unmaskedvalue="0000000b"/>
      <field name="http2.streamid" showname=".000 0000 0000 0000 0000 0000 0000 1011 = Stream Identifier: 11" size="4" pos="181" show="11" value="B" unmaskedvalue="0000000b"/>
      <field name="http2.exclusive" showname="0... .... .... .... .... .... .... .... = Exclusive: False" size="4" pos="185" show="0" value="0" unmaskedvalue="00000003"/>
      <field name="http2.stream_dependency" showname=".000 0000 0000 0000 0000 0000 0000 0011 = Stream Dependency: 3" size="4" pos="185" show="3" value="3" unmaskedvalue="00000003"/>
      <field name="http2.headers.weight" showname="Weight: 0" size="1" pos="189" show="0" value="00"/>
      <field name="http2.headers.weight_real" showname="Weight real: 1" size="1" pos="189" show="1" value="00"/>
    </field>
    <field name="http2.stream" showname="Stream: HEADERS, Stream ID: 13, Length 80, POST /nausf-auth/v1/ue-authentications" size="89" pos="190" show="" value="">
      <field name="http2.length" showname="Length: 80" size="3" pos="190" show="80" value="000050"/>
      <field name="http2.type" showname="Type: HEADERS (1)" size="1" pos="193" show="1" value="01"/>
      <field name="http2.flags" showname="Flags: 0x24" size="1" pos="194" show="0x00000024" value="24">
        <field name="http2.flags.end_stream" showname=".... ...0 = End Stream: False" size="1" pos="194" show="0" value="0" unmaskedvalue="24"/>
        <field name="http2.flags.eh" showname=".... .1.. = End Headers: True" size="1" pos="194" show="1" value="1" unmaskedvalue="24"/>
        <field name="http2.flags.padded" showname=".... 0... = Padded: False" size="1" pos="194" show="0" value="0" unmaskedvalue="24"/>
        <field name="http2.flags.priority" showname="..1. .... = Priority: True" size="1" pos="194" show="1" value="1" unmaskedvalue="24"/>
        <field name="http2.flags.unused_headers" showname="00.0 ..0. = Unused: 0x00" size="1" pos="194" show="0x00000000" value="0" unmaskedvalue="24"/>
      </field>
      <field name="http2.r" showname="0... .... .... .... .... .... .... .... = Reserved: 0x0" size="4" pos="195" show="0x00000000" value="0" unmaskedvalue="0000000d"/>
      <field name="http2.streamid" showname=".000 0000 0000 0000 0000 0000 0000 1101 = Stream Identifier: 13" size="4" pos="195" show="13" value="D" unmaskedvalue="0000000d"/>
      <field name="http2.pad_length" showname="Pad Length: 0" size="0" pos="199" show="0"/>
      <field name="http2.exclusive" showname="0... .... .... .... .... .... .... .... = Exclusive: False" size="4" pos="199" show="0" value="0" unmaskedvalue="0000000b"/>
      <field name="http2.stream_dependency" showname=".000 0000 0000 0000 0000 0000 0000 1011 = Stream Dependency: 11" size="4" pos="199" show="11" value="B" unmaskedvalue="0000000b"/>
      <field name="http2.headers.weight" showname="Weight: 15" size="1" pos="203" show="15" value="0f"/>
      <field name="http2.headers.weight_real" showname="Weight real: 16" size="1" pos="203" show="16" value="0f"/>
      <field name="http2.headers" showname="Header Block Fragment: 83049762a1da89561da99d8ee162d2ac3b53396a49883498\xe2\x80\xa6" size="75" pos="204" show="83:04:97:62:a1:da:89:56:1d:a9:9d:8e:e1:62:d2:ac:3b:53:39:6a:49:88:34:98:f5:23:86:41:8a:08:17:02:ed:2e:1b:8e:ba:eb:bf:53:03:2a:2f:2a:90:7a:8a:aa:69:d2:9a:c4:c0:57:68:0b:83:0f:0d:82:08:5b:5f:8b:1d:75:d0:62:0d:26:3d:4c:74:41:ea" value="83049762a1da89561da99d8ee162d2ac3b53396a49883498f52386418a081702ed2e1b8ebaebbf53032a2f2a907a8aaa69d29ac4c057680b830f0d82085b5f8b1d75d0620d263d4c7441ea"/>
      <field name="http2.header.length" showname="Header Length: 261" size="1" pos="190" show="261" value="00"/>
      <field name="http2.header.count" showname="Header Count: 9" size="1" pos="190" show="9" value="00"/>
      <field name="http2.header" showname="Header: :method: POST" size="1" pos="204" show="" value="">
        <field name="http2.header.name.length" showname="Name Length: 7" size="4" pos="204" show="7" value="00000007"/>
        <field name="http2.header.name" showname="Name: :method" size="7" pos="208" show=":method" value="3a6d6574686f64"/>
        <field name="http2.header.value.length" showname="Value Length: 4" size="4" pos="215" show="4" value="00000004"/>
        <field name="http2.header.value" showname="Value: POST" size="4" pos="219" show="POST" value="504f5354"/>
        <field name="http2.headers.method" showname=":method: POST" size="4" pos="219" show="POST" value="504f5354"/>
        <field name="http2.header.unescaped" showname="Unescaped: POST" size="4" pos="219" show="POST" value="504f5354"/>
        <field name="http2.header.repr" showname="Representation: Indexed Header Field" size="1" pos="204" show="Indexed Header Field" value="83"/>
        <field name="http2.header.index" showname="Index: 3" size="1" pos="204" show="3" value="83"/>
      </field>
      <field name="http2.header" showname="Header: :path: /nausf-auth/v1/ue-authentications" size="25" pos="205" show="" value="">
        <field name="http2.header.name.length" showname="Name Length: 5" size="4" pos="224" show="5" value="00000005"/>
        <field name="http2.header.name" showname="Name: :path" size="5" pos="228" show=":path" value="3a70617468"/>
        <field name="http2.header.value.length" showname="Value Length: 33" size="4" pos="233" show="33" value="00000021"/>
        <field name="http2.header.value" showname="Value: /nausf-auth/v1/ue-authentications" size="33" pos="237" show="/nausf-auth/v1/ue-authentications" value="2f6e617573662d617574682f76312f75652d61757468656e7469636174696f6e73"/>
        <field name="http2.headers.path" showname=":path: /nausf-auth/v1/ue-authentications" size="33" pos="237" show="/nausf-auth/v1/ue-authentications" value="2f6e617573662d617574682f76312f75652d61757468656e7469636174696f6e73"/>
        <field name="http2.header.unescaped" showname="Unescaped: /nausf-auth/v1/ue-authentications" size="33" pos="237" show="/nausf-auth/v1/ue-authentications" value="2f6e617573662d617574682f76312f75652d61757468656e7469636174696f6e73"/>
        <field name="http2.header.repr" showname="Representation: Literal Header Field without Indexing - Indexed Name" size="1" pos="205" show="Literal Header Field without Indexing - Indexed Name" value="04"/>
        <field name="http2.header.index" showname="Index: 4" size="1" pos="205" show="4" value="04"/>
      </field>
      <field name="http2.header" showname="Header: :scheme: http" size="1" pos="230" show="" value="">
        <field name="http2.header.name.length" showname="Name Length: 7" size="4" pos="295" show="7" value="00000007"/>
        <field name="http2.header.name" showname="Name: :scheme" size="7" pos="299" show=":scheme" value="3a736368656d65"/>
        <field name="http2.header.value.length" showname="Value Length: 4" size="4" pos="306" show="4" value="00000004"/>
        <field name="http2.header.value" showname="Value: http" size="4" pos="310" show="http" value="68747470"/>
        <field name="http2.headers.scheme" showname=":scheme: http" size="4" pos="310" show="http" value="68747470"/>
        <field name="http2.header.unescaped" showname="Unescaped: http" size="4" pos="310" show="http" value="68747470"/>
        <field name="http2.header.repr" showname="Representation: Indexed Header Field" size="1" pos="230" show="Indexed Header Field" value="86"/>
        <field name="http2.header.index" showname="Index: 6" size="1" pos="230" show="6" value="86"/>
      </field>
      <field name="http2.header" showname="Header: :authority: 10.0.4.1:7777" size="12" pos="231" show="" value="">
        <field name="http2.header.name.length" showname="Name Length: 10" size="4" pos="315" show="10" value="0000000a"/>
        <field name="http2.header.name" showname="Name: :authority" size="10" pos="319" show=":authority" value="3a617574686f72697479"/>
        <field name="http2.header.value.length" showname="Value Length: 13" size="4" pos="329" show="13" value="0000000d"/>
        <field name="http2.header.value" showname="Value: 10.0.4.1:7777" size="13" pos="333" show="10.0.4.1:7777" value="31302e302e342e313a37373737"/>
        <field name="http2.headers.authority" showname=":authority: 10.0.4.1:7777" size="13" pos="333" show="10.0.4.1:7777" value="31302e302e342e313a37373737"/>
        <field name="http2.header.unescaped" showname="Unescaped: 10.0.4.1:7777" size="13" pos="333" show="10.0.4.1:7777" value="31302e302e342e313a37373737"/>
        <field name="http2.header.repr" showname="Representation: Literal Header Field with Incremental Indexing - Indexed Name" size="1" pos="231" show="Literal Header Field with Incremental Indexing - Indexed Name" value="41"/>
        <field name="http2.header.index" showname="Index: 1" size="1" pos="231" show="1" value="41"/>
      </field>
      <field name="http2.header" showname="Header: accept: */*" size="5" pos="243" show="" value="">
        <field name="http2.header.name.length" showname="Name Length: 6" size="4" pos="358" show="6" value="00000006"/>
        <field name="http2.header.name" showname="Name: accept" size="6" pos="362" show="accept" value="616363657074"/>
        <field name="http2.header.value.length" showname="Value Length: 3" size="4" pos="368" show="3" value="00000003"/>
        <field name="http2.header.value" showname="Value: */*" size="3" pos="372" show="*/*" value="2a2f2a"/>
        <field name="http2.headers.accept" showname="accept: */*" size="3" pos="372" show="*/*" value="2a2f2a"/>
        <field name="http2.header.unescaped" showname="Unescaped: */*" size="3" pos="372" show="*/*" value="2a2f2a"/>
        <field name="http2.header.repr" showname="Representation: Literal Header Field with Incremental Indexing - Indexed Name" size="1" pos="243" show="Literal Header Field with Incremental Indexing - Indexed Name" value="53"/>
        <field name="http2.header.index" showname="Index: 19" size="1" pos="243" show="19" value="53"/>
      </field>
      <field name="http2.header" showname="Header: accept-encoding: gzip, deflate" size="1" pos="248" show="" value="">
        <field name="http2.header.name.length" showname="Name Length: 15" size="4" pos="380" show="15" value="0000000f"/>
        <field name="http2.header.name" showname="Name: accept-encoding" size="15" pos="384" show="accept-encoding" value="6163636570742d656e636f64696e67"/>
        <field name="http2.header.value.length" showname="Value Length: 13" size="4" pos="399" show="13" value="0000000d"/>
        <field name="http2.header.value" showname="Value: gzip, deflate" size="13" pos="403" show="gzip, deflate" value="677a69702c206465666c617465"/>
        <field name="http2.headers.accept_encoding" showname="accept-encoding: gzip, deflate" size="13" pos="403" show="gzip, deflate" value="677a69702c206465666c617465"/>
        <field name="http2.header.unescaped" showname="Unescaped: gzip, deflate" size="13" pos="403" show="gzip, deflate" value="677a69702c206465666c617465"/>
        <field name="http2.header.repr" showname="Representation: Indexed Header Field" size="1" pos="248" show="Indexed Header Field" value="90"/>
        <field name="http2.header.index" showname="Index: 16" size="1" pos="248" show="16" value="90"/>
      </field>
      <field name="http2.header" showname="Header: user-agent: nghttp2/1.40.0" size="12" pos="249" show="" value="">
        <field name="http2.header.name.length" showname="Name Length: 10" size="4" pos="417" show="10" value="0000000a"/>
        <field name="http2.header.name" showname="Name: user-agent" size="10" pos="421" show="user-agent" value="757365722d6167656e74"/>
        <field name="http2.header.value.length" showname="Value Length: 14" size="4" pos="431" show="14" value="0000000e"/>
        <field name="http2.header.value" showname="Value: nghttp2/1.40.0" size="14" pos="435" show="nghttp2/1.40.0" value="6e6768747470322f312e34302e30"/>
        <field name="http2.headers.user_agent" showname="user-agent: nghttp2/1.40.0" size="14" pos="435" show="nghttp2/1.40.0" value="6e6768747470322f312e34302e30"/>
        <field name="http2.header.unescaped" showname="Unescaped: nghttp2/1.40.0" size="14" pos="435" show="nghttp2/1.40.0" value="6e6768747470322f312e34302e30"/>
        <field name="http2.header.repr" showname="Representation: Literal Header Field with Incremental Indexing - Indexed Name" size="1" pos="249" show="Literal Header Field with Incremental Indexing - Indexed Name" value="7a"/>
        <field name="http2.header.index" showname="Index: 58" size="1" pos="249" show="58" value="7a"/>
      </field>
      <field name="http2.header" showname="Header: content-length: 115" size="5" pos="261" show="" value="">
        <field name="http2.header.name.length" showname="Name Length: 14" size="4" pos="461" show="14" value="0000000e"/>
        <field name="http2.header.name" showname="Name: content-length" size="14" pos="465" show="content-length" value="636f6e74656e742d6c656e677468"/>
        <field name="http2.header.value.length" showname="Value Length: 3" size="4" pos="479" show="3" value="00000003"/>
        <field name="http2.header.value" showname="Value: 115" size="3" pos="483" show="115" value="313135"/>
        <field name="http2.headers.content_length" showname="content-length: 115" size="3" pos="483" show="115" value="313135"/>
        <field name="http2.header.unescaped" showname="Unescaped: 115" size="3" pos="483" show="115" value="313135"/>
        <field name="http2.header.repr" showname="Representation: Literal Header Field without Indexing - Indexed Name" size="1" pos="261" show="Literal Header Field without Indexing - Indexed Name" value="0f"/>
        <field name="http2.header.index" showname="Index: 28" size="1" pos="261" show="28" value="0f"/>
      </field>
      <field name="http2.header" showname="Header: content-type: application/json" size="13" pos="266" show="" value="">
        <field name="http2.header.name.length" showname="Name Length: 12" size="4" pos="491" show="12" value="0000000c"/>
        <field name="http2.header.name" showname="Name: content-type" size="12" pos="495" show="content-type" value="636f6e74656e742d74797065"/>
        <field name="http2.header.value.length" showname="Value Length: 16" size="4" pos="507" show="16" value="00000010"/>
        <field name="http2.header.value" showname="Value: application/json" size="16" pos="511" show="application/json" value="6170706c69636174696f6e2f6a736f6e"/>
        <field name="http2.headers.content_type" showname="content-type: application/json" size="16" pos="511" show="application/json" value="6170706c69636174696f6e2f6a736f6e"/>
        <field name="http2.header.unescaped" showname="Unescaped: application/json" size="16" pos="511" show="application/json" value="6170706c69636174696f6e2f6a736f6e"/>
        <field name="http2.header.repr" showname="Representation: Literal Header Field with Incremental Indexing - Indexed Name" size="1" pos="266" show="Literal Header Field with Incremental Indexing - Indexed Name" value="5f"/>
        <field name="http2.header.index" showname="Index: 31" size="1" pos="266" show="31" value="5f"/>
      </field>
    </field>
    <field name="http2.stream" showname="Stream: DATA, Stream ID: 13, Length 115" size="124" pos="279" show="" value="">
      <field name="http2.length" showname="Length: 115" size="3" pos="279" show="115" value="000073"/>
      <field name="http2.type" showname="Type: DATA (0)" size="1" pos="282" show="0" value="00"/>
      <field name="http2.flags" showname="Flags: 0x01" size="1" pos="283" show="0x00000001" value="01">
        <field name="http2.flags.end_stream" showname=".... ...1 = End Stream: True" size="1" pos="283" show="1" value="1" unmaskedvalue="01"/>
        <field name="http2.flags.padded" showname=".... 0... = Padded: False" size="1" pos="283" show="0" value="0" unmaskedvalue="01"/>
        <field name="http2.flags.unused_data" showname="0000 .00. = Unused: 0x00" size="1" pos="283" show="0x00000000" value="0" unmaskedvalue="01"/>
      </field>
      <field name="http2.r" showname="0... .... .... .... .... .... .... .... = Reserved: 0x0" size="4" pos="284" show="0x00000000" value="0" unmaskedvalue="0000000d"/>
      <field name="http2.streamid" showname=".000 0000 0000 0000 0000 0000 0000 1101 = Stream Identifier: 13" size="4" pos="284" show="13" value="D" unmaskedvalue="0000000d"/>
      <field name="http2.pad_length" showname="Pad Length: 0" size="0" pos="288" show="0"/>
      <field name="http2.data.data" showname="Data: 7b0a0922737570694f7253756369223a0922737563692d30\xe2\x80\xa6" size="115" pos="288" show="7b:0a:09:22:73:75:70:69:4f:72:53:75:63:69:22:3a:09:22:73:75:63:69:2d:30:2d:39:30:31:2d:37:30:2d:30:30:30:30:2d:30:2d:30:2d:30:30:30:30:30:30:30:31:32:33:34:22:2c:0a:09:22:73:65:72:76:69:6e:67:4e:65:74:77:6f:72:6b:4e:61:6d:65:22:3a:09:22:35:47:3a:6d:6e:63:30:37:30:2e:6d:63:63:39:30:31:2e:33:67:70:70:6e:65:74:77:6f:72:6b:2e:6f:72:67:22:0a:7d:0a" value="7b0a0922737570694f7253756369223a0922737563692d302d3930312d37302d303030302d302d302d3030303030303031323334222c0a092273657276696e674e6574776f726b4e616d65223a092235473a6d6e633037302e6d63633930312e336770706e6574776f726b2e6f7267220a7d0a"/>
    </field>
    <proto name="json" showname="JavaScript Object Notation: application/json" size="115" pos="288">
      <field name="json.object" showname="Object" size="114" pos="288" show="" value="">
        <field name="json.member" showname="Member Key: supiOrSuci" size="50" pos="291" show="" value="">
          <field name="json.value.string" showname="String value: suci-0-901-70-0000-0-0-00000001234" size="36" pos="305" show="suci-0-901-70-0000-0-0-00000001234" value="22737563692d302d3930312d37302d303030302d302d302d303030303030303132333422"/>
          <field name="json.key" showname="Key: supiOrSuci" size="12" pos="291" show="supiOrSuci" value="22737570694f725375636922"/>
        </field>
        <field name="json.member" showname="Member Key: servingNetworkName" size="56" pos="344" show="" value="">
          <field name="json.value.string" showname="String value: 5G:mnc070.mcc901.3gppnetwork.org" size="34" pos="366" show="5G:mnc070.mcc901.3gppnetwork.org" value="2235473a6d6e633037302e6d63633930312e336770706e6574776f726b2e6f726722"/>
          <field name="json.key" showname="Key: servingNetworkName" size="20" pos="344" show="servingNetworkName" value="2273657276696e674e6574776f726b4e616d6522"/>
        </field>
      </field>
    </proto>
  </proto>
</packet>


<packet>
  <proto name="geninfo" pos="0" showname="General information" size="148">
    <field name="num" pos="0" show="8" showname="Number" value="8" size="148"/>
    <field name="len" pos="0" show="148" showname="Frame Length" value="94" size="148"/>
    <field name="caplen" pos="0" show="148" showname="Captured Length" value="94" size="148"/>
    <field name="timestamp" pos="0" show="May 23, 2023 23:58:43.851796508 CEST" showname="Captured Time" value="1684879123.851796508" size="148"/>
  </proto>
  <proto name="frame" showname="Frame 8: 148 bytes on wire (1184 bits), 148 bytes captured (1184 bits) on interface veth_ausf, id 0" size="148" pos="0">
    <field name="filtered" value="frame" />
  </proto>
  <proto name="eth" showname="Ethernet II, Src: ea:77:ac:4e:9a:ef, Dst: fe:f2:39:7d:56:21" size="14" pos="0">
    <field name="filtered" value="eth" />
  </proto>
  <proto name="ip" showname="Internet Protocol Version 4, Src: 10.0.4.1, Dst: 10.0.15.1" size="20" pos="14">
    <field name="filtered" value="ip" />
  </proto>
  <proto name="tcp" showname="Transmission Control Protocol, Src Port: 51396, Dst Port: 7777, Seq: 735490797, Ack: 2044239929, Len: 82" size="32" pos="34">
    <field name="tcp.srcport" showname="Source Port: 51396" size="2" pos="34" show="51396" value="c8c4"/>
    <field name="tcp.dstport" showname="Destination Port: 7777" size="2" pos="36" show="7777" value="1e61"/>
    <field name="tcp.port" showname="Source or Destination Port: 51396" hide="yes" size="2" pos="34" show="51396" value="c8c4"/>
    <field name="tcp.port" showname="Source or Destination Port: 7777" hide="yes" size="2" pos="36" show="7777" value="1e61"/>
    <field name="tcp.stream" showname="Stream index: 1" size="0" pos="34" show="1"/>
    <field name="tcp.len" showname="TCP Segment Len: 82" size="1" pos="46" show="82" value="80"/>
    <field name="tcp.seq" showname="Sequence number: 735490797" size="4" pos="38" show="735490797" value="2bd6b2ed"/>
    <field name="tcp.seq_raw" showname="Sequence number (raw): 735490797" hide="yes" size="4" pos="38" show="735490797" value="2bd6b2ed"/>
    <field name="tcp.nxtseq" showname="Next sequence number: 735490879" size="0" pos="34" show="735490879"/>
    <field name="tcp.ack" showname="Acknowledgment number: 2044239929" size="4" pos="42" show="2044239929" value="79d8a039"/>
    <field name="tcp.ack_raw" showname="Acknowledgment number (raw): 2044239929" hide="yes" size="4" pos="42" show="2044239929" value="79d8a039"/>
    <field name="tcp.hdr_len" showname="1000 .... = Header Length: 32 bytes (8)" size="1" pos="46" show="32" value="80"/>
    <field name="tcp.flags" showname="Flags: 0x018 (PSH, ACK)" size="2" pos="46" show="0x00000018" value="18" unmaskedvalue="8018">
      <field name="tcp.flags.res" showname="000. .... .... = Reserved: Not set" size="1" pos="46" show="0" value="0" unmaskedvalue="80"/>
      <field name="tcp.flags.ns" showname="...0 .... .... = Nonce: Not set" size="1" pos="46" show="0" value="0" unmaskedvalue="80"/>
      <field name="tcp.flags.cwr" showname=".... 0... .... = Congestion Window Reduced (CWR): Not set" size="1" pos="47" show="0" value="0" unmaskedvalue="18"/>
      <field name="tcp.flags.ecn" showname=".... .0.. .... = ECN-Echo: Not set" size="1" pos="47" show="0" value="0" unmaskedvalue="18"/>
      <field name="tcp.flags.urg" showname=".... ..0. .... = Urgent: Not set" size="1" pos="47" show="0" value="0" unmaskedvalue="18"/>
      <field name="tcp.flags.ack" showname=".... ...1 .... = Acknowledgment: Set" size="1" pos="47" show="1" value="1" unmaskedvalue="18"/>
      <field name="tcp.flags.push" showname=".... .... 1... = Push: Set" size="1" pos="47" show="1" value="1" unmaskedvalue="18"/>
      <field name="tcp.flags.reset" showname=".... .... .0.. = Reset: Not set" size="1" pos="47" show="0" value="0" unmaskedvalue="18"/>
      <field name="tcp.flags.syn" showname=".... .... ..0. = Syn: Not set" size="1" pos="47" show="0" value="0" unmaskedvalue="18"/>
      <field name="tcp.flags.fin" showname=".... .... ...0 = Fin: Not set" size="1" pos="47" show="0" value="0" unmaskedvalue="18"/>
      <field name="tcp.flags.str" showname="TCP Flags: \xc2\xb7\xc2\xb7\xc2\xb7\xc2\xb7\xc2\xb7\xc2\xb7\xc2\xb7AP\xc2\xb7\xc2\xb7\xc2\xb7" size="2" pos="46" show="\xc2\xb7\xc2\xb7\xc2\xb7\xc2\xb7\xc2\xb7\xc2\xb7\xc2\xb7AP\xc2\xb7\xc2\xb7\xc2\xb7" value="8018"/>
    </field>
    <field name="tcp.window_size_value" showname="Window size value: 501" size="2" pos="48" show="501" value="01f5"/>
    <field name="tcp.window_size" showname="Calculated window size: 501" size="2" pos="48" show="501" value="01f5"/>
    <field name="tcp.window_size_scalefactor" showname="Window size scaling factor: -1 (unknown)" size="2" pos="48" show="-1" value="01f5"/>
    <field name="tcp.checksum" showname="Checksum: 0x277a [unverified]" size="2" pos="50" show="0x0000277a" value="277a"/>
    <field name="tcp.checksum.status" showname="Checksum Status: Unverified" size="0" pos="50" show="2"/>
    <field name="tcp.urgent_pointer" showname="Urgent pointer: 0" size="2" pos="52" show="0" value="0000"/>
    <field name="tcp.options" showname="Options: (12 bytes), No-Operation (NOP), No-Operation (NOP), Timestamps" size="12" pos="54" show="01:01:08:0a:23:c2:17:b1:0a:4c:f1:5a" value="0101080a23c217b10a4cf15a">
      <field name="tcp.options.nop" showname="TCP Option - No-Operation (NOP)" size="1" pos="54" show="01" value="01">
        <field name="tcp.option_kind" showname="Kind: No-Operation (1)" size="1" pos="54" show="1" value="01"/>
      </field>
      <field name="tcp.options.nop" showname="TCP Option - No-Operation (NOP)" size="1" pos="55" show="01" value="01">
        <field name="tcp.option_kind" showname="Kind: No-Operation (1)" size="1" pos="55" show="1" value="01"/>
      </field>
      <field name="tcp.options.timestamp" showname="TCP Option - Timestamps: TSval 599922609, TSecr 172814682" size="10" pos="56" show="08:0a:23:c2:17:b1:0a:4c:f1:5a" value="080a23c217b10a4cf15a">
        <field name="tcp.option_kind" showname="Kind: Time Stamp Option (8)" size="1" pos="56" show="8" value="08"/>
        <field name="tcp.option_len" showname="Length: 10" size="1" pos="57" show="10" value="0a"/>
        <field name="tcp.options.timestamp.tsval" showname="Timestamp value: 599922609" size="4" pos="58" show="599922609" value="23c217b1"/>
        <field name="tcp.options.timestamp.tsecr" showname="Timestamp echo reply: 172814682" size="4" pos="62" show="172814682" value="0a4cf15a"/>
      </field>
    </field>
    <field name="" show="Timestamps" size="0" pos="34">
      <field name="tcp.time_relative" showname="Time since first frame in this TCP stream: 0.000000000 seconds" size="0" pos="34" show="0.000000000"/>
      <field name="tcp.time_delta" showname="Time since previous frame in this TCP stream: 0.000000000 seconds" size="0" pos="34" show="0.000000000"/>
    </field>
    <field name="tcp.payload" showname="TCP payload (82 bytes)" size="82" pos="66" show="00:00:49:01:04:00:00:00:03:83:04:bd:62:ab:64:a5:6b:4a:3b:58:ee:16:11:69:0c:b0:16:7c:01:59:d0:2c:00:00:0b:01:60:2c:00:00:00:00:02:26:5a:61:05:25:b6:19:3e:96:35:52:9e:ca:46:93:1e:a6:26:2d:45:b0:69:2a:c3:b5:33:ad:20:d2:3f:86:c0:bf:be:0f:0d:82:08:81" value="0000490104000000038304bd62ab64a56b4a3b58ee1611690cb0167c0159d02c00000b01602c0000000002265a610525b6193e9635529eca46931ea6262d45b0692ac3b533ad20d23f86c0bfbe0f0d820881"/>
    <field name="tcp.pdu.size" showname="PDU Size: 82" size="82" pos="66" show="82" value="0000490104000000038304bd62ab64a56b4a3b58ee1611690cb0167c0159d02c00000b01602c0000000002265a610525b6193e9635529eca46931ea6262d45b0692ac3b533ad20d23f86c0bfbe0f0d820881"/>
  </proto>
  <proto name="http2" showname="HyperText Transfer Protocol 2" size="82" pos="66">
    <field name="http2.stream" showname="Stream: HEADERS, Stream ID: 3, Length 73, POST /nudm-ueau/v1/suci-0-901-70-0000-0-0-00000001234/security-information/generate-auth-data" size="82" pos="66" show="" value="">
      <field name="http2.length" showname="Length: 73" size="3" pos="66" show="73" value="000049"/>
      <field name="http2.type" showname="Type: HEADERS (1)" size="1" pos="69" show="1" value="01"/>
      <field name="http2.flags" showname="Flags: 0x04" size="1" pos="70" show="0x00000004" value="04">
        <field name="http2.flags.end_stream" showname=".... ...0 = End Stream: False" size="1" pos="70" show="0" value="0" unmaskedvalue="04"/>
        <field name="http2.flags.eh" showname=".... .1.. = End Headers: True" size="1" pos="70" show="1" value="1" unmaskedvalue="04"/>
        <field name="http2.flags.padded" showname=".... 0... = Padded: False" size="1" pos="70" show="0" value="0" unmaskedvalue="04"/>
        <field name="http2.flags.priority" showname="..0. .... = Priority: False" size="1" pos="70" show="0" value="0" unmaskedvalue="04"/>
        <field name="http2.flags.unused_headers" showname="00.0 ..0. = Unused: 0x00" size="1" pos="70" show="0x00000000" value="0" unmaskedvalue="04"/>
      </field>
      <field name="http2.r" showname="0... .... .... .... .... .... .... .... = Reserved: 0x0" size="4" pos="71" show="0x00000000" value="0" unmaskedvalue="00000003"/>
      <field name="http2.streamid" showname=".000 0000 0000 0000 0000 0000 0000 0011 = Stream Identifier: 3" size="4" pos="71" show="3" value="3" unmaskedvalue="00000003"/>
      <field name="http2.pad_length" showname="Pad Length: 0" size="0" pos="75" show="0"/>
      <field name="http2.headers" showname="Header Block Fragment: 8304bd62ab64a56b4a3b58ee1611690cb0167c0159d02c00\xe2\x80\xa6" size="73" pos="75" show="83:04:bd:62:ab:64:a5:6b:4a:3b:58:ee:16:11:69:0c:b0:16:7c:01:59:d0:2c:00:00:0b:01:60:2c:00:00:00:00:02:26:5a:61:05:25:b6:19:3e:96:35:52:9e:ca:46:93:1e:a6:26:2d:45:b0:69:2a:c3:b5:33:ad:20:d2:3f:86:c0:bf:be:0f:0d:82:08:81" value="8304bd62ab64a56b4a3b58ee1611690cb0167c0159d02c00000b01602c0000000002265a610525b6193e9635529eca46931ea6262d45b0692ac3b533ad20d23f86c0bfbe0f0d820881"/>
      <field name="http2.header.length" showname="Header Length: 139" size="1" pos="66" show="139" value="00"/>
      <field name="http2.header.count" showname="Header Count: 3" size="1" pos="66" show="3" value="00"/>
      <field name="http2.header" showname="Header: :method: POST" size="1" pos="75" show="" value="">
        <field name="http2.header.name.length" showname="Name Length: 7" size="4" pos="75" show="7" value="00000007"/>
        <field name="http2.header.name" showname="Name: :method" size="7" pos="79" show=":method" value="3a6d6574686f64"/>
        <field name="http2.header.value.length" showname="Value Length: 4" size="4" pos="86" show="4" value="00000004"/>
        <field name="http2.header.value" showname="Value: POST" size="4" pos="90" show="POST" value="504f5354"/>
        <field name="http2.headers.method" showname=":method: POST" size="4" pos="90" show="POST" value="504f5354"/>
        <field name="http2.header.unescaped" showname="Unescaped: POST" size="4" pos="90" show="POST" value="504f5354"/>
        <field name="http2.header.repr" showname="Representation: Indexed Header Field" size="1" pos="75" show="Indexed Header Field" value="83"/>
        <field name="http2.header.index" showname="Index: 3" size="1" pos="75" show="3" value="83"/>
      </field>
      <field name="http2.header" showname="Header: :path: /nudm-ueau/v1/suci-0-901-70-0000-0-0-00000001234/security-information/generate-auth-data" size="63" pos="76" show="" value="">
        <field name="http2.header.name.length" showname="Name Length: 5" size="4" pos="95" show="5" value="00000005"/>
        <field name="http2.header.name" showname="Name: :path" size="5" pos="99" show=":path" value="3a70617468"/>
        <field name="http2.header.value.length" showname="Value Length: 88" size="4" pos="104" show="88" value="00000058"/>
        <field name="http2.header.value" showname="Value: /nudm-ueau/v1/suci-0-901-70-0000-0-0-00000001234/security-information/generate-auth-data" size="88" pos="108" show="/nudm-ueau/v1/suci-0-901-70-0000-0-0-00000001234/security-information/generate-auth-data" value="2f6e75646d2d756561752f76312f737563692d302d3930312d37302d303030302d302d302d30303030303030313233342f73656375726974792d696e666f726d6174696f6e2f67656e65726174652d617574682d64617461"/>
        <field name="http2.headers.path" showname=":path: /nudm-ueau/v1/suci-0-901-70-0000-0-0-00000001234/security-information/generate-auth-data" size="88" pos="108" show="/nudm-ueau/v1/suci-0-901-70-0000-0-0-00000001234/security-information/generate-auth-data" value="2f6e75646d2d756561752f76312f737563692d302d3930312d37302d303030302d302d302d30303030303030313233342f73656375726974792d696e666f726d6174696f6e2f67656e65726174652d617574682d64617461"/>
        <field name="http2.header.unescaped" showname="Unescaped: /nudm-ueau/v1/suci-0-901-70-0000-0-0-00000001234/security-information/generate-auth-data" size="88" pos="108" show="/nudm-ueau/v1/suci-0-901-70-0000-0-0-00000001234/security-information/generate-auth-data" value="2f6e75646d2d756561752f76312f737563692d302d3930312d37302d303030302d302d302d30303030303030313233342f73656375726974792d696e666f726d6174696f6e2f67656e65726174652d617574682d64617461"/>
        <field name="http2.header.repr" showname="Representation: Literal Header Field without Indexing - Indexed Name" size="1" pos="76" show="Literal Header Field without Indexing - Indexed Name" value="04"/>
        <field name="http2.header.index" showname="Index: 4" size="1" pos="76" show="4" value="04"/>
      </field>
      <field name="http2.header" showname="Header: :scheme: http" size="1" pos="139" show="" value="">
        <field name="http2.header.name.length" showname="Name Length: 7" size="4" pos="259" show="7" value="00000007"/>
        <field name="http2.header.name" showname="Name: :scheme" size="7" pos="263" show=":scheme" value="3a736368656d65"/>
        <field name="http2.header.value.length" showname="Value Length: 4" size="4" pos="270" show="4" value="00000004"/>
        <field name="http2.header.value" showname="Value: http" size="4" pos="274" show="http" value="68747470"/>
        <field name="http2.headers.scheme" showname=":scheme: http" size="4" pos="274" show="http" value="68747470"/>
        <field name="http2.header.unescaped" showname="Unescaped: http" size="4" pos="274" show="http" value="68747470"/>
        <field name="http2.header.repr" showname="Representation: Indexed Header Field" size="1" pos="139" show="Indexed Header Field" value="86"/>
        <field name="http2.header.index" showname="Index: 6" size="1" pos="139" show="6" value="86"/>
      </field>
    </field>
  </proto>
</packet>


<packet>
  <proto name="geninfo" pos="0" showname="General information" size="195">
    <field name="num" pos="0" show="9" showname="Number" value="9" size="195"/>
    <field name="len" pos="0" show="195" showname="Frame Length" value="c3" size="195"/>
    <field name="caplen" pos="0" show="195" showname="Captured Length" value="c3" size="195"/>
    <field name="timestamp" pos="0" show="May 23, 2023 23:58:43.851853374 CEST" showname="Captured Time" value="1684879123.851853374" size="195"/>
  </proto>
  <proto name="frame" showname="Frame 9: 195 bytes on wire (1560 bits), 195 bytes captured (1560 bits) on interface veth_ausf, id 0" size="195" pos="0">
    <field name="filtered" value="frame" />
  </proto>
  <proto name="eth" showname="Ethernet II, Src: ea:77:ac:4e:9a:ef, Dst: fe:f2:39:7d:56:21" size="14" pos="0">
    <field name="filtered" value="eth" />
  </proto>
  <proto name="ip" showname="Internet Protocol Version 4, Src: 10.0.4.1, Dst: 10.0.15.1" size="20" pos="14">
    <field name="filtered" value="ip" />
  </proto>
  <proto name="tcp" showname="Transmission Control Protocol, Src Port: 51396, Dst Port: 7777, Seq: 735490879, Ack: 2044239929, Len: 129" size="32" pos="34">
    <field name="tcp.srcport" showname="Source Port: 51396" size="2" pos="34" show="51396" value="c8c4"/>
    <field name="tcp.dstport" showname="Destination Port: 7777" size="2" pos="36" show="7777" value="1e61"/>
    <field name="tcp.port" showname="Source or Destination Port: 51396" hide="yes" size="2" pos="34" show="51396" value="c8c4"/>
    <field name="tcp.port" showname="Source or Destination Port: 7777" hide="yes" size="2" pos="36" show="7777" value="1e61"/>
    <field name="tcp.stream" showname="Stream index: 1" size="0" pos="34" show="1"/>
    <field name="tcp.len" showname="TCP Segment Len: 129" size="1" pos="46" show="129" value="80"/>
    <field name="tcp.seq" showname="Sequence number: 735490879" size="4" pos="38" show="735490879" value="2bd6b33f"/>
    <field name="tcp.seq_raw" showname="Sequence number (raw): 735490879" hide="yes" size="4" pos="38" show="735490879" value="2bd6b33f"/>
    <field name="tcp.nxtseq" showname="Next sequence number: 735491008" size="0" pos="34" show="735491008"/>
    <field name="tcp.ack" showname="Acknowledgment number: 2044239929" size="4" pos="42" show="2044239929" value="79d8a039"/>
    <field name="tcp.ack_raw" showname="Acknowledgment number (raw): 2044239929" hide="yes" size="4" pos="42" show="2044239929" value="79d8a039"/>
    <field name="tcp.hdr_len" showname="1000 .... = Header Length: 32 bytes (8)" size="1" pos="46" show="32" value="80"/>
    <field name="tcp.flags" showname="Flags: 0x018 (PSH, ACK)" size="2" pos="46" show="0x00000018" value="18" unmaskedvalue="8018">
      <field name="tcp.flags.res" showname="000. .... .... = Reserved: Not set" size="1" pos="46" show="0" value="0" unmaskedvalue="80"/>
      <field name="tcp.flags.ns" showname="...0 .... .... = Nonce: Not set" size="1" pos="46" show="0" value="0" unmaskedvalue="80"/>
      <field name="tcp.flags.cwr" showname=".... 0... .... = Congestion Window Reduced (CWR): Not set" size="1" pos="47" show="0" value="0" unmaskedvalue="18"/>
      <field name="tcp.flags.ecn" showname=".... .0.. .... = ECN-Echo: Not set" size="1" pos="47" show="0" value="0" unmaskedvalue="18"/>
      <field name="tcp.flags.urg" showname=".... ..0. .... = Urgent: Not set" size="1" pos="47" show="0" value="0" unmaskedvalue="18"/>
      <field name="tcp.flags.ack" showname=".... ...1 .... = Acknowledgment: Set" size="1" pos="47" show="1" value="1" unmaskedvalue="18"/>
      <field name="tcp.flags.push" showname=".... .... 1... = Push: Set" size="1" pos="47" show="1" value="1" unmaskedvalue="18"/>
      <field name="tcp.flags.reset" showname=".... .... .0.. = Reset: Not set" size="1" pos="47" show="0" value="0" unmaskedvalue="18"/>
      <field name="tcp.flags.syn" showname=".... .... ..0. = Syn: Not set" size="1" pos="47" show="0" value="0" unmaskedvalue="18"/>
      <field name="tcp.flags.fin" showname=".... .... ...0 = Fin: Not set" size="1" pos="47" show="0" value="0" unmaskedvalue="18"/>
      <field name="tcp.flags.str" showname="TCP Flags: \xc2\xb7\xc2\xb7\xc2\xb7\xc2\xb7\xc2\xb7\xc2\xb7\xc2\xb7AP\xc2\xb7\xc2\xb7\xc2\xb7" size="2" pos="46" show="\xc2\xb7\xc2\xb7\xc2\xb7\xc2\xb7\xc2\xb7\xc2\xb7\xc2\xb7AP\xc2\xb7\xc2\xb7\xc2\xb7" value="8018"/>
    </field>
    <field name="tcp.window_size_value" showname="Window size value: 501" size="2" pos="48" show="501" value="01f5"/>
    <field name="tcp.window_size" showname="Calculated window size: 501" size="2" pos="48" show="501" value="01f5"/>
    <field name="tcp.window_size_scalefactor" showname="Window size scaling factor: -1 (unknown)" size="2" pos="48" show="-1" value="01f5"/>
    <field name="tcp.checksum" showname="Checksum: 0x27a9 [unverified]" size="2" pos="50" show="0x000027a9" value="27a9"/>
    <field name="tcp.checksum.status" showname="Checksum Status: Unverified" size="0" pos="50" show="2"/>
    <field name="tcp.urgent_pointer" showname="Urgent pointer: 0" size="2" pos="52" show="0" value="0000"/>
    <field name="tcp.options" showname="Options: (12 bytes), No-Operation (NOP), No-Operation (NOP), Timestamps" size="12" pos="54" show="01:01:08:0a:23:c2:17:b1:0a:4c:f1:5a" value="0101080a23c217b10a4cf15a">
      <field name="tcp.options.nop" showname="TCP Option - No-Operation (NOP)" size="1" pos="54" show="01" value="01">
        <field name="tcp.option_kind" showname="Kind: No-Operation (1)" size="1" pos="54" show="1" value="01"/>
      </field>
      <field name="tcp.options.nop" showname="TCP Option - No-Operation (NOP)" size="1" pos="55" show="01" value="01">
        <field name="tcp.option_kind" showname="Kind: No-Operation (1)" size="1" pos="55" show="1" value="01"/>
      </field>
      <field name="tcp.options.timestamp" showname="TCP Option - Timestamps: TSval 599922609, TSecr 172814682" size="10" pos="56" show="08:0a:23:c2:17:b1:0a:4c:f1:5a" value="080a23c217b10a4cf15a">
        <field name="tcp.option_kind" showname="Kind: Time Stamp Option (8)" size="1" pos="56" show="8" value="08"/>
        <field name="tcp.option_len" showname="Length: 10" size="1" pos="57" show="10" value="0a"/>
        <field name="tcp.options.timestamp.tsval" showname="Timestamp value: 599922609" size="4" pos="58" show="599922609" value="23c217b1"/>
        <field name="tcp.options.timestamp.tsecr" showname="Timestamp echo reply: 172814682" size="4" pos="62" show="172814682" value="0a4cf15a"/>
      </field>
    </field>
    <field name="" show="Timestamps" size="0" pos="34">
      <field name="tcp.time_relative" showname="Time since first frame in this TCP stream: 0.000056866 seconds" size="0" pos="34" show="0.000056866"/>
      <field name="tcp.time_delta" showname="Time since previous frame in this TCP stream: 0.000056866 seconds" size="0" pos="34" show="0.000056866"/>
    </field>
    <field name="tcp.payload" showname="TCP payload (129 bytes)" size="129" pos="66" show="00:00:78:00:01:00:00:00:03:7b:0a:09:22:73:65:72:76:69:6e:67:4e:65:74:77:6f:72:6b:4e:61:6d:65:22:3a:09:22:35:47:3a:6d:6e:63:30:37:30:2e:6d:63:63:39:30:31:2e:33:67:70:70:6e:65:74:77:6f:72:6b:2e:6f:72:67:22:2c:0a:09:22:61:75:73:66:49:6e:73:74:61:6e:63:65:49:64:22:3a:09:22:35:61:32:64:39:65:39:38:2d:66:39:39:65:2d:34:31:65:64:2d:38:62:36:31:2d:32:64:31:64:63:61:31:63:62:32:37:64:22:0a:7d" value="0000780001000000037b0a092273657276696e674e6574776f726b4e616d65223a092235473a6d6e633037302e6d63633930312e336770706e6574776f726b2e6f7267222c0a092261757366496e7374616e63654964223a092235613264396539382d663939652d343165642d386236312d326431646361316362323764220a7d"/>
    <field name="tcp.pdu.size" showname="PDU Size: 129" size="129" pos="66" show="129" value="0000780001000000037b0a092273657276696e674e6574776f726b4e616d65223a092235473a6d6e633037302e6d63633930312e336770706e6574776f726b2e6f7267222c0a092261757366496e7374616e63654964223a092235613264396539382d663939652d343165642d386236312d326431646361316362323764220a7d"/>
  </proto>
  <proto name="http2" showname="HyperText Transfer Protocol 2" size="129" pos="66">
    <field name="http2.stream" showname="Stream: DATA, Stream ID: 3, Length 120" size="129" pos="66" show="" value="">
      <field name="http2.length" showname="Length: 120" size="3" pos="66" show="120" value="000078"/>
      <field name="http2.type" showname="Type: DATA (0)" size="1" pos="69" show="0" value="00"/>
      <field name="http2.flags" showname="Flags: 0x01" size="1" pos="70" show="0x00000001" value="01">
        <field name="http2.flags.end_stream" showname=".... ...1 = End Stream: True" size="1" pos="70" show="1" value="1" unmaskedvalue="01"/>
        <field name="http2.flags.padded" showname=".... 0... = Padded: False" size="1" pos="70" show="0" value="0" unmaskedvalue="01"/>
        <field name="http2.flags.unused_data" showname="0000 .00. = Unused: 0x00" size="1" pos="70" show="0x00000000" value="0" unmaskedvalue="01"/>
      </field>
      <field name="http2.r" showname="0... .... .... .... .... .... .... .... = Reserved: 0x0" size="4" pos="71" show="0x00000000" value="0" unmaskedvalue="00000003"/>
      <field name="http2.streamid" showname=".000 0000 0000 0000 0000 0000 0000 0011 = Stream Identifier: 3" size="4" pos="71" show="3" value="3" unmaskedvalue="00000003"/>
      <field name="http2.pad_length" showname="Pad Length: 0" size="0" pos="75" show="0"/>
      <field name="http2.data.data" showname="Data: 7b0a092273657276696e674e6574776f726b4e616d65223a\xe2\x80\xa6" size="120" pos="75" show="7b:0a:09:22:73:65:72:76:69:6e:67:4e:65:74:77:6f:72:6b:4e:61:6d:65:22:3a:09:22:35:47:3a:6d:6e:63:30:37:30:2e:6d:63:63:39:30:31:2e:33:67:70:70:6e:65:74:77:6f:72:6b:2e:6f:72:67:22:2c:0a:09:22:61:75:73:66:49:6e:73:74:61:6e:63:65:49:64:22:3a:09:22:35:61:32:64:39:65:39:38:2d:66:39:39:65:2d:34:31:65:64:2d:38:62:36:31:2d:32:64:31:64:63:61:31:63:62:32:37:64:22:0a:7d" value="7b0a092273657276696e674e6574776f726b4e616d65223a092235473a6d6e633037302e6d63633930312e336770706e6574776f726b2e6f7267222c0a092261757366496e7374616e63654964223a092235613264396539382d663939652d343165642d386236312d326431646361316362323764220a7d"/>
    </field>
  </proto>
</packet>


<packet>
  <proto name="geninfo" pos="0" showname="General information" size="108">
    <field name="num" pos="0" show="11" showname="Number" value="b" size="108"/>
    <field name="len" pos="0" show="108" showname="Frame Length" value="6c" size="108"/>
    <field name="caplen" pos="0" show="108" showname="Captured Length" value="6c" size="108"/>
    <field name="timestamp" pos="0" show="May 23, 2023 23:58:43.858419464 CEST" showname="Captured Time" value="1684879123.858419464" size="108"/>
  </proto>
  <proto name="frame" showname="Frame 11: 108 bytes on wire (864 bits), 108 bytes captured (864 bits) on interface veth_ausf, id 0" size="108" pos="0">
    <field name="filtered" value="frame" />
  </proto>
  <proto name="eth" showname="Ethernet II, Src: fe:f2:39:7d:56:21, Dst: ea:77:ac:4e:9a:ef" size="14" pos="0">
    <field name="filtered" value="eth" />
  </proto>
  <proto name="ip" showname="Internet Protocol Version 4, Src: 10.0.15.1, Dst: 10.0.4.1" size="20" pos="14">
    <field name="filtered" value="ip" />
  </proto>
  <proto name="tcp" showname="Transmission Control Protocol, Src Port: 7777, Dst Port: 51396, Seq: 2044239929, Ack: 735491008, Len: 42" size="32" pos="34">
    <field name="tcp.srcport" showname="Source Port: 7777" size="2" pos="34" show="7777" value="1e61"/>
    <field name="tcp.dstport" showname="Destination Port: 51396" size="2" pos="36" show="51396" value="c8c4"/>
    <field name="tcp.port" showname="Source or Destination Port: 7777" hide="yes" size="2" pos="34" show="7777" value="1e61"/>
    <field name="tcp.port" showname="Source or Destination Port: 51396" hide="yes" size="2" pos="36" show="51396" value="c8c4"/>
    <field name="tcp.stream" showname="Stream index: 1" size="0" pos="34" show="1"/>
    <field name="tcp.len" showname="TCP Segment Len: 42" size="1" pos="46" show="42" value="80"/>
    <field name="tcp.seq" showname="Sequence number: 2044239929" size="4" pos="38" show="2044239929" value="79d8a039"/>
    <field name="tcp.seq_raw" showname="Sequence number (raw): 2044239929" hide="yes" size="4" pos="38" show="2044239929" value="79d8a039"/>
    <field name="tcp.nxtseq" showname="Next sequence number: 2044239971" size="0" pos="34" show="2044239971"/>
    <field name="tcp.ack" showname="Acknowledgment number: 735491008" size="4" pos="42" show="735491008" value="2bd6b3c0"/>
    <field name="tcp.ack_raw" showname="Acknowledgment number (raw): 735491008" hide="yes" size="4" pos="42" show="735491008" value="2bd6b3c0"/>
    <field name="tcp.hdr_len" showname="1000 .... = Header Length: 32 bytes (8)" size="1" pos="46" show="32" value="80"/>
    <field name="tcp.flags" showname="Flags: 0x018 (PSH, ACK)" size="2" pos="46" show="0x00000018" value="18" unmaskedvalue="8018">
      <field name="tcp.flags.res" showname="000. .... .... = Reserved: Not set" size="1" pos="46" show="0" value="0" unmaskedvalue="80"/>
      <field name="tcp.flags.ns" showname="...0 .... .... = Nonce: Not set" size="1" pos="46" show="0" value="0" unmaskedvalue="80"/>
      <field name="tcp.flags.cwr" showname=".... 0... .... = Congestion Window Reduced (CWR): Not set" size="1" pos="47" show="0" value="0" unmaskedvalue="18"/>
      <field name="tcp.flags.ecn" showname=".... .0.. .... = ECN-Echo: Not set" size="1" pos="47" show="0" value="0" unmaskedvalue="18"/>
      <field name="tcp.flags.urg" showname=".... ..0. .... = Urgent: Not set" size="1" pos="47" show="0" value="0" unmaskedvalue="18"/>
      <field name="tcp.flags.ack" showname=".... ...1 .... = Acknowledgment: Set" size="1" pos="47" show="1" value="1" unmaskedvalue="18"/>
      <field name="tcp.flags.push" showname=".... .... 1... = Push: Set" size="1" pos="47" show="1" value="1" unmaskedvalue="18"/>
      <field name="tcp.flags.reset" showname=".... .... .0.. = Reset: Not set" size="1" pos="47" show="0" value="0" unmaskedvalue="18"/>
      <field name="tcp.flags.syn" showname=".... .... ..0. = Syn: Not set" size="1" pos="47" show="0" value="0" unmaskedvalue="18"/>
      <field name="tcp.flags.fin" showname=".... .... ...0 = Fin: Not set" size="1" pos="47" show="0" value="0" unmaskedvalue="18"/>
      <field name="tcp.flags.str" showname="TCP Flags: \xc2\xb7\xc2\xb7\xc2\xb7\xc2\xb7\xc2\xb7\xc2\xb7\xc2\xb7AP\xc2\xb7\xc2\xb7\xc2\xb7" size="2" pos="46" show="\xc2\xb7\xc2\xb7\xc2\xb7\xc2\xb7\xc2\xb7\xc2\xb7\xc2\xb7AP\xc2\xb7\xc2\xb7\xc2\xb7" value="8018"/>
    </field>
    <field name="tcp.window_size_value" showname="Window size value: 506" size="2" pos="48" show="506" value="01fa"/>
    <field name="tcp.window_size" showname="Calculated window size: 506" size="2" pos="48" show="506" value="01fa"/>
    <field name="tcp.window_size_scalefactor" showname="Window size scaling factor: -1 (unknown)" size="2" pos="48" show="-1" value="01fa"/>
    <field name="tcp.checksum" showname="Checksum: 0x2752 [unverified]" size="2" pos="50" show="0x00002752" value="2752"/>
    <field name="tcp.checksum.status" showname="Checksum Status: Unverified" size="0" pos="50" show="2"/>
    <field name="tcp.urgent_pointer" showname="Urgent pointer: 0" size="2" pos="52" show="0" value="0000"/>
    <field name="tcp.options" showname="Options: (12 bytes), No-Operation (NOP), No-Operation (NOP), Timestamps" size="12" pos="54" show="01:01:08:0a:0a:4d:2b:8c:23:c2:17:b1" value="0101080a0a4d2b8c23c217b1">
      <field name="tcp.options.nop" showname="TCP Option - No-Operation (NOP)" size="1" pos="54" show="01" value="01">
        <field name="tcp.option_kind" showname="Kind: No-Operation (1)" size="1" pos="54" show="1" value="01"/>
      </field>
      <field name="tcp.options.nop" showname="TCP Option - No-Operation (NOP)" size="1" pos="55" show="01" value="01">
        <field name="tcp.option_kind" showname="Kind: No-Operation (1)" size="1" pos="55" show="1" value="01"/>
      </field>
      <field name="tcp.options.timestamp" showname="TCP Option - Timestamps: TSval 172829580, TSecr 599922609" size="10" pos="56" show="08:0a:0a:4d:2b:8c:23:c2:17:b1" value="080a0a4d2b8c23c217b1">
        <field name="tcp.option_kind" showname="Kind: Time Stamp Option (8)" size="1" pos="56" show="8" value="08"/>
        <field name="tcp.option_len" showname="Length: 10" size="1" pos="57" show="10" value="0a"/>
        <field name="tcp.options.timestamp.tsval" showname="Timestamp value: 172829580" size="4" pos="58" show="172829580" value="0a4d2b8c"/>
        <field name="tcp.options.timestamp.tsecr" showname="Timestamp echo reply: 599922609" size="4" pos="62" show="599922609" value="23c217b1"/>
      </field>
    </field>
    <field name="" show="Timestamps" size="0" pos="34">
      <field name="tcp.time_relative" showname="Time since first frame in this TCP stream: 0.006622956 seconds" size="0" pos="34" show="0.006622956"/>
      <field name="tcp.time_delta" showname="Time since previous frame in this TCP stream: 0.006480479 seconds" size="0" pos="34" show="0.006480479"/>
    </field>
    <field name="tcp.payload" showname="TCP payload (42 bytes)" size="42" pos="66" show="00:00:21:01:04:00:00:00:03:8d:c0:61:96:df:69:7e:94:13:2a:68:1f:a5:04:01:32:a0:83:71:b7:ae:34:ca:98:b4:6f:0f:0d:03:31:37:35:bf" value="0000210104000000038dc06196df697e94132a681fa5040132a08371b7ae34ca98b46f0f0d03313735bf"/>
    <field name="tcp.pdu.size" showname="PDU Size: 42" size="42" pos="66" show="42" value="0000210104000000038dc06196df697e94132a681fa5040132a08371b7ae34ca98b46f0f0d03313735bf"/>
  </proto>
  <proto name="http2" showname="HyperText Transfer Protocol 2" size="42" pos="66">
    <field name="http2.stream" showname="Stream: HEADERS, Stream ID: 3, Length 33, 404 Not Found" size="42" pos="66" show="" value="">
      <field name="http2.length" showname="Length: 33" size="3" pos="66" show="33" value="000021"/>
      <field name="http2.type" showname="Type: HEADERS (1)" size="1" pos="69" show="1" value="01"/>
      <field name="http2.flags" showname="Flags: 0x04" size="1" pos="70" show="0x00000004" value="04">
        <field name="http2.flags.end_stream" showname=".... ...0 = End Stream: False" size="1" pos="70" show="0" value="0" unmaskedvalue="04"/>
        <field name="http2.flags.eh" showname=".... .1.. = End Headers: True" size="1" pos="70" show="1" value="1" unmaskedvalue="04"/>
        <field name="http2.flags.padded" showname=".... 0... = Padded: False" size="1" pos="70" show="0" value="0" unmaskedvalue="04"/>
        <field name="http2.flags.priority" showname="..0. .... = Priority: False" size="1" pos="70" show="0" value="0" unmaskedvalue="04"/>
        <field name="http2.flags.unused_headers" showname="00.0 ..0. = Unused: 0x00" size="1" pos="70" show="0x00000000" value="0" unmaskedvalue="04"/>
      </field>
      <field name="http2.r" showname="0... .... .... .... .... .... .... .... = Reserved: 0x0" size="4" pos="71" show="0x00000000" value="0" unmaskedvalue="00000003"/>
      <field name="http2.streamid" showname=".000 0000 0000 0000 0000 0000 0000 0011 = Stream Identifier: 3" size="4" pos="71" show="3" value="3" unmaskedvalue="00000003"/>
      <field name="http2.pad_length" showname="Pad Length: 0" size="0" pos="75" show="0"/>
      <field name="http2.headers" showname="Header Block Fragment: 8dc06196df697e94132a681fa5040132a08371b7ae34ca98\xe2\x80\xa6" size="33" pos="75" show="8d:c0:61:96:df:69:7e:94:13:2a:68:1f:a5:04:01:32:a0:83:71:b7:ae:34:ca:98:b4:6f:0f:0d:03:31:37:35:bf" value="8dc06196df697e94132a681fa5040132a08371b7ae34ca98b46f0f0d03313735bf"/>
      <field name="http2.header.length" showname="Header Length: 18" size="1" pos="66" show="18" value="00"/>
      <field name="http2.header.count" showname="Header Count: 1" size="1" pos="66" show="1" value="00"/>
      <field name="http2.header" showname="Header: :status: 404 Not Found" size="1" pos="75" show="" value="">
        <field name="http2.header.name.length" showname="Name Length: 7" size="4" pos="75" show="7" value="00000007"/>
        <field name="http2.header.name" showname="Name: :status" size="7" pos="79" show=":status" value="3a737461747573"/>
        <field name="http2.header.value.length" showname="Value Length: 3" size="4" pos="86" show="3" value="00000003"/>
        <field name="http2.header.value" showname="Value: 404" size="3" pos="90" show="404" value="343034"/>
        <field name="http2.headers.status" showname=":status: 404" size="3" pos="90" show="404" value="343034"/>
        <field name="http2.header.unescaped" showname="Unescaped: 404" size="3" pos="90" show="404" value="343034"/>
        <field name="http2.header.repr" showname="Representation: Indexed Header Field" size="1" pos="75" show="Indexed Header Field" value="8d"/>
        <field name="http2.header.index" showname="Index: 13" size="1" pos="75" show="13" value="8d"/>
      </field>
    </field>
  </proto>
</packet>


<packet>
  <proto name="geninfo" pos="0" showname="General information" size="250">
    <field name="num" pos="0" show="12" showname="Number" value="c" size="250"/>
    <field name="len" pos="0" show="250" showname="Frame Length" value="fa" size="250"/>
    <field name="caplen" pos="0" show="250" showname="Captured Length" value="fa" size="250"/>
    <field name="timestamp" pos="0" show="May 23, 2023 23:58:43.858449753 CEST" showname="Captured Time" value="1684879123.858449753" size="250"/>
  </proto>
  <proto name="frame" showname="Frame 12: 250 bytes on wire (2000 bits), 250 bytes captured (2000 bits) on interface veth_ausf, id 0" size="250" pos="0">
    <field name="filtered" value="frame" />
  </proto>
  <proto name="eth" showname="Ethernet II, Src: fe:f2:39:7d:56:21, Dst: ea:77:ac:4e:9a:ef" size="14" pos="0">
    <field name="filtered" value="eth" />
  </proto>
  <proto name="ip" showname="Internet Protocol Version 4, Src: 10.0.15.1, Dst: 10.0.4.1" size="20" pos="14">
    <field name="filtered" value="ip" />
  </proto>
  <proto name="tcp" showname="Transmission Control Protocol, Src Port: 7777, Dst Port: 51396, Seq: 2044239971, Ack: 735491008, Len: 184" size="32" pos="34">
    <field name="tcp.srcport" showname="Source Port: 7777" size="2" pos="34" show="7777" value="1e61"/>
    <field name="tcp.dstport" showname="Destination Port: 51396" size="2" pos="36" show="51396" value="c8c4"/>
    <field name="tcp.port" showname="Source or Destination Port: 7777" hide="yes" size="2" pos="34" show="7777" value="1e61"/>
    <field name="tcp.port" showname="Source or Destination Port: 51396" hide="yes" size="2" pos="36" show="51396" value="c8c4"/>
    <field name="tcp.stream" showname="Stream index: 1" size="0" pos="34" show="1"/>
    <field name="tcp.len" showname="TCP Segment Len: 184" size="1" pos="46" show="184" value="80"/>
    <field name="tcp.seq" showname="Sequence number: 2044239971" size="4" pos="38" show="2044239971" value="79d8a063"/>
    <field name="tcp.seq_raw" showname="Sequence number (raw): 2044239971" hide="yes" size="4" pos="38" show="2044239971" value="79d8a063"/>
    <field name="tcp.nxtseq" showname="Next sequence number: 2044240155" size="0" pos="34" show="2044240155"/>
    <field name="tcp.ack" showname="Acknowledgment number: 735491008" size="4" pos="42" show="735491008" value="2bd6b3c0"/>
    <field name="tcp.ack_raw" showname="Acknowledgment number (raw): 735491008" hide="yes" size="4" pos="42" show="735491008" value="2bd6b3c0"/>
    <field name="tcp.hdr_len" showname="1000 .... = Header Length: 32 bytes (8)" size="1" pos="46" show="32" value="80"/>
    <field name="tcp.flags" showname="Flags: 0x018 (PSH, ACK)" size="2" pos="46" show="0x00000018" value="18" unmaskedvalue="8018">
      <field name="tcp.flags.res" showname="000. .... .... = Reserved: Not set" size="1" pos="46" show="0" value="0" unmaskedvalue="80"/>
      <field name="tcp.flags.ns" showname="...0 .... .... = Nonce: Not set" size="1" pos="46" show="0" value="0" unmaskedvalue="80"/>
      <field name="tcp.flags.cwr" showname=".... 0... .... = Congestion Window Reduced (CWR): Not set" size="1" pos="47" show="0" value="0" unmaskedvalue="18"/>
      <field name="tcp.flags.ecn" showname=".... .0.. .... = ECN-Echo: Not set" size="1" pos="47" show="0" value="0" unmaskedvalue="18"/>
      <field name="tcp.flags.urg" showname=".... ..0. .... = Urgent: Not set" size="1" pos="47" show="0" value="0" unmaskedvalue="18"/>
      <field name="tcp.flags.ack" showname=".... ...1 .... = Acknowledgment: Set" size="1" pos="47" show="1" value="1" unmaskedvalue="18"/>
      <field name="tcp.flags.push" showname=".... .... 1... = Push: Set" size="1" pos="47" show="1" value="1" unmaskedvalue="18"/>
      <field name="tcp.flags.reset" showname=".... .... .0.. = Reset: Not set" size="1" pos="47" show="0" value="0" unmaskedvalue="18"/>
      <field name="tcp.flags.syn" showname=".... .... ..0. = Syn: Not set" size="1" pos="47" show="0" value="0" unmaskedvalue="18"/>
      <field name="tcp.flags.fin" showname=".... .... ...0 = Fin: Not set" size="1" pos="47" show="0" value="0" unmaskedvalue="18"/>
      <field name="tcp.flags.str" showname="TCP Flags: \xc2\xb7\xc2\xb7\xc2\xb7\xc2\xb7\xc2\xb7\xc2\xb7\xc2\xb7AP\xc2\xb7\xc2\xb7\xc2\xb7" size="2" pos="46" show="\xc2\xb7\xc2\xb7\xc2\xb7\xc2\xb7\xc2\xb7\xc2\xb7\xc2\xb7AP\xc2\xb7\xc2\xb7\xc2\xb7" value="8018"/>
    </field>
    <field name="tcp.window_size_value" showname="Window size value: 506" size="2" pos="48" show="506" value="01fa"/>
    <field name="tcp.window_size" showname="Calculated window size: 506" size="2" pos="48" show="506" value="01fa"/>
    <field name="tcp.window_size_scalefactor" showname="Window size scaling factor: -1 (unknown)" size="2" pos="48" show="-1" value="01fa"/>
    <field name="tcp.checksum" showname="Checksum: 0x27e0 [unverified]" size="2" pos="50" show="0x000027e0" value="27e0"/>
    <field name="tcp.checksum.status" showname="Checksum Status: Unverified" size="0" pos="50" show="2"/>
    <field name="tcp.urgent_pointer" showname="Urgent pointer: 0" size="2" pos="52" show="0" value="0000"/>
    <field name="tcp.options" showname="Options: (12 bytes), No-Operation (NOP), No-Operation (NOP), Timestamps" size="12" pos="54" show="01:01:08:0a:0a:4d:2b:8c:23:c2:17:b1" value="0101080a0a4d2b8c23c217b1">
      <field name="tcp.options.nop" showname="TCP Option - No-Operation (NOP)" size="1" pos="54" show="01" value="01">
        <field name="tcp.option_kind" showname="Kind: No-Operation (1)" size="1" pos="54" show="1" value="01"/>
      </field>
      <field name="tcp.options.nop" showname="TCP Option - No-Operation (NOP)" size="1" pos="55" show="01" value="01">
        <field name="tcp.option_kind" showname="Kind: No-Operation (1)" size="1" pos="55" show="1" value="01"/>
      </field>
      <field name="tcp.options.timestamp" showname="TCP Option - Timestamps: TSval 172829580, TSecr 599922609" size="10" pos="56" show="08:0a:0a:4d:2b:8c:23:c2:17:b1" value="080a0a4d2b8c23c217b1">
        <field name="tcp.option_kind" showname="Kind: Time Stamp Option (8)" size="1" pos="56" show="8" value="08"/>
        <field name="tcp.option_len" showname="Length: 10" size="1" pos="57" show="10" value="0a"/>
        <field name="tcp.options.timestamp.tsval" showname="Timestamp value: 172829580" size="4" pos="58" show="172829580" value="0a4d2b8c"/>
        <field name="tcp.options.timestamp.tsecr" showname="Timestamp echo reply: 599922609" size="4" pos="62" show="599922609" value="23c217b1"/>
      </field>
    </field>
    <field name="" show="Timestamps" size="0" pos="34">
      <field name="tcp.time_relative" showname="Time since first frame in this TCP stream: 0.006653245 seconds" size="0" pos="34" show="0.006653245"/>
      <field name="tcp.time_delta" showname="Time since previous frame in this TCP stream: 0.000030289 seconds" size="0" pos="34" show="0.000030289"/>
    </field>
    <field name="tcp.payload" showname="TCP payload (184 bytes)" size="184" pos="66" show="00:00:af:00:01:00:00:00:03:7b:0a:09:22:74:79:70:65:22:3a:09:22:2f:6e:75:64:72:2d:64:72:2f:76:31:22:2c:0a:09:22:74:69:74:6c:65:22:3a:09:22:5b:73:75:63:69:2d:30:2d:39:30:31:2d:37:30:2d:30:30:30:30:2d:30:2d:30:2d:30:30:30:30:30:30:30:31:32:33:34:5d:20:48:54:54:50:20:72:65:73:70:6f:6e:73:65:20:65:72:72:6f:72:20:5b:34:30:34:5d:22:2c:0a:09:22:73:74:61:74:75:73:22:3a:09:34:30:34:2c:0a:09:22:69:6e:73:74:61:6e:63:65:22:3a:09:22:2f:73:75:62:73:63:72:69:70:74:69:6f:6e:2d:64:61:74:61:2f:69:6d:73:69:2d:39:30:31:37:30:30:30:30:30:30:30:30:31:32:33:34:22:0a:7d" value="0000af0001000000037b0a092274797065223a09222f6e7564722d64722f7631222c0a09227469746c65223a09225b737563692d302d3930312d37302d303030302d302d302d30303030303030313233345d204854545020726573706f6e7365206572726f72205b3430345d222c0a0922737461747573223a093430342c0a0922696e7374616e6365223a09222f737562736372697074696f6e2d646174612f696d73692d39303137303030303030303031323334220a7d"/>
    <field name="tcp.pdu.size" showname="PDU Size: 184" size="184" pos="66" show="184" value="0000af0001000000037b0a092274797065223a09222f6e7564722d64722f7631222c0a09227469746c65223a09225b737563692d302d3930312d37302d303030302d302d302d30303030303030313233345d204854545020726573706f6e7365206572726f72205b3430345d222c0a0922737461747573223a093430342c0a0922696e7374616e6365223a09222f737562736372697074696f6e2d646174612f696d73692d39303137303030303030303031323334220a7d"/>
  </proto>
  <proto name="http2" showname="HyperText Transfer Protocol 2" size="184" pos="66">
    <field name="http2.stream" showname="Stream: DATA, Stream ID: 3, Length 175" size="184" pos="66" show="" value="">
      <field name="http2.length" showname="Length: 175" size="3" pos="66" show="175" value="0000af"/>
      <field name="http2.type" showname="Type: DATA (0)" size="1" pos="69" show="0" value="00"/>
      <field name="http2.flags" showname="Flags: 0x01" size="1" pos="70" show="0x00000001" value="01">
        <field name="http2.flags.end_stream" showname=".... ...1 = End Stream: True" size="1" pos="70" show="1" value="1" unmaskedvalue="01"/>
        <field name="http2.flags.padded" showname=".... 0... = Padded: False" size="1" pos="70" show="0" value="0" unmaskedvalue="01"/>
        <field name="http2.flags.unused_data" showname="0000 .00. = Unused: 0x00" size="1" pos="70" show="0x00000000" value="0" unmaskedvalue="01"/>
      </field>
      <field name="http2.r" showname="0... .... .... .... .... .... .... .... = Reserved: 0x0" size="4" pos="71" show="0x00000000" value="0" unmaskedvalue="00000003"/>
      <field name="http2.streamid" showname=".000 0000 0000 0000 0000 0000 0000 0011 = Stream Identifier: 3" size="4" pos="71" show="3" value="3" unmaskedvalue="00000003"/>
      <field name="http2.pad_length" showname="Pad Length: 0" size="0" pos="75" show="0"/>
      <field name="http2.data.data" showname="Data: 7b0a092274797065223a09222f6e7564722d64722f763122\xe2\x80\xa6" size="175" pos="75" show="7b:0a:09:22:74:79:70:65:22:3a:09:22:2f:6e:75:64:72:2d:64:72:2f:76:31:22:2c:0a:09:22:74:69:74:6c:65:22:3a:09:22:5b:73:75:63:69:2d:30:2d:39:30:31:2d:37:30:2d:30:30:30:30:2d:30:2d:30:2d:30:30:30:30:30:30:30:31:32:33:34:5d:20:48:54:54:50:20:72:65:73:70:6f:6e:73:65:20:65:72:72:6f:72:20:5b:34:30:34:5d:22:2c:0a:09:22:73:74:61:74:75:73:22:3a:09:34:30:34:2c:0a:09:22:69:6e:73:74:61:6e:63:65:22:3a:09:22:2f:73:75:62:73:63:72:69:70:74:69:6f:6e:2d:64:61:74:61:2f:69:6d:73:69:2d:39:30:31:37:30:30:30:30:30:30:30:30:31:32:33:34:22:0a:7d" value="7b0a092274797065223a09222f6e7564722d64722f7631222c0a09227469746c65223a09225b737563692d302d3930312d37302d303030302d302d302d30303030303030313233345d204854545020726573706f6e7365206572726f72205b3430345d222c0a0922737461747573223a093430342c0a0922696e7374616e6365223a09222f737562736372697074696f6e2d646174612f696d73692d39303137303030303030303031323334220a7d"/>
    </field>
  </proto>
</packet>


<packet>
  <proto name="geninfo" pos="0" showname="General information" size="139">
    <field name="num" pos="0" show="15" showname="Number" value="f" size="139"/>
    <field name="len" pos="0" show="139" showname="Frame Length" value="8b" size="139"/>
    <field name="caplen" pos="0" show="139" showname="Captured Length" value="8b" size="139"/>
    <field name="timestamp" pos="0" show="May 23, 2023 23:58:43.858822661 CEST" showname="Captured Time" value="1684879123.858822661" size="139"/>
  </proto>
  <proto name="frame" showname="Frame 15: 139 bytes on wire (1112 bits), 139 bytes captured (1112 bits) on interface veth_ausf, id 0" size="139" pos="0">
    <field name="filtered" value="frame" />
  </proto>
  <proto name="eth" showname="Ethernet II, Src: ea:77:ac:4e:9a:ef, Dst: fe:f2:39:7d:56:21" size="14" pos="0">
    <field name="filtered" value="eth" />
  </proto>
  <proto name="ip" showname="Internet Protocol Version 4, Src: 10.0.4.1, Dst: 10.0.4.2" size="20" pos="14">
    <field name="filtered" value="ip" />
  </proto>
  <proto name="tcp" showname="Transmission Control Protocol, Src Port: 7777, Dst Port: 38758, Seq: 2500380186, Ack: 1222044019, Len: 73" size="32" pos="34">
    <field name="tcp.srcport" showname="Source Port: 7777" size="2" pos="34" show="7777" value="1e61"/>
    <field name="tcp.dstport" showname="Destination Port: 38758" size="2" pos="36" show="38758" value="9766"/>
    <field name="tcp.port" showname="Source or Destination Port: 7777" hide="yes" size="2" pos="34" show="7777" value="1e61"/>
    <field name="tcp.port" showname="Source or Destination Port: 38758" hide="yes" size="2" pos="36" show="38758" value="9766"/>
    <field name="tcp.stream" showname="Stream index: 0" size="0" pos="34" show="0"/>
    <field name="tcp.len" showname="TCP Segment Len: 73" size="1" pos="46" show="73" value="80"/>
    <field name="tcp.seq" showname="Sequence number: 2500380186" size="4" pos="38" show="2500380186" value="9508c61a"/>
    <field name="tcp.seq_raw" showname="Sequence number (raw): 2500380186" hide="yes" size="4" pos="38" show="2500380186" value="9508c61a"/>
    <field name="tcp.nxtseq" showname="Next sequence number: 2500380259" size="0" pos="34" show="2500380259"/>
    <field name="tcp.ack" showname="Acknowledgment number: 1222044019" size="4" pos="42" show="1222044019" value="48d6e973"/>
    <field name="tcp.ack_raw" showname="Acknowledgment number (raw): 1222044019" hide="yes" size="4" pos="42" show="1222044019" value="48d6e973"/>
    <field name="tcp.hdr_len" showname="1000 .... = Header Length: 32 bytes (8)" size="1" pos="46" show="32" value="80"/>
    <field name="tcp.flags" showname="Flags: 0x018 (PSH, ACK)" size="2" pos="46" show="0x00000018" value="18" unmaskedvalue="8018">
      <field name="tcp.flags.res" showname="000. .... .... = Reserved: Not set" size="1" pos="46" show="0" value="0" unmaskedvalue="80"/>
      <field name="tcp.flags.ns" showname="...0 .... .... = Nonce: Not set" size="1" pos="46" show="0" value="0" unmaskedvalue="80"/>
      <field name="tcp.flags.cwr" showname=".... 0... .... = Congestion Window Reduced (CWR): Not set" size="1" pos="47" show="0" value="0" unmaskedvalue="18"/>
      <field name="tcp.flags.ecn" showname=".... .0.. .... = ECN-Echo: Not set" size="1" pos="47" show="0" value="0" unmaskedvalue="18"/>
      <field name="tcp.flags.urg" showname=".... ..0. .... = Urgent: Not set" size="1" pos="47" show="0" value="0" unmaskedvalue="18"/>
      <field name="tcp.flags.ack" showname=".... ...1 .... = Acknowledgment: Set" size="1" pos="47" show="1" value="1" unmaskedvalue="18"/>
      <field name="tcp.flags.push" showname=".... .... 1... = Push: Set" size="1" pos="47" show="1" value="1" unmaskedvalue="18"/>
      <field name="tcp.flags.reset" showname=".... .... .0.. = Reset: Not set" size="1" pos="47" show="0" value="0" unmaskedvalue="18"/>
      <field name="tcp.flags.syn" showname=".... .... ..0. = Syn: Not set" size="1" pos="47" show="0" value="0" unmaskedvalue="18"/>
      <field name="tcp.flags.fin" showname=".... .... ...0 = Fin: Not set" size="1" pos="47" show="0" value="0" unmaskedvalue="18"/>
      <field name="tcp.flags.str" showname="TCP Flags: \xc2\xb7\xc2\xb7\xc2\xb7\xc2\xb7\xc2\xb7\xc2\xb7\xc2\xb7AP\xc2\xb7\xc2\xb7\xc2\xb7" size="2" pos="46" show="\xc2\xb7\xc2\xb7\xc2\xb7\xc2\xb7\xc2\xb7\xc2\xb7\xc2\xb7AP\xc2\xb7\xc2\xb7\xc2\xb7" value="8018"/>
    </field>
    <field name="tcp.window_size_value" showname="Window size value: 508" size="2" pos="48" show="508" value="01fc"/>
    <field name="tcp.window_size" showname="Calculated window size: 65024" size="2" pos="48" show="65024" value="01fc"/>
    <field name="tcp.window_size_scalefactor" showname="Window size scaling factor: 128" size="2" pos="48" show="128" value="01fc"/>
    <field name="tcp.checksum" showname="Checksum: 0x1c72 [unverified]" size="2" pos="50" show="0x00001c72" value="1c72"/>
    <field name="tcp.checksum.status" showname="Checksum Status: Unverified" size="0" pos="50" show="2"/>
    <field name="tcp.urgent_pointer" showname="Urgent pointer: 0" size="2" pos="52" show="0" value="0000"/>
    <field name="tcp.options" showname="Options: (12 bytes), No-Operation (NOP), No-Operation (NOP), Timestamps" size="12" pos="54" show="01:01:08:0a:3f:e5:5b:6c:4c:29:9c:b8" value="0101080a3fe55b6c4c299cb8">
      <field name="tcp.options.nop" showname="TCP Option - No-Operation (NOP)" size="1" pos="54" show="01" value="01">
        <field name="tcp.option_kind" showname="Kind: No-Operation (1)" size="1" pos="54" show="1" value="01"/>
      </field>
      <field name="tcp.options.nop" showname="TCP Option - No-Operation (NOP)" size="1" pos="55" show="01" value="01">
        <field name="tcp.option_kind" showname="Kind: No-Operation (1)" size="1" pos="55" show="1" value="01"/>
      </field>
      <field name="tcp.options.timestamp" showname="TCP Option - Timestamps: TSval 1071995756, TSecr 1277795512" size="10" pos="56" show="08:0a:3f:e5:5b:6c:4c:29:9c:b8" value="080a3fe55b6c4c299cb8">
        <field name="tcp.option_kind" showname="Kind: Time Stamp Option (8)" size="1" pos="56" show="8" value="08"/>
        <field name="tcp.option_len" showname="Length: 10" size="1" pos="57" show="10" value="0a"/>
        <field name="tcp.options.timestamp.tsval" showname="Timestamp value: 1071995756" size="4" pos="58" show="1071995756" value="3fe55b6c"/>
        <field name="tcp.options.timestamp.tsecr" showname="Timestamp echo reply: 1277795512" size="4" pos="62" show="1277795512" value="4c299cb8"/>
      </field>
    </field>
    <field name="" show="Timestamps" size="0" pos="34">
      <field name="tcp.time_relative" showname="Time since first frame in this TCP stream: 0.021982872 seconds" size="0" pos="34" show="0.021982872"/>
      <field name="tcp.time_delta" showname="Time since previous frame in this TCP stream: 0.000024848 seconds" size="0" pos="34" show="0.000024848"/>
    </field>
    <field name="tcp.payload" showname="TCP payload (73 bytes)" size="73" pos="66" show="00:00:40:01:04:00:00:00:0d:8d:76:8c:d5:59:6a:6f:16:e5:3b:89:76:97:08:3f:61:96:df:69:7e:94:13:2a:68:1f:a5:04:01:32:a0:83:71:b7:ae:34:ca:98:b4:6f:0f:0d:82:08:01:5f:92:1d:75:d0:62:0d:26:3d:4c:57:61:e3:a0:b4:ff:be:88:3d:5f" value="00004001040000000d8d768cd5596a6f16e53b897697083f6196df697e94132a681fa5040132a08371b7ae34ca98b46f0f0d8208015f921d75d0620d263d4c5761e3a0b4ffbe883d5f"/>
    <field name="tcp.pdu.size" showname="PDU Size: 73" size="73" pos="66" show="73" value="00004001040000000d8d768cd5596a6f16e53b897697083f6196df697e94132a681fa5040132a08371b7ae34ca98b46f0f0d8208015f921d75d0620d263d4c5761e3a0b4ffbe883d5f"/>
  </proto>
  <proto name="http2" showname="HyperText Transfer Protocol 2" size="73" pos="66">
    <field name="http2.stream" showname="Stream: HEADERS, Stream ID: 13, Length 64, 404 Not Found" size="73" pos="66" show="" value="">
      <field name="http2.length" showname="Length: 64" size="3" pos="66" show="64" value="000040"/>
      <field name="http2.type" showname="Type: HEADERS (1)" size="1" pos="69" show="1" value="01"/>
      <field name="http2.flags" showname="Flags: 0x04" size="1" pos="70" show="0x00000004" value="04">
        <field name="http2.flags.end_stream" showname=".... ...0 = End Stream: False" size="1" pos="70" show="0" value="0" unmaskedvalue="04"/>
        <field name="http2.flags.eh" showname=".... .1.. = End Headers: True" size="1" pos="70" show="1" value="1" unmaskedvalue="04"/>
        <field name="http2.flags.padded" showname=".... 0... = Padded: False" size="1" pos="70" show="0" value="0" unmaskedvalue="04"/>
        <field name="http2.flags.priority" showname="..0. .... = Priority: False" size="1" pos="70" show="0" value="0" unmaskedvalue="04"/>
        <field name="http2.flags.unused_headers" showname="00.0 ..0. = Unused: 0x00" size="1" pos="70" show="0x00000000" value="0" unmaskedvalue="04"/>
      </field>
      <field name="http2.r" showname="0... .... .... .... .... .... .... .... = Reserved: 0x0" size="4" pos="71" show="0x00000000" value="0" unmaskedvalue="0000000d"/>
      <field name="http2.streamid" showname=".000 0000 0000 0000 0000 0000 0000 1101 = Stream Identifier: 13" size="4" pos="71" show="13" value="D" unmaskedvalue="0000000d"/>
      <field name="http2.pad_length" showname="Pad Length: 0" size="0" pos="75" show="0"/>
      <field name="http2.headers" showname="Header Block Fragment: 8d768cd5596a6f16e53b897697083f6196df697e94132a68\xe2\x80\xa6" size="64" pos="75" show="8d:76:8c:d5:59:6a:6f:16:e5:3b:89:76:97:08:3f:61:96:df:69:7e:94:13:2a:68:1f:a5:04:01:32:a0:83:71:b7:ae:34:ca:98:b4:6f:0f:0d:82:08:01:5f:92:1d:75:d0:62:0d:26:3d:4c:57:61:e3:a0:b4:ff:be:88:3d:5f" value="8d768cd5596a6f16e53b897697083f6196df697e94132a681fa5040132a08371b7ae34ca98b46f0f0d8208015f921d75d0620d263d4c5761e3a0b4ffbe883d5f"/>
      <field name="http2.header.length" showname="Header Length: 157" size="1" pos="66" show="157" value="00"/>
      <field name="http2.header.count" showname="Header Count: 5" size="1" pos="66" show="5" value="00"/>
      <field name="http2.header" showname="Header: :status: 404 Not Found" size="1" pos="75" show="" value="">
        <field name="http2.header.name.length" showname="Name Length: 7" size="4" pos="75" show="7" value="00000007"/>
        <field name="http2.header.name" showname="Name: :status" size="7" pos="79" show=":status" value="3a737461747573"/>
        <field name="http2.header.value.length" showname="Value Length: 3" size="4" pos="86" show="3" value="00000003"/>
        <field name="http2.header.value" showname="Value: 404" size="3" pos="90" show="404" value="343034"/>
        <field name="http2.headers.status" showname=":status: 404" size="3" pos="90" show="404" value="343034"/>
        <field name="http2.header.unescaped" showname="Unescaped: 404" size="3" pos="90" show="404" value="343034"/>
        <field name="http2.header.repr" showname="Representation: Indexed Header Field" size="1" pos="75" show="Indexed Header Field" value="8d"/>
        <field name="http2.header.index" showname="Index: 13" size="1" pos="75" show="13" value="8d"/>
      </field>
      <field name="http2.header" showname="Header: server: Open5GS v2.4.10" size="14" pos="76" show="" value="">
        <field name="http2.header.name.length" showname="Name Length: 6" size="4" pos="94" show="6" value="00000006"/>
        <field name="http2.header.name" showname="Name: server" size="6" pos="98" show="server" value="736572766572"/>
        <field name="http2.header.value.length" showname="Value Length: 15" size="4" pos="104" show="15" value="0000000f"/>
        <field name="http2.header.value" showname="Value: Open5GS v2.4.10" size="15" pos="108" show="Open5GS v2.4.10" value="4f70656e3547532076322e342e3130"/>
        <field name="http2.headers.server" showname="server: Open5GS v2.4.10" size="15" pos="108" show="Open5GS v2.4.10" value="4f70656e3547532076322e342e3130"/>
        <field name="http2.header.unescaped" showname="Unescaped: Open5GS v2.4.10" size="15" pos="108" show="Open5GS v2.4.10" value="4f70656e3547532076322e342e3130"/>
        <field name="http2.header.repr" showname="Representation: Literal Header Field with Incremental Indexing - Indexed Name" size="1" pos="76" show="Literal Header Field with Incremental Indexing - Indexed Name" value="76"/>
        <field name="http2.header.index" showname="Index: 54" size="1" pos="76" show="54" value="76"/>
      </field>
      <field name="http2.header" showname="Header: date: Tue, 23 May 2023 21:58:43 GMT" size="24" pos="90" show="" value="">
        <field name="http2.header.name.length" showname="Name Length: 4" size="4" pos="137" show="4" value="00000004"/>
        <field name="http2.header.name" showname="Name: date" size="4" pos="141" show="date" value="64617465"/>
        <field name="http2.header.value.length" showname="Value Length: 29" size="4" pos="145" show="29" value="0000001d"/>
        <field name="http2.header.value" showname="Value: Tue, 23 May 2023 21:58:43 GMT" size="29" pos="149" show="Tue, 23 May 2023 21:58:43 GMT" value="5475652c203233204d617920323032332032313a35383a343320474d54"/>
        <field name="http2.headers.date" showname="date: Tue, 23 May 2023 21:58:43 GMT" size="29" pos="149" show="Tue, 23 May 2023 21:58:43 GMT" value="5475652c203233204d617920323032332032313a35383a343320474d54"/>
        <field name="http2.header.unescaped" showname="Unescaped: Tue, 23 May 2023 21:58:43 GMT" size="29" pos="149" show="Tue, 23 May 2023 21:58:43 GMT" value="5475652c203233204d617920323032332032313a35383a343320474d54"/>
        <field name="http2.header.repr" showname="Representation: Literal Header Field with Incremental Indexing - Indexed Name" size="1" pos="90" show="Literal Header Field with Incremental Indexing - Indexed Name" value="61"/>
        <field name="http2.header.index" showname="Index: 33" size="1" pos="90" show="33" value="61"/>
      </field>
      <field name="http2.header" showname="Header: content-length: 100" size="5" pos="114" show="" value="">
        <field name="http2.header.name.length" showname="Name Length: 14" size="4" pos="202" show="14" value="0000000e"/>
        <field name="http2.header.name" showname="Name: content-length" size="14" pos="206" show="content-length" value="636f6e74656e742d6c656e677468"/>
        <field name="http2.header.value.length" showname="Value Length: 3" size="4" pos="220" show="3" value="00000003"/>
        <field name="http2.header.value" showname="Value: 100" size="3" pos="224" show="100" value="313030"/>
        <field name="http2.headers.content_length" showname="content-length: 100" size="3" pos="224" show="100" value="313030"/>
        <field name="http2.header.unescaped" showname="Unescaped: 100" size="3" pos="224" show="100" value="313030"/>
        <field name="http2.header.repr" showname="Representation: Literal Header Field without Indexing - Indexed Name" size="1" pos="114" show="Literal Header Field without Indexing - Indexed Name" value="0f"/>
        <field name="http2.header.index" showname="Index: 28" size="1" pos="114" show="28" value="0f"/>
      </field>
      <field name="http2.header" showname="Header: content-type: application/problem+json" size="20" pos="119" show="" value="">
        <field name="http2.header.name.length" showname="Name Length: 12" size="4" pos="232" show="12" value="0000000c"/>
        <field name="http2.header.name" showname="Name: content-type" size="12" pos="236" show="content-type" value="636f6e74656e742d74797065"/>
        <field name="http2.header.value.length" showname="Value Length: 24" size="4" pos="129" show="24" value="00000018"/>
        <field name="http2.header.value" showname="Value: application/problem+json" size="24" pos="133" show="application/problem+json" value="6170706c69636174696f6e2f70726f626c656d2b6a736f6e"/>
        <field name="http2.headers.content_type" showname="content-type: application/problem+json" size="24" pos="133" show="application/problem+json" value="6170706c69636174696f6e2f70726f626c656d2b6a736f6e"/>
        <field name="http2.header.unescaped" showname="Unescaped: application/problem+json" size="24" pos="133" show="application/problem+json" value="6170706c69636174696f6e2f70726f626c656d2b6a736f6e"/>
        <field name="http2.header.repr" showname="Representation: Literal Header Field with Incremental Indexing - Indexed Name" size="1" pos="119" show="Literal Header Field with Incremental Indexing - Indexed Name" value="5f"/>
        <field name="http2.header.index" showname="Index: 31" size="1" pos="119" show="31" value="5f"/>
      </field>
    </field>
  </proto>
</packet>


<packet>
  <proto name="geninfo" pos="0" showname="General information" size="175">
    <field name="num" pos="0" show="16" showname="Number" value="10" size="175"/>
    <field name="len" pos="0" show="175" showname="Frame Length" value="af" size="175"/>
    <field name="caplen" pos="0" show="175" showname="Captured Length" value="af" size="175"/>
    <field name="timestamp" pos="0" show="May 23, 2023 23:58:43.858857355 CEST" showname="Captured Time" value="1684879123.858857355" size="175"/>
  </proto>
  <proto name="frame" showname="Frame 16: 175 bytes on wire (1400 bits), 175 bytes captured (1400 bits) on interface veth_ausf, id 0" size="175" pos="0">
    <field name="filtered" value="frame" />
  </proto>
  <proto name="eth" showname="Ethernet II, Src: ea:77:ac:4e:9a:ef, Dst: fe:f2:39:7d:56:21" size="14" pos="0">
    <field name="filtered" value="eth" />
  </proto>
  <proto name="ip" showname="Internet Protocol Version 4, Src: 10.0.4.1, Dst: 10.0.4.2" size="20" pos="14">
    <field name="filtered" value="ip" />
  </proto>
  <proto name="tcp" showname="Transmission Control Protocol, Src Port: 7777, Dst Port: 38758, Seq: 2500380259, Ack: 1222044019, Len: 109" size="32" pos="34">
    <field name="tcp.srcport" showname="Source Port: 7777" size="2" pos="34" show="7777" value="1e61"/>
    <field name="tcp.dstport" showname="Destination Port: 38758" size="2" pos="36" show="38758" value="9766"/>
    <field name="tcp.port" showname="Source or Destination Port: 7777" hide="yes" size="2" pos="34" show="7777" value="1e61"/>
    <field name="tcp.port" showname="Source or Destination Port: 38758" hide="yes" size="2" pos="36" show="38758" value="9766"/>
    <field name="tcp.stream" showname="Stream index: 0" size="0" pos="34" show="0"/>
    <field name="tcp.len" showname="TCP Segment Len: 109" size="1" pos="46" show="109" value="80"/>
    <field name="tcp.seq" showname="Sequence number: 2500380259" size="4" pos="38" show="2500380259" value="9508c663"/>
    <field name="tcp.seq_raw" showname="Sequence number (raw): 2500380259" hide="yes" size="4" pos="38" show="2500380259" value="9508c663"/>
    <field name="tcp.nxtseq" showname="Next sequence number: 2500380368" size="0" pos="34" show="2500380368"/>
    <field name="tcp.ack" showname="Acknowledgment number: 1222044019" size="4" pos="42" show="1222044019" value="48d6e973"/>
    <field name="tcp.ack_raw" showname="Acknowledgment number (raw): 1222044019" hide="yes" size="4" pos="42" show="1222044019" value="48d6e973"/>
    <field name="tcp.hdr_len" showname="1000 .... = Header Length: 32 bytes (8)" size="1" pos="46" show="32" value="80"/>
    <field name="tcp.flags" showname="Flags: 0x018 (PSH, ACK)" size="2" pos="46" show="0x00000018" value="18" unmaskedvalue="8018">
      <field name="tcp.flags.res" showname="000. .... .... = Reserved: Not set" size="1" pos="46" show="0" value="0" unmaskedvalue="80"/>
      <field name="tcp.flags.ns" showname="...0 .... .... = Nonce: Not set" size="1" pos="46" show="0" value="0" unmaskedvalue="80"/>
      <field name="tcp.flags.cwr" showname=".... 0... .... = Congestion Window Reduced (CWR): Not set" size="1" pos="47" show="0" value="0" unmaskedvalue="18"/>
      <field name="tcp.flags.ecn" showname=".... .0.. .... = ECN-Echo: Not set" size="1" pos="47" show="0" value="0" unmaskedvalue="18"/>
      <field name="tcp.flags.urg" showname=".... ..0. .... = Urgent: Not set" size="1" pos="47" show="0" value="0" unmaskedvalue="18"/>
      <field name="tcp.flags.ack" showname=".... ...1 .... = Acknowledgment: Set" size="1" pos="47" show="1" value="1" unmaskedvalue="18"/>
      <field name="tcp.flags.push" showname=".... .... 1... = Push: Set" size="1" pos="47" show="1" value="1" unmaskedvalue="18"/>
      <field name="tcp.flags.reset" showname=".... .... .0.. = Reset: Not set" size="1" pos="47" show="0" value="0" unmaskedvalue="18"/>
      <field name="tcp.flags.syn" showname=".... .... ..0. = Syn: Not set" size="1" pos="47" show="0" value="0" unmaskedvalue="18"/>
      <field name="tcp.flags.fin" showname=".... .... ...0 = Fin: Not set" size="1" pos="47" show="0" value="0" unmaskedvalue="18"/>
      <field name="tcp.flags.str" showname="TCP Flags: \xc2\xb7\xc2\xb7\xc2\xb7\xc2\xb7\xc2\xb7\xc2\xb7\xc2\xb7AP\xc2\xb7\xc2\xb7\xc2\xb7" size="2" pos="46" show="\xc2\xb7\xc2\xb7\xc2\xb7\xc2\xb7\xc2\xb7\xc2\xb7\xc2\xb7AP\xc2\xb7\xc2\xb7\xc2\xb7" value="8018"/>
    </field>
    <field name="tcp.window_size_value" showname="Window size value: 508" size="2" pos="48" show="508" value="01fc"/>
    <field name="tcp.window_size" showname="Calculated window size: 65024" size="2" pos="48" show="65024" value="01fc"/>
    <field name="tcp.window_size_scalefactor" showname="Window size scaling factor: 128" size="2" pos="48" show="128" value="01fc"/>
    <field name="tcp.checksum" showname="Checksum: 0x1c96 [unverified]" size="2" pos="50" show="0x00001c96" value="1c96"/>
    <field name="tcp.checksum.status" showname="Checksum Status: Unverified" size="0" pos="50" show="2"/>
    <field name="tcp.urgent_pointer" showname="Urgent pointer: 0" size="2" pos="52" show="0" value="0000"/>
    <field name="tcp.options" showname="Options: (12 bytes), No-Operation (NOP), No-Operation (NOP), Timestamps" size="12" pos="54" show="01:01:08:0a:3f:e5:5b:6c:4c:29:9c:b8" value="0101080a3fe55b6c4c299cb8">
      <field name="tcp.options.nop" showname="TCP Option - No-Operation (NOP)" size="1" pos="54" show="01" value="01">
        <field name="tcp.option_kind" showname="Kind: No-Operation (1)" size="1" pos="54" show="1" value="01"/>
      </field>
      <field name="tcp.options.nop" showname="TCP Option - No-Operation (NOP)" size="1" pos="55" show="01" value="01">
        <field name="tcp.option_kind" showname="Kind: No-Operation (1)" size="1" pos="55" show="1" value="01"/>
      </field>
      <field name="tcp.options.timestamp" showname="TCP Option - Timestamps: TSval 1071995756, TSecr 1277795512" size="10" pos="56" show="08:0a:3f:e5:5b:6c:4c:29:9c:b8" value="080a3fe55b6c4c299cb8">
        <field name="tcp.option_kind" showname="Kind: Time Stamp Option (8)" size="1" pos="56" show="8" value="08"/>
        <field name="tcp.option_len" showname="Length: 10" size="1" pos="57" show="10" value="0a"/>
        <field name="tcp.options.timestamp.tsval" showname="Timestamp value: 1071995756" size="4" pos="58" show="1071995756" value="3fe55b6c"/>
        <field name="tcp.options.timestamp.tsecr" showname="Timestamp echo reply: 1277795512" size="4" pos="62" show="1277795512" value="4c299cb8"/>
      </field>
    </field>
    <field name="" show="Timestamps" size="0" pos="34">
      <field name="tcp.time_relative" showname="Time since first frame in this TCP stream: 0.022017566 seconds" size="0" pos="34" show="0.022017566"/>
      <field name="tcp.time_delta" showname="Time since previous frame in this TCP stream: 0.000034694 seconds" size="0" pos="34" show="0.000034694"/>
    </field>
    <field name="tcp.payload" showname="TCP payload (109 bytes)" size="109" pos="66" show="00:00:64:00:01:00:00:00:0d:7b:0a:09:22:74:69:74:6c:65:22:3a:09:22:48:54:54:50:20:72:65:73:70:6f:6e:73:65:20:65:72:72:6f:72:22:2c:0a:09:22:73:74:61:74:75:73:22:3a:09:34:30:34:2c:0a:09:22:64:65:74:61:69:6c:22:3a:09:22:73:75:63:69:2d:30:2d:39:30:31:2d:37:30:2d:30:30:30:30:2d:30:2d:30:2d:30:30:30:30:30:30:30:31:32:33:34:22:0a:7d" value="00006400010000000d7b0a09227469746c65223a09224854545020726573706f6e7365206572726f72222c0a0922737461747573223a093430342c0a092264657461696c223a0922737563692d302d3930312d37302d303030302d302d302d3030303030303031323334220a7d"/>
    <field name="tcp.pdu.size" showname="PDU Size: 109" size="109" pos="66" show="109" value="00006400010000000d7b0a09227469746c65223a09224854545020726573706f6e7365206572726f72222c0a0922737461747573223a093430342c0a092264657461696c223a0922737563692d302d3930312d37302d303030302d302d302d3030303030303031323334220a7d"/>
  </proto>
  <proto name="http2" showname="HyperText Transfer Protocol 2" size="109" pos="66">
    <field name="http2.stream" showname="Stream: DATA, Stream ID: 13, Length 100" size="109" pos="66" show="" value="">
      <field name="http2.length" showname="Length: 100" size="3" pos="66" show="100" value="000064"/>
      <field name="http2.type" showname="Type: DATA (0)" size="1" pos="69" show="0" value="00"/>
      <field name="http2.flags" showname="Flags: 0x01" size="1" pos="70" show="0x00000001" value="01">
        <field name="http2.flags.end_stream" showname=".... ...1 = End Stream: True" size="1" pos="70" show="1" value="1" unmaskedvalue="01"/>
        <field name="http2.flags.padded" showname=".... 0... = Padded: False" size="1" pos="70" show="0" value="0" unmaskedvalue="01"/>
        <field name="http2.flags.unused_data" showname="0000 .00. = Unused: 0x00" size="1" pos="70" show="0x00000000" value="0" unmaskedvalue="01"/>
      </field>
      <field name="http2.r" showname="0... .... .... .... .... .... .... .... = Reserved: 0x0" size="4" pos="71" show="0x00000000" value="0" unmaskedvalue="0000000d"/>
      <field name="http2.streamid" showname=".000 0000 0000 0000 0000 0000 0000 1101 = Stream Identifier: 13" size="4" pos="71" show="13" value="D" unmaskedvalue="0000000d"/>
      <field name="http2.pad_length" showname="Pad Length: 0" size="0" pos="75" show="0"/>
      <field name="http2.data.data" showname="Data: 7b0a09227469746c65223a09224854545020726573706f6e\xe2\x80\xa6" size="100" pos="75" show="7b:0a:09:22:74:69:74:6c:65:22:3a:09:22:48:54:54:50:20:72:65:73:70:6f:6e:73:65:20:65:72:72:6f:72:22:2c:0a:09:22:73:74:61:74:75:73:22:3a:09:34:30:34:2c:0a:09:22:64:65:74:61:69:6c:22:3a:09:22:73:75:63:69:2d:30:2d:39:30:31:2d:37:30:2d:30:30:30:30:2d:30:2d:30:2d:30:30:30:30:30:30:30:31:32:33:34:22:0a:7d" value="7b0a09227469746c65223a09224854545020726573706f6e7365206572726f72222c0a0922737461747573223a093430342c0a092264657461696c223a0922737563692d302d3930312d37302d303030302d302d302d3030303030303031323334220a7d"/>
    </field>
    <proto name="json" showname="JavaScript Object Notation: application/problem+json" size="100" pos="75">
      <field name="json.object" showname="Object" size="100" pos="75" show="" value="">
        <field name="json.member" showname="Member Key: title" size="30" pos="78" show="" value="">
          <field name="json.value.string" showname="String value: HTTP response error" size="21" pos="87" show="HTTP response error" value="224854545020726573706f6e7365206572726f7222"/>
          <field name="json.key" showname="Key: title" size="7" pos="78" show="title" value="227469746c6522"/>
        </field>
        <field name="json.member" showname="Member Key: status" size="13" pos="111" show="" value="">
          <field name="json.value.number" showname="Number value: 404" size="3" pos="121" show="404" value="343034"/>
          <field name="json.key" showname="Key: status" size="8" pos="111" show="status" value="2273746174757322"/>
        </field>
        <field name="json.member" showname="Member Key: detail" size="46" pos="127" show="" value="">
          <field name="json.value.string" showname="String value: suci-0-901-70-0000-0-0-00000001234" size="36" pos="137" show="suci-0-901-70-0000-0-0-00000001234" value="22737563692d302d3930312d37302d303030302d302d302d303030303030303132333422"/>
          <field name="json.key" showname="Key: detail" size="8" pos="127" show="detail" value="2264657461696c22"/>
        </field>
      </field>
    </proto>
  </proto>
</packet>


<packet>
  <proto name="geninfo" pos="0" showname="General information" size="131">
    <field name="num" pos="0" show="23" showname="Number" value="17" size="131"/>
    <field name="len" pos="0" show="131" showname="Frame Length" value="83" size="131"/>
    <field name="caplen" pos="0" show="131" showname="Captured Length" value="83" size="131"/>
    <field name="timestamp" pos="0" show="May 23, 2023 23:58:50.217661501 CEST" showname="Captured Time" value="1684879130.217661501" size="131"/>
  </proto>
  <proto name="frame" showname="Frame 23: 131 bytes on wire (1048 bits), 131 bytes captured (1048 bits) on interface veth_ausf, id 0" size="131" pos="0">
    <field name="filtered" value="frame" />
  </proto>
  <proto name="eth" showname="Ethernet II, Src: ea:77:ac:4e:9a:ef, Dst: fe:f2:39:7d:56:21" size="14" pos="0">
    <field name="filtered" value="eth" />
  </proto>
  <proto name="ip" showname="Internet Protocol Version 4, Src: 10.0.4.1, Dst: 10.0.8.1" size="20" pos="14">
    <field name="filtered" value="ip" />
  </proto>
  <proto name="tcp" showname="Transmission Control Protocol, Src Port: 47154, Dst Port: 7777, Seq: 2251164766, Ack: 2036176145, Len: 65" size="32" pos="34">
    <field name="tcp.srcport" showname="Source Port: 47154" size="2" pos="34" show="47154" value="b832"/>
    <field name="tcp.dstport" showname="Destination Port: 7777" size="2" pos="36" show="7777" value="1e61"/>
    <field name="tcp.port" showname="Source or Destination Port: 47154" hide="yes" size="2" pos="34" show="47154" value="b832"/>
    <field name="tcp.port" showname="Source or Destination Port: 7777" hide="yes" size="2" pos="36" show="7777" value="1e61"/>
    <field name="tcp.stream" showname="Stream index: 2" size="0" pos="34" show="2"/>
    <field name="tcp.len" showname="TCP Segment Len: 65" size="1" pos="46" show="65" value="80"/>
    <field name="tcp.seq" showname="Sequence number: 2251164766" size="4" pos="38" show="2251164766" value="862e0c5e"/>
    <field name="tcp.seq_raw" showname="Sequence number (raw): 2251164766" hide="yes" size="4" pos="38" show="2251164766" value="862e0c5e"/>
    <field name="tcp.nxtseq" showname="Next sequence number: 2251164831" size="0" pos="34" show="2251164831"/>
    <field name="tcp.ack" showname="Acknowledgment number: 2036176145" size="4" pos="42" show="2036176145" value="795d9511"/>
    <field name="tcp.ack_raw" showname="Acknowledgment number (raw): 2036176145" hide="yes" size="4" pos="42" show="2036176145" value="795d9511"/>
    <field name="tcp.hdr_len" showname="1000 .... = Header Length: 32 bytes (8)" size="1" pos="46" show="32" value="80"/>
    <field name="tcp.flags" showname="Flags: 0x018 (PSH, ACK)" size="2" pos="46" show="0x00000018" value="18" unmaskedvalue="8018">
      <field name="tcp.flags.res" showname="000. .... .... = Reserved: Not set" size="1" pos="46" show="0" value="0" unmaskedvalue="80"/>
      <field name="tcp.flags.ns" showname="...0 .... .... = Nonce: Not set" size="1" pos="46" show="0" value="0" unmaskedvalue="80"/>
      <field name="tcp.flags.cwr" showname=".... 0... .... = Congestion Window Reduced (CWR): Not set" size="1" pos="47" show="0" value="0" unmaskedvalue="18"/>
      <field name="tcp.flags.ecn" showname=".... .0.. .... = ECN-Echo: Not set" size="1" pos="47" show="0" value="0" unmaskedvalue="18"/>
      <field name="tcp.flags.urg" showname=".... ..0. .... = Urgent: Not set" size="1" pos="47" show="0" value="0" unmaskedvalue="18"/>
      <field name="tcp.flags.ack" showname=".... ...1 .... = Acknowledgment: Set" size="1" pos="47" show="1" value="1" unmaskedvalue="18"/>
      <field name="tcp.flags.push" showname=".... .... 1... = Push: Set" size="1" pos="47" show="1" value="1" unmaskedvalue="18"/>
      <field name="tcp.flags.reset" showname=".... .... .0.. = Reset: Not set" size="1" pos="47" show="0" value="0" unmaskedvalue="18"/>
      <field name="tcp.flags.syn" showname=".... .... ..0. = Syn: Not set" size="1" pos="47" show="0" value="0" unmaskedvalue="18"/>
      <field name="tcp.flags.fin" showname=".... .... ...0 = Fin: Not set" size="1" pos="47" show="0" value="0" unmaskedvalue="18"/>
      <field name="tcp.flags.str" showname="TCP Flags: \xc2\xb7\xc2\xb7\xc2\xb7\xc2\xb7\xc2\xb7\xc2\xb7\xc2\xb7AP\xc2\xb7\xc2\xb7\xc2\xb7" size="2" pos="46" show="\xc2\xb7\xc2\xb7\xc2\xb7\xc2\xb7\xc2\xb7\xc2\xb7\xc2\xb7AP\xc2\xb7\xc2\xb7\xc2\xb7" value="8018"/>
    </field>
    <field name="tcp.window_size_value" showname="Window size value: 501" size="2" pos="48" show="501" value="01f5"/>
    <field name="tcp.window_size" showname="Calculated window size: 501" size="2" pos="48" show="501" value="01f5"/>
    <field name="tcp.window_size_scalefactor" showname="Window size scaling factor: -1 (unknown)" size="2" pos="48" show="-1" value="01f5"/>
    <field name="tcp.checksum" showname="Checksum: 0x2069 [unverified]" size="2" pos="50" show="0x00002069" value="2069"/>
    <field name="tcp.checksum.status" showname="Checksum Status: Unverified" size="0" pos="50" show="2"/>
    <field name="tcp.urgent_pointer" showname="Urgent pointer: 0" size="2" pos="52" show="0" value="0000"/>
    <field name="tcp.options" showname="Options: (12 bytes), No-Operation (NOP), No-Operation (NOP), Timestamps" size="12" pos="54" show="01:01:08:0a:46:c5:5e:47:04:19:34:47" value="0101080a46c55e4704193447">
      <field name="tcp.options.nop" showname="TCP Option - No-Operation (NOP)" size="1" pos="54" show="01" value="01">
        <field name="tcp.option_kind" showname="Kind: No-Operation (1)" size="1" pos="54" show="1" value="01"/>
      </field>
      <field name="tcp.options.nop" showname="TCP Option - No-Operation (NOP)" size="1" pos="55" show="01" value="01">
        <field name="tcp.option_kind" showname="Kind: No-Operation (1)" size="1" pos="55" show="1" value="01"/>
      </field>
      <field name="tcp.options.timestamp" showname="TCP Option - Timestamps: TSval 1187339847, TSecr 68760647" size="10" pos="56" show="08:0a:46:c5:5e:47:04:19:34:47" value="080a46c55e4704193447">
        <field name="tcp.option_kind" showname="Kind: Time Stamp Option (8)" size="1" pos="56" show="8" value="08"/>
        <field name="tcp.option_len" showname="Length: 10" size="1" pos="57" show="10" value="0a"/>
        <field name="tcp.options.timestamp.tsval" showname="Timestamp value: 1187339847" size="4" pos="58" show="1187339847" value="46c55e47"/>
        <field name="tcp.options.timestamp.tsecr" showname="Timestamp echo reply: 68760647" size="4" pos="62" show="68760647" value="04193447"/>
      </field>
    </field>
    <field name="" show="Timestamps" size="0" pos="34">
      <field name="tcp.time_relative" showname="Time since first frame in this TCP stream: 0.000000000 seconds" size="0" pos="34" show="0.000000000"/>
      <field name="tcp.time_delta" showname="Time since previous frame in this TCP stream: 0.000000000 seconds" size="0" pos="34" show="0.000000000"/>
    </field>
    <field name="tcp.payload" showname="TCP payload (65 bytes)" size="65" pos="66" show="00:00:38:01:04:00:00:06:c3:c1:04:ac:62:aa:ac:95:6a:a5:a5:8e:e1:62:a9:56:35:48:48:ea:21:50:c3:63:14:8f:95:f7:96:95:f7:ca:b3:41:2c:8b:3d:1b:81:58:52:06:42:0c:24:8c:4e:c9:86:c4:c0:c2:0f:0d:02:37:32" value="0000380104000006c3c104ac62aaac956aa5a58ee162a956354848ea2150c363148f95f79695f7cab3412c8b3d1b81585206420c248c4ec986c4c0c20f0d023732"/>
    <field name="tcp.pdu.size" showname="PDU Size: 65" size="65" pos="66" show="65" value="0000380104000006c3c104ac62aaac956aa5a58ee162a956354848ea2150c363148f95f79695f7cab3412c8b3d1b81585206420c248c4ec986c4c0c20f0d023732"/>
  </proto>
  <proto name="http2" showname="HyperText Transfer Protocol 2" size="65" pos="66">
    <field name="http2.stream" showname="Stream: HEADERS, Stream ID: 1731, Length 56" size="65" pos="66" show="" value="">
      <field name="http2.length" showname="Length: 56" size="3" pos="66" show="56" value="000038"/>
      <field name="http2.type" showname="Type: HEADERS (1)" size="1" pos="69" show="1" value="01"/>
      <field name="http2.flags" showname="Flags: 0x04" size="1" pos="70" show="0x00000004" value="04">
        <field name="http2.flags.end_stream" showname=".... ...0 = End Stream: False" size="1" pos="70" show="0" value="0" unmaskedvalue="04"/>
        <field name="http2.flags.eh" showname=".... .1.. = End Headers: True" size="1" pos="70" show="1" value="1" unmaskedvalue="04"/>
        <field name="http2.flags.padded" showname=".... 0... = Padded: False" size="1" pos="70" show="0" value="0" unmaskedvalue="04"/>
        <field name="http2.flags.priority" showname="..0. .... = Priority: False" size="1" pos="70" show="0" value="0" unmaskedvalue="04"/>
        <field name="http2.flags.unused_headers" showname="00.0 ..0. = Unused: 0x00" size="1" pos="70" show="0x00000000" value="0" unmaskedvalue="04"/>
      </field>
      <field name="http2.r" showname="0... .... .... .... .... .... .... .... = Reserved: 0x0" size="4" pos="71" show="0x00000000" value="0" unmaskedvalue="000006c3"/>
      <field name="http2.streamid" showname=".000 0000 0000 0000 0000 0110 1100 0011 = Stream Identifier: 1731" size="4" pos="71" show="1731" value="6C3" unmaskedvalue="000006c3"/>
      <field name="http2.pad_length" showname="Pad Length: 0" size="0" pos="75" show="0"/>
      <field name="http2.headers" showname="Header Block Fragment: c104ac62aaac956aa5a58ee162a956354848ea2150c36314\xe2\x80\xa6" size="56" pos="75" show="c1:04:ac:62:aa:ac:95:6a:a5:a5:8e:e1:62:a9:56:35:48:48:ea:21:50:c3:63:14:8f:95:f7:96:95:f7:ca:b3:41:2c:8b:3d:1b:81:58:52:06:42:0c:24:8c:4e:c9:86:c4:c0:c2:0f:0d:02:37:32" value="c104ac62aaac956aa5a58ee162a956354848ea2150c363148f95f79695f7cab3412c8b3d1b81585206420c248c4ec986c4c0c20f0d023732"/>
    </field>
  </proto>
</packet>


<packet>
  <proto name="geninfo" pos="0" showname="General information" size="147">
    <field name="num" pos="0" show="24" showname="Number" value="18" size="147"/>
    <field name="len" pos="0" show="147" showname="Frame Length" value="93" size="147"/>
    <field name="caplen" pos="0" show="147" showname="Captured Length" value="93" size="147"/>
    <field name="timestamp" pos="0" show="May 23, 2023 23:58:50.217709271 CEST" showname="Captured Time" value="1684879130.217709271" size="147"/>
  </proto>
  <proto name="frame" showname="Frame 24: 147 bytes on wire (1176 bits), 147 bytes captured (1176 bits) on interface veth_ausf, id 0" size="147" pos="0">
    <field name="filtered" value="frame" />
  </proto>
  <proto name="eth" showname="Ethernet II, Src: ea:77:ac:4e:9a:ef, Dst: fe:f2:39:7d:56:21" size="14" pos="0">
    <field name="filtered" value="eth" />
  </proto>
  <proto name="ip" showname="Internet Protocol Version 4, Src: 10.0.4.1, Dst: 10.0.8.1" size="20" pos="14">
    <field name="filtered" value="ip" />
  </proto>
  <proto name="tcp" showname="Transmission Control Protocol, Src Port: 47154, Dst Port: 7777, Seq: 2251164831, Ack: 2036176145, Len: 81" size="32" pos="34">
    <field name="tcp.srcport" showname="Source Port: 47154" size="2" pos="34" show="47154" value="b832"/>
    <field name="tcp.dstport" showname="Destination Port: 7777" size="2" pos="36" show="7777" value="1e61"/>
    <field name="tcp.port" showname="Source or Destination Port: 47154" hide="yes" size="2" pos="34" show="47154" value="b832"/>
    <field name="tcp.port" showname="Source or Destination Port: 7777" hide="yes" size="2" pos="36" show="7777" value="1e61"/>
    <field name="tcp.stream" showname="Stream index: 2" size="0" pos="34" show="2"/>
    <field name="tcp.len" showname="TCP Segment Len: 81" size="1" pos="46" show="81" value="80"/>
    <field name="tcp.seq" showname="Sequence number: 2251164831" size="4" pos="38" show="2251164831" value="862e0c9f"/>
    <field name="tcp.seq_raw" showname="Sequence number (raw): 2251164831" hide="yes" size="4" pos="38" show="2251164831" value="862e0c9f"/>
    <field name="tcp.nxtseq" showname="Next sequence number: 2251164912" size="0" pos="34" show="2251164912"/>
    <field name="tcp.ack" showname="Acknowledgment number: 2036176145" size="4" pos="42" show="2036176145" value="795d9511"/>
    <field name="tcp.ack_raw" showname="Acknowledgment number (raw): 2036176145" hide="yes" size="4" pos="42" show="2036176145" value="795d9511"/>
    <field name="tcp.hdr_len" showname="1000 .... = Header Length: 32 bytes (8)" size="1" pos="46" show="32" value="80"/>
    <field name="tcp.flags" showname="Flags: 0x018 (PSH, ACK)" size="2" pos="46" show="0x00000018" value="18" unmaskedvalue="8018">
      <field name="tcp.flags.res" showname="000. .... .... = Reserved: Not set" size="1" pos="46" show="0" value="0" unmaskedvalue="80"/>
      <field name="tcp.flags.ns" showname="...0 .... .... = Nonce: Not set" size="1" pos="46" show="0" value="0" unmaskedvalue="80"/>
      <field name="tcp.flags.cwr" showname=".... 0... .... = Congestion Window Reduced (CWR): Not set" size="1" pos="47" show="0" value="0" unmaskedvalue="18"/>
      <field name="tcp.flags.ecn" showname=".... .0.. .... = ECN-Echo: Not set" size="1" pos="47" show="0" value="0" unmaskedvalue="18"/>
      <field name="tcp.flags.urg" showname=".... ..0. .... = Urgent: Not set" size="1" pos="47" show="0" value="0" unmaskedvalue="18"/>
      <field name="tcp.flags.ack" showname=".... ...1 .... = Acknowledgment: Set" size="1" pos="47" show="1" value="1" unmaskedvalue="18"/>
      <field name="tcp.flags.push" showname=".... .... 1... = Push: Set" size="1" pos="47" show="1" value="1" unmaskedvalue="18"/>
      <field name="tcp.flags.reset" showname=".... .... .0.. = Reset: Not set" size="1" pos="47" show="0" value="0" unmaskedvalue="18"/>
      <field name="tcp.flags.syn" showname=".... .... ..0. = Syn: Not set" size="1" pos="47" show="0" value="0" unmaskedvalue="18"/>
      <field name="tcp.flags.fin" showname=".... .... ...0 = Fin: Not set" size="1" pos="47" show="0" value="0" unmaskedvalue="18"/>
      <field name="tcp.flags.str" showname="TCP Flags: \xc2\xb7\xc2\xb7\xc2\xb7\xc2\xb7\xc2\xb7\xc2\xb7\xc2\xb7AP\xc2\xb7\xc2\xb7\xc2\xb7" size="2" pos="46" show="\xc2\xb7\xc2\xb7\xc2\xb7\xc2\xb7\xc2\xb7\xc2\xb7\xc2\xb7AP\xc2\xb7\xc2\xb7\xc2\xb7" value="8018"/>
    </field>
    <field name="tcp.window_size_value" showname="Window size value: 501" size="2" pos="48" show="501" value="01f5"/>
    <field name="tcp.window_size" showname="Calculated window size: 501" size="2" pos="48" show="501" value="01f5"/>
    <field name="tcp.window_size_scalefactor" showname="Window size scaling factor: -1 (unknown)" size="2" pos="48" show="-1" value="01f5"/>
    <field name="tcp.checksum" showname="Checksum: 0x2079 [unverified]" size="2" pos="50" show="0x00002079" value="2079"/>
    <field name="tcp.checksum.status" showname="Checksum Status: Unverified" size="0" pos="50" show="2"/>
    <field name="tcp.urgent_pointer" showname="Urgent pointer: 0" size="2" pos="52" show="0" value="0000"/>
    <field name="tcp.options" showname="Options: (12 bytes), No-Operation (NOP), No-Operation (NOP), Timestamps" size="12" pos="54" show="01:01:08:0a:46:c5:5e:47:04:19:34:47" value="0101080a46c55e4704193447">
      <field name="tcp.options.nop" showname="TCP Option - No-Operation (NOP)" size="1" pos="54" show="01" value="01">
        <field name="tcp.option_kind" showname="Kind: No-Operation (1)" size="1" pos="54" show="1" value="01"/>
      </field>
      <field name="tcp.options.nop" showname="TCP Option - No-Operation (NOP)" size="1" pos="55" show="01" value="01">
        <field name="tcp.option_kind" showname="Kind: No-Operation (1)" size="1" pos="55" show="1" value="01"/>
      </field>
      <field name="tcp.options.timestamp" showname="TCP Option - Timestamps: TSval 1187339847, TSecr 68760647" size="10" pos="56" show="08:0a:46:c5:5e:47:04:19:34:47" value="080a46c55e4704193447">
        <field name="tcp.option_kind" showname="Kind: Time Stamp Option (8)" size="1" pos="56" show="8" value="08"/>
        <field name="tcp.option_len" showname="Length: 10" size="1" pos="57" show="10" value="0a"/>
        <field name="tcp.options.timestamp.tsval" showname="Timestamp value: 1187339847" size="4" pos="58" show="1187339847" value="46c55e47"/>
        <field name="tcp.options.timestamp.tsecr" showname="Timestamp echo reply: 68760647" size="4" pos="62" show="68760647" value="04193447"/>
      </field>
    </field>
    <field name="" show="Timestamps" size="0" pos="34">
      <field name="tcp.time_relative" showname="Time since first frame in this TCP stream: 0.000047770 seconds" size="0" pos="34" show="0.000047770"/>
      <field name="tcp.time_delta" showname="Time since previous frame in this TCP stream: 0.000047770 seconds" size="0" pos="34" show="0.000047770"/>
    </field>
    <field name="tcp.payload" showname="TCP payload (81 bytes)" size="81" pos="66" show="00:00:48:00:01:00:00:06:c3:5b:7b:0a:09:09:22:6f:70:22:3a:09:22:72:65:70:6c:61:63:65:22:2c:0a:09:09:22:70:61:74:68:22:3a:09:22:2f:6e:66:53:74:61:74:75:73:22:2c:0a:09:09:22:76:61:6c:75:65:22:3a:09:22:52:45:47:49:53:54:45:52:45:44:22:0a:09:7d:5d" value="0000480001000006c35b7b0a0909226f70223a09227265706c616365222c0a09092270617468223a09222f6e66537461747573222c0a09092276616c7565223a092252454749535445524544220a097d5d"/>
    <field name="tcp.pdu.size" showname="PDU Size: 81" size="81" pos="66" show="81" value="0000480001000006c35b7b0a0909226f70223a09227265706c616365222c0a09092270617468223a09222f6e66537461747573222c0a09092276616c7565223a092252454749535445524544220a097d5d"/>
  </proto>
  <proto name="http2" showname="HyperText Transfer Protocol 2" size="81" pos="66">
    <field name="http2.stream" showname="Stream: DATA, Stream ID: 1731, Length 72" size="81" pos="66" show="" value="">
      <field name="http2.length" showname="Length: 72" size="3" pos="66" show="72" value="000048"/>
      <field name="http2.type" showname="Type: DATA (0)" size="1" pos="69" show="0" value="00"/>
      <field name="http2.flags" showname="Flags: 0x01" size="1" pos="70" show="0x00000001" value="01">
        <field name="http2.flags.end_stream" showname=".... ...1 = End Stream: True" size="1" pos="70" show="1" value="1" unmaskedvalue="01"/>
        <field name="http2.flags.padded" showname=".... 0... = Padded: False" size="1" pos="70" show="0" value="0" unmaskedvalue="01"/>
        <field name="http2.flags.unused_data" showname="0000 .00. = Unused: 0x00" size="1" pos="70" show="0x00000000" value="0" unmaskedvalue="01"/>
      </field>
      <field name="http2.r" showname="0... .... .... .... .... .... .... .... = Reserved: 0x0" size="4" pos="71" show="0x00000000" value="0" unmaskedvalue="000006c3"/>
      <field name="http2.streamid" showname=".000 0000 0000 0000 0000 0110 1100 0011 = Stream Identifier: 1731" size="4" pos="71" show="1731" value="6C3" unmaskedvalue="000006c3"/>
      <field name="http2.pad_length" showname="Pad Length: 0" size="0" pos="75" show="0"/>
      <field name="http2.data.data" showname="Data: 5b7b0a0909226f70223a09227265706c616365222c0a0909\xe2\x80\xa6" size="72" pos="75" show="5b:7b:0a:09:09:22:6f:70:22:3a:09:22:72:65:70:6c:61:63:65:22:2c:0a:09:09:22:70:61:74:68:22:3a:09:22:2f:6e:66:53:74:61:74:75:73:22:2c:0a:09:09:22:76:61:6c:75:65:22:3a:09:22:52:45:47:49:53:54:45:52:45:44:22:0a:09:7d:5d" value="5b7b0a0909226f70223a09227265706c616365222c0a09092270617468223a09222f6e66537461747573222c0a09092276616c7565223a092252454749535445524544220a097d5d"/>
    </field>
  </proto>
</packet>


<packet>
  <proto name="geninfo" pos="0" showname="General information" size="101">
    <field name="num" pos="0" show="26" showname="Number" value="1a" size="101"/>
    <field name="len" pos="0" show="101" showname="Frame Length" value="65" size="101"/>
    <field name="caplen" pos="0" show="101" showname="Captured Length" value="65" size="101"/>
    <field name="timestamp" pos="0" show="May 23, 2023 23:58:50.218203353 CEST" showname="Captured Time" value="1684879130.218203353" size="101"/>
  </proto>
  <proto name="frame" showname="Frame 26: 101 bytes on wire (808 bits), 101 bytes captured (808 bits) on interface veth_ausf, id 0" size="101" pos="0">
    <field name="filtered" value="frame" />
  </proto>
  <proto name="eth" showname="Ethernet II, Src: fe:f2:39:7d:56:21, Dst: ea:77:ac:4e:9a:ef" size="14" pos="0">
    <field name="filtered" value="eth" />
  </proto>
  <proto name="ip" showname="Internet Protocol Version 4, Src: 10.0.8.1, Dst: 10.0.4.1" size="20" pos="14">
    <field name="filtered" value="ip" />
  </proto>
  <proto name="tcp" showname="Transmission Control Protocol, Src Port: 7777, Dst Port: 47154, Seq: 2036176145, Ack: 2251164912, Len: 35" size="32" pos="34">
    <field name="tcp.srcport" showname="Source Port: 7777" size="2" pos="34" show="7777" value="1e61"/>
    <field name="tcp.dstport" showname="Destination Port: 47154" size="2" pos="36" show="47154" value="b832"/>
    <field name="tcp.port" showname="Source or Destination Port: 7777" hide="yes" size="2" pos="34" show="7777" value="1e61"/>
    <field name="tcp.port" showname="Source or Destination Port: 47154" hide="yes" size="2" pos="36" show="47154" value="b832"/>
    <field name="tcp.stream" showname="Stream index: 2" size="0" pos="34" show="2"/>
    <field name="tcp.len" showname="TCP Segment Len: 35" size="1" pos="46" show="35" value="80"/>
    <field name="tcp.seq" showname="Sequence number: 2036176145" size="4" pos="38" show="2036176145" value="795d9511"/>
    <field name="tcp.seq_raw" showname="Sequence number (raw): 2036176145" hide="yes" size="4" pos="38" show="2036176145" value="795d9511"/>
    <field name="tcp.nxtseq" showname="Next sequence number: 2036176180" size="0" pos="34" show="2036176180"/>
    <field name="tcp.ack" showname="Acknowledgment number: 2251164912" size="4" pos="42" show="2251164912" value="862e0cf0"/>
    <field name="tcp.ack_raw" showname="Acknowledgment number (raw): 2251164912" hide="yes" size="4" pos="42" show="2251164912" value="862e0cf0"/>
    <field name="tcp.hdr_len" showname="1000 .... = Header Length: 32 bytes (8)" size="1" pos="46" show="32" value="80"/>
    <field name="tcp.flags" showname="Flags: 0x018 (PSH, ACK)" size="2" pos="46" show="0x00000018" value="18" unmaskedvalue="8018">
      <field name="tcp.flags.res" showname="000. .... .... = Reserved: Not set" size="1" pos="46" show="0" value="0" unmaskedvalue="80"/>
      <field name="tcp.flags.ns" showname="...0 .... .... = Nonce: Not set" size="1" pos="46" show="0" value="0" unmaskedvalue="80"/>
      <field name="tcp.flags.cwr" showname=".... 0... .... = Congestion Window Reduced (CWR): Not set" size="1" pos="47" show="0" value="0" unmaskedvalue="18"/>
      <field name="tcp.flags.ecn" showname=".... .0.. .... = ECN-Echo: Not set" size="1" pos="47" show="0" value="0" unmaskedvalue="18"/>
      <field name="tcp.flags.urg" showname=".... ..0. .... = Urgent: Not set" size="1" pos="47" show="0" value="0" unmaskedvalue="18"/>
      <field name="tcp.flags.ack" showname=".... ...1 .... = Acknowledgment: Set" size="1" pos="47" show="1" value="1" unmaskedvalue="18"/>
      <field name="tcp.flags.push" showname=".... .... 1... = Push: Set" size="1" pos="47" show="1" value="1" unmaskedvalue="18"/>
      <field name="tcp.flags.reset" showname=".... .... .0.. = Reset: Not set" size="1" pos="47" show="0" value="0" unmaskedvalue="18"/>
      <field name="tcp.flags.syn" showname=".... .... ..0. = Syn: Not set" size="1" pos="47" show="0" value="0" unmaskedvalue="18"/>
      <field name="tcp.flags.fin" showname=".... .... ...0 = Fin: Not set" size="1" pos="47" show="0" value="0" unmaskedvalue="18"/>
      <field name="tcp.flags.str" showname="TCP Flags: \xc2\xb7\xc2\xb7\xc2\xb7\xc2\xb7\xc2\xb7\xc2\xb7\xc2\xb7AP\xc2\xb7\xc2\xb7\xc2\xb7" size="2" pos="46" show="\xc2\xb7\xc2\xb7\xc2\xb7\xc2\xb7\xc2\xb7\xc2\xb7\xc2\xb7AP\xc2\xb7\xc2\xb7\xc2\xb7" value="8018"/>
    </field>
    <field name="tcp.window_size_value" showname="Window size value: 501" size="2" pos="48" show="501" value="01f5"/>
    <field name="tcp.window_size" showname="Calculated window size: 501" size="2" pos="48" show="501" value="01f5"/>
    <field name="tcp.window_size_scalefactor" showname="Window size scaling factor: -1 (unknown)" size="2" pos="48" show="-1" value="01f5"/>
    <field name="tcp.checksum" showname="Checksum: 0x204b [unverified]" size="2" pos="50" show="0x0000204b" value="204b"/>
    <field name="tcp.checksum.status" showname="Checksum Status: Unverified" size="0" pos="50" show="2"/>
    <field name="tcp.urgent_pointer" showname="Urgent pointer: 0" size="2" pos="52" show="0" value="0000"/>
    <field name="tcp.options" showname="Options: (12 bytes), No-Operation (NOP), No-Operation (NOP), Timestamps" size="12" pos="54" show="01:01:08:0a:04:19:5b:5d:46:c5:5e:47" value="0101080a04195b5d46c55e47">
      <field name="tcp.options.nop" showname="TCP Option - No-Operation (NOP)" size="1" pos="54" show="01" value="01">
        <field name="tcp.option_kind" showname="Kind: No-Operation (1)" size="1" pos="54" show="1" value="01"/>
      </field>
      <field name="tcp.options.nop" showname="TCP Option - No-Operation (NOP)" size="1" pos="55" show="01" value="01">
        <field name="tcp.option_kind" showname="Kind: No-Operation (1)" size="1" pos="55" show="1" value="01"/>
      </field>
      <field name="tcp.options.timestamp" showname="TCP Option - Timestamps: TSval 68770653, TSecr 1187339847" size="10" pos="56" show="08:0a:04:19:5b:5d:46:c5:5e:47" value="080a04195b5d46c55e47">
        <field name="tcp.option_kind" showname="Kind: Time Stamp Option (8)" size="1" pos="56" show="8" value="08"/>
        <field name="tcp.option_len" showname="Length: 10" size="1" pos="57" show="10" value="0a"/>
        <field name="tcp.options.timestamp.tsval" showname="Timestamp value: 68770653" size="4" pos="58" show="68770653" value="04195b5d"/>
        <field name="tcp.options.timestamp.tsecr" showname="Timestamp echo reply: 1187339847" size="4" pos="62" show="1187339847" value="46c55e47"/>
      </field>
    </field>
    <field name="" show="Timestamps" size="0" pos="34">
      <field name="tcp.time_relative" showname="Time since first frame in this TCP stream: 0.000541852 seconds" size="0" pos="34" show="0.000541852"/>
      <field name="tcp.time_delta" showname="Time since previous frame in this TCP stream: 0.000213429 seconds" size="0" pos="34" show="0.000213429"/>
    </field>
    <field name="tcp.payload" showname="TCP payload (35 bytes)" size="35" pos="66" show="00:00:1a:01:05:00:00:06:c3:89:dc:61:96:df:69:7e:94:13:2a:68:1f:a5:04:01:32:a0:83:71:b7:ae:36:05:31:68:df" value="00001a0105000006c389dc6196df697e94132a681fa5040132a08371b7ae36053168df"/>
    <field name="tcp.pdu.size" showname="PDU Size: 35" size="35" pos="66" show="35" value="00001a0105000006c389dc6196df697e94132a681fa5040132a08371b7ae36053168df"/>
  </proto>
  <proto name="http2" showname="HyperText Transfer Protocol 2" size="35" pos="66">
    <field name="http2.stream" showname="Stream: HEADERS, Stream ID: 1731, Length 26, 204 No Content" size="35" pos="66" show="" value="">
      <field name="http2.length" showname="Length: 26" size="3" pos="66" show="26" value="00001a"/>
      <field name="http2.type" showname="Type: HEADERS (1)" size="1" pos="69" show="1" value="01"/>
      <field name="http2.flags" showname="Flags: 0x05" size="1" pos="70" show="0x00000005" value="05">
        <field name="http2.flags.end_stream" showname=".... ...1 = End Stream: True" size="1" pos="70" show="1" value="1" unmaskedvalue="05"/>
        <field name="http2.flags.eh" showname=".... .1.. = End Headers: True" size="1" pos="70" show="1" value="1" unmaskedvalue="05"/>
        <field name="http2.flags.padded" showname=".... 0... = Padded: False" size="1" pos="70" show="0" value="0" unmaskedvalue="05"/>
        <field name="http2.flags.priority" showname="..0. .... = Priority: False" size="1" pos="70" show="0" value="0" unmaskedvalue="05"/>
        <field name="http2.flags.unused_headers" showname="00.0 ..0. = Unused: 0x00" size="1" pos="70" show="0x00000000" value="0" unmaskedvalue="05"/>
      </field>
      <field name="http2.r" showname="0... .... .... .... .... .... .... .... = Reserved: 0x0" size="4" pos="71" show="0x00000000" value="0" unmaskedvalue="000006c3"/>
      <field name="http2.streamid" showname=".000 0000 0000 0000 0000 0110 1100 0011 = Stream Identifier: 1731" size="4" pos="71" show="1731" value="6C3" unmaskedvalue="000006c3"/>
      <field name="http2.pad_length" showname="Pad Length: 0" size="0" pos="75" show="0"/>
      <field name="http2.headers" showname="Header Block Fragment: 89dc6196df697e94132a681fa5040132a08371b7ae360531\xe2\x80\xa6" size="26" pos="75" show="89:dc:61:96:df:69:7e:94:13:2a:68:1f:a5:04:01:32:a0:83:71:b7:ae:36:05:31:68:df" value="89dc6196df697e94132a681fa5040132a08371b7ae36053168df"/>
      <field name="http2.header.length" showname="Header Length: 18" size="1" pos="66" show="18" value="00"/>
      <field name="http2.header.count" showname="Header Count: 1" size="1" pos="66" show="1" value="00"/>
      <field name="http2.header" showname="Header: :status: 204 No Content" size="1" pos="75" show="" value="">
        <field name="http2.header.name.length" showname="Name Length: 7" size="4" pos="75" show="7" value="00000007"/>
        <field name="http2.header.name" showname="Name: :status" size="7" pos="79" show=":status" value="3a737461747573"/>
        <field name="http2.header.value.length" showname="Value Length: 3" size="4" pos="86" show="3" value="00000003"/>
        <field name="http2.header.value" showname="Value: 204" size="3" pos="90" show="204" value="323034"/>
        <field name="http2.headers.status" showname=":status: 204" size="3" pos="90" show="204" value="323034"/>
        <field name="http2.header.unescaped" showname="Unescaped: 204" size="3" pos="90" show="204" value="323034"/>
        <field name="http2.header.repr" showname="Representation: Indexed Header Field" size="1" pos="75" show="Indexed Header Field" value="89"/>
        <field name="http2.header.index" showname="Index: 9" size="1" pos="75" show="9" value="89"/>
      </field>
    </field>
  </proto>
</packet>


</pdml>
