<?xml version="1.0" encoding="utf-8"?>
<?xml-stylesheet type="text/xsl" href="pdml2html.xsl"?>
<!-- You can find pdml2html.xsl in /usr/share/wireshark or at https://code.wireshark.org/review/gitweb?p=wireshark.git;a=blob_plain;f=pdml2html.xsl. -->
<pdml version="0" creator="wireshark/3.2.3" time="Wed May 24 00:02:12 2023" capture_file="/home/lily/5G/PCAPS/Core/post_udm.pcapng">
<packet>
  <proto name="geninfo" pos="0" showname="General information" size="131">
    <field name="num" pos="0" show="1" showname="Number" value="1" size="131"/>
    <field name="len" pos="0" show="131" showname="Frame Length" value="83" size="131"/>
    <field name="caplen" pos="0" show="131" showname="Captured Length" value="83" size="131"/>
    <field name="timestamp" pos="0" show="May 23, 2023 23:59:49.589099313 CEST" showname="Captured Time" value="1684879189.589099313" size="131"/>
  </proto>
  <proto name="frame" showname="Frame 1: 131 bytes on wire (1048 bits), 131 bytes captured (1048 bits) on interface veth_udm, id 0" size="131" pos="0">
    <field name="filtered" value="frame" />
  </proto>
  <proto name="eth" showname="Ethernet II, Src: 4e:bc:00:dd:9a:f0, Dst: 5a:03:5f:62:d5:6d" size="14" pos="0">
    <field name="filtered" value="eth" />
  </proto>
  <proto name="ip" showname="Internet Protocol Version 4, Src: 10.0.15.1, Dst: 10.0.8.1" size="20" pos="14">
    <field name="filtered" value="ip" />
  </proto>
  <proto name="tcp" showname="Transmission Control Protocol, Src Port: 55934, Dst Port: 7777, Seq: 601568057, Ack: 423892732, Len: 65" size="32" pos="34">
    <field name="tcp.srcport" showname="Source Port: 55934" size="2" pos="34" show="55934" value="da7e"/>
    <field name="tcp.dstport" showname="Destination Port: 7777" size="2" pos="36" show="7777" value="1e61"/>
    <field name="tcp.port" showname="Source or Destination Port: 55934" hide="yes" size="2" pos="34" show="55934" value="da7e"/>
    <field name="tcp.port" showname="Source or Destination Port: 7777" hide="yes" size="2" pos="36" show="7777" value="1e61"/>
    <field name="tcp.stream" showname="Stream index: 0" size="0" pos="34" show="0"/>
    <field name="tcp.len" showname="TCP Segment Len: 65" size="1" pos="46" show="65" value="80"/>
    <field name="tcp.seq" showname="Sequence number: 601568057" size="4" pos="38" show="601568057" value="23db3339"/>
    <field name="tcp.seq_raw" showname="Sequence number (raw): 601568057" hide="yes" size="4" pos="38" show="601568057" value="23db3339"/>
    <field name="tcp.nxtseq" showname="Next sequence number: 601568122" size="0" pos="34" show="601568122"/>
    <field name="tcp.ack" showname="Acknowledgment number: 423892732" size="4" pos="42" show="423892732" value="194416fc"/>
    <field name="tcp.ack_raw" showname="Acknowledgment number (raw): 423892732" hide="yes" size="4" pos="42" show="423892732" value="194416fc"/>
    <field name="tcp.hdr_len" showname="1000 .... = Header Length: 32 bytes (8)" size="1" pos="46" show="32" value="80"/>
    <field name="tcp.flags" showname="Flags: 0x018 (PSH, ACK)" size="2" pos="46" show="0x00000018" value="18" unmaskedvalue="8018">
      <field name="tcp.flags.res" showname="000. .... .... = Reserved: Not set" size="1" pos="46" show="0" value="0" unmaskedvalue="80"/>
      <field name="tcp.flags.ns" showname="...0 .... .... = Nonce: Not set" size="1" pos="46" show="0" value="0" unmaskedvalue="80"/>
      <field name="tcp.flags.cwr" showname=".... 0... .... = Congestion Window Reduced (CWR): Not set" size="1" pos="47" show="0" value="0" unmaskedvalue="18"/>
      <field name="tcp.flags.ecn" showname=".... .0.. .... = ECN-Echo: Not set" size="1" pos="47" show="0" value="0" unmaskedvalue="18"/>
      <field name="tcp.flags.urg" showname=".... ..0. .... = Urgent: Not set" size="1" pos="47" show="0" value="0" unmaskedvalue="18"/>
      <field name="tcp.flags.ack" showname=".... ...1 .... = Acknowledgment: Set" size="1" pos="47" show="1" value="1" unmaskedvalue="18"/>
      <field name="tcp.flags.push" showname=".... .... 1... = Push: Set" size="1" pos="47" show="1" value="1" unmaskedvalue="18"/>
      <field name="tcp.flags.reset" showname=".... .... .0.. = Reset: Not set" size="1" pos="47" show="0" value="0" unmaskedvalue="18"/>
      <field name="tcp.flags.syn" showname=".... .... ..0. = Syn: Not set" size="1" pos="47" show="0" value="0" unmaskedvalue="18"/>
      <field name="tcp.flags.fin" showname=".... .... ...0 = Fin: Not set" size="1" pos="47" show="0" value="0" unmaskedvalue="18"/>
      <field name="tcp.flags.str" showname="TCP Flags: \xc2\xb7\xc2\xb7\xc2\xb7\xc2\xb7\xc2\xb7\xc2\xb7\xc2\xb7AP\xc2\xb7\xc2\xb7\xc2\xb7" size="2" pos="46" show="\xc2\xb7\xc2\xb7\xc2\xb7\xc2\xb7\xc2\xb7\xc2\xb7\xc2\xb7AP\xc2\xb7\xc2\xb7\xc2\xb7" value="8018"/>
    </field>
    <field name="tcp.window_size_value" showname="Window size value: 501" size="2" pos="48" show="501" value="01f5"/>
    <field name="tcp.window_size" showname="Calculated window size: 501" size="2" pos="48" show="501" value="01f5"/>
    <field name="tcp.window_size_scalefactor" showname="Window size scaling factor: -1 (unknown)" size="2" pos="48" show="-1" value="01f5"/>
    <field name="tcp.checksum" showname="Checksum: 0x2b69 [unverified]" size="2" pos="50" show="0x00002b69" value="2b69"/>
    <field name="tcp.checksum.status" showname="Checksum Status: Unverified" size="0" pos="50" show="2"/>
    <field name="tcp.urgent_pointer" showname="Urgent pointer: 0" size="2" pos="52" show="0" value="0000"/>
    <field name="tcp.options" showname="Options: (12 bytes), No-Operation (NOP), No-Operation (NOP), Timestamps" size="12" pos="54" show="01:01:08:0a:a9:a1:48:8c:60:eb:72:26" value="0101080aa9a1488c60eb7226">
      <field name="tcp.options.nop" showname="TCP Option - No-Operation (NOP)" size="1" pos="54" show="01" value="01">
        <field name="tcp.option_kind" showname="Kind: No-Operation (1)" size="1" pos="54" show="1" value="01"/>
      </field>
      <field name="tcp.options.nop" showname="TCP Option - No-Operation (NOP)" size="1" pos="55" show="01" value="01">
        <field name="tcp.option_kind" showname="Kind: No-Operation (1)" size="1" pos="55" show="1" value="01"/>
      </field>
      <field name="tcp.options.timestamp" showname="TCP Option - Timestamps: TSval 2845919372, TSecr 1626042918" size="10" pos="56" show="08:0a:a9:a1:48:8c:60:eb:72:26" value="080aa9a1488c60eb7226">
        <field name="tcp.option_kind" showname="Kind: Time Stamp Option (8)" size="1" pos="56" show="8" value="08"/>
        <field name="tcp.option_len" showname="Length: 10" size="1" pos="57" show="10" value="0a"/>
        <field name="tcp.options.timestamp.tsval" showname="Timestamp value: 2845919372" size="4" pos="58" show="2845919372" value="a9a1488c"/>
        <field name="tcp.options.timestamp.tsecr" showname="Timestamp echo reply: 1626042918" size="4" pos="62" show="1626042918" value="60eb7226"/>
      </field>
    </field>
    <field name="" show="Timestamps" size="0" pos="34">
      <field name="tcp.time_relative" showname="Time since first frame in this TCP stream: 0.000000000 seconds" size="0" pos="34" show="0.000000000"/>
      <field name="tcp.time_delta" showname="Time since previous frame in this TCP stream: 0.000000000 seconds" size="0" pos="34" show="0.000000000"/>
    </field>
    <field name="tcp.payload" showname="TCP payload (65 bytes)" size="65" pos="66" show="00:00:38:01:04:00:00:06:d7:c1:04:ac:62:aa:ac:95:6a:a5:a5:8e:e1:62:a9:56:35:48:48:ea:21:50:c3:64:74:2e:3e:27:96:95:f7:ca:b3:41:2c:8b:0d:e8:c4:b3:f2:04:8d:4a:40:3e:f9:41:86:c4:c0:c2:0f:0d:02:37:32" value="0000380104000006d7c104ac62aaac956aa5a58ee162a956354848ea2150c364742e3e279695f7cab3412c8b0de8c4b3f2048d4a403ef94186c4c0c20f0d023732"/>
    <field name="tcp.pdu.size" showname="PDU Size: 65" size="65" pos="66" show="65" value="0000380104000006d7c104ac62aaac956aa5a58ee162a956354848ea2150c364742e3e279695f7cab3412c8b0de8c4b3f2048d4a403ef94186c4c0c20f0d023732"/>
  </proto>
  <proto name="http2" showname="HyperText Transfer Protocol 2" size="65" pos="66">
    <field name="http2.stream" showname="Stream: HEADERS, Stream ID: 1751, Length 56" size="65" pos="66" show="" value="">
      <field name="http2.length" showname="Length: 56" size="3" pos="66" show="56" value="000038"/>
      <field name="http2.type" showname="Type: HEADERS (1)" size="1" pos="69" show="1" value="01"/>
      <field name="http2.flags" showname="Flags: 0x04" size="1" pos="70" show="0x00000004" value="04">
        <field name="http2.flags.end_stream" showname=".... ...0 = End Stream: False" size="1" pos="70" show="0" value="0" unmaskedvalue="04"/>
        <field name="http2.flags.eh" showname=".... .1.. = End Headers: True" size="1" pos="70" show="1" value="1" unmaskedvalue="04"/>
        <field name="http2.flags.padded" showname=".... 0... = Padded: False" size="1" pos="70" show="0" value="0" unmaskedvalue="04"/>
        <field name="http2.flags.priority" showname="..0. .... = Priority: False" size="1" pos="70" show="0" value="0" unmaskedvalue="04"/>
        <field name="http2.flags.unused_headers" showname="00.0 ..0. = Unused: 0x00" size="1" pos="70" show="0x00000000" value="0" unmaskedvalue="04"/>
      </field>
      <field name="http2.r" showname="0... .... .... .... .... .... .... .... = Reserved: 0x0" size="4" pos="71" show="0x00000000" value="0" unmaskedvalue="000006d7"/>
      <field name="http2.streamid" showname=".000 0000 0000 0000 0000 0110 1101 0111 = Stream Identifier: 1751" size="4" pos="71" show="1751" value="6D7" unmaskedvalue="000006d7"/>
      <field name="http2.pad_length" showname="Pad Length: 0" size="0" pos="75" show="0"/>
      <field name="http2.headers" showname="Header Block Fragment: c104ac62aaac956aa5a58ee162a956354848ea2150c36474\xe2\x80\xa6" size="56" pos="75" show="c1:04:ac:62:aa:ac:95:6a:a5:a5:8e:e1:62:a9:56:35:48:48:ea:21:50:c3:64:74:2e:3e:27:96:95:f7:ca:b3:41:2c:8b:0d:e8:c4:b3:f2:04:8d:4a:40:3e:f9:41:86:c4:c0:c2:0f:0d:02:37:32" value="c104ac62aaac956aa5a58ee162a956354848ea2150c364742e3e279695f7cab3412c8b0de8c4b3f2048d4a403ef94186c4c0c20f0d023732"/>
    </field>
  </proto>
</packet>


<packet>
  <proto name="geninfo" pos="0" showname="General information" size="147">
    <field name="num" pos="0" show="2" showname="Number" value="2" size="147"/>
    <field name="len" pos="0" show="147" showname="Frame Length" value="93" size="147"/>
    <field name="caplen" pos="0" show="147" showname="Captured Length" value="93" size="147"/>
    <field name="timestamp" pos="0" show="May 23, 2023 23:59:49.589148659 CEST" showname="Captured Time" value="1684879189.589148659" size="147"/>
  </proto>
  <proto name="frame" showname="Frame 2: 147 bytes on wire (1176 bits), 147 bytes captured (1176 bits) on interface veth_udm, id 0" size="147" pos="0">
    <field name="filtered" value="frame" />
  </proto>
  <proto name="eth" showname="Ethernet II, Src: 4e:bc:00:dd:9a:f0, Dst: 5a:03:5f:62:d5:6d" size="14" pos="0">
    <field name="filtered" value="eth" />
  </proto>
  <proto name="ip" showname="Internet Protocol Version 4, Src: 10.0.15.1, Dst: 10.0.8.1" size="20" pos="14">
    <field name="filtered" value="ip" />
  </proto>
  <proto name="tcp" showname="Transmission Control Protocol, Src Port: 55934, Dst Port: 7777, Seq: 601568122, Ack: 423892732, Len: 81" size="32" pos="34">
    <field name="tcp.srcport" showname="Source Port: 55934" size="2" pos="34" show="55934" value="da7e"/>
    <field name="tcp.dstport" showname="Destination Port: 7777" size="2" pos="36" show="7777" value="1e61"/>
    <field name="tcp.port" showname="Source or Destination Port: 55934" hide="yes" size="2" pos="34" show="55934" value="da7e"/>
    <field name="tcp.port" showname="Source or Destination Port: 7777" hide="yes" size="2" pos="36" show="7777" value="1e61"/>
    <field name="tcp.stream" showname="Stream index: 0" size="0" pos="34" show="0"/>
    <field name="tcp.len" showname="TCP Segment Len: 81" size="1" pos="46" show="81" value="80"/>
    <field name="tcp.seq" showname="Sequence number: 601568122" size="4" pos="38" show="601568122" value="23db337a"/>
    <field name="tcp.seq_raw" showname="Sequence number (raw): 601568122" hide="yes" size="4" pos="38" show="601568122" value="23db337a"/>
    <field name="tcp.nxtseq" showname="Next sequence number: 601568203" size="0" pos="34" show="601568203"/>
    <field name="tcp.ack" showname="Acknowledgment number: 423892732" size="4" pos="42" show="423892732" value="194416fc"/>
    <field name="tcp.ack_raw" showname="Acknowledgment number (raw): 423892732" hide="yes" size="4" pos="42" show="423892732" value="194416fc"/>
    <field name="tcp.hdr_len" showname="1000 .... = Header Length: 32 bytes (8)" size="1" pos="46" show="32" value="80"/>
    <field name="tcp.flags" showname="Flags: 0x018 (PSH, ACK)" size="2" pos="46" show="0x00000018" value="18" unmaskedvalue="8018">
      <field name="tcp.flags.res" showname="000. .... .... = Reserved: Not set" size="1" pos="46" show="0" value="0" unmaskedvalue="80"/>
      <field name="tcp.flags.ns" showname="...0 .... .... = Nonce: Not set" size="1" pos="46" show="0" value="0" unmaskedvalue="80"/>
      <field name="tcp.flags.cwr" showname=".... 0... .... = Congestion Window Reduced (CWR): Not set" size="1" pos="47" show="0" value="0" unmaskedvalue="18"/>
      <field name="tcp.flags.ecn" showname=".... .0.. .... = ECN-Echo: Not set" size="1" pos="47" show="0" value="0" unmaskedvalue="18"/>
      <field name="tcp.flags.urg" showname=".... ..0. .... = Urgent: Not set" size="1" pos="47" show="0" value="0" unmaskedvalue="18"/>
      <field name="tcp.flags.ack" showname=".... ...1 .... = Acknowledgment: Set" size="1" pos="47" show="1" value="1" unmaskedvalue="18"/>
      <field name="tcp.flags.push" showname=".... .... 1... = Push: Set" size="1" pos="47" show="1" value="1" unmaskedvalue="18"/>
      <field name="tcp.flags.reset" showname=".... .... .0.. = Reset: Not set" size="1" pos="47" show="0" value="0" unmaskedvalue="18"/>
      <field name="tcp.flags.syn" showname=".... .... ..0. = Syn: Not set" size="1" pos="47" show="0" value="0" unmaskedvalue="18"/>
      <field name="tcp.flags.fin" showname=".... .... ...0 = Fin: Not set" size="1" pos="47" show="0" value="0" unmaskedvalue="18"/>
      <field name="tcp.flags.str" showname="TCP Flags: \xc2\xb7\xc2\xb7\xc2\xb7\xc2\xb7\xc2\xb7\xc2\xb7\xc2\xb7AP\xc2\xb7\xc2\xb7\xc2\xb7" size="2" pos="46" show="\xc2\xb7\xc2\xb7\xc2\xb7\xc2\xb7\xc2\xb7\xc2\xb7\xc2\xb7AP\xc2\xb7\xc2\xb7\xc2\xb7" value="8018"/>
    </field>
    <field name="tcp.window_size_value" showname="Window size value: 501" size="2" pos="48" show="501" value="01f5"/>
    <field name="tcp.window_size" showname="Calculated window size: 501" size="2" pos="48" show="501" value="01f5"/>
    <field name="tcp.window_size_scalefactor" showname="Window size scaling factor: -1 (unknown)" size="2" pos="48" show="-1" value="01f5"/>
    <field name="tcp.checksum" showname="Checksum: 0x2b79 [unverified]" size="2" pos="50" show="0x00002b79" value="2b79"/>
    <field name="tcp.checksum.status" showname="Checksum Status: Unverified" size="0" pos="50" show="2"/>
    <field name="tcp.urgent_pointer" showname="Urgent pointer: 0" size="2" pos="52" show="0" value="0000"/>
    <field name="tcp.options" showname="Options: (12 bytes), No-Operation (NOP), No-Operation (NOP), Timestamps" size="12" pos="54" show="01:01:08:0a:a9:a1:48:8c:60:eb:72:26" value="0101080aa9a1488c60eb7226">
      <field name="tcp.options.nop" showname="TCP Option - No-Operation (NOP)" size="1" pos="54" show="01" value="01">
        <field name="tcp.option_kind" showname="Kind: No-Operation (1)" size="1" pos="54" show="1" value="01"/>
      </field>
      <field name="tcp.options.nop" showname="TCP Option - No-Operation (NOP)" size="1" pos="55" show="01" value="01">
        <field name="tcp.option_kind" showname="Kind: No-Operation (1)" size="1" pos="55" show="1" value="01"/>
      </field>
      <field name="tcp.options.timestamp" showname="TCP Option - Timestamps: TSval 2845919372, TSecr 1626042918" size="10" pos="56" show="08:0a:a9:a1:48:8c:60:eb:72:26" value="080aa9a1488c60eb7226">
        <field name="tcp.option_kind" showname="Kind: Time Stamp Option (8)" size="1" pos="56" show="8" value="08"/>
        <field name="tcp.option_len" showname="Length: 10" size="1" pos="57" show="10" value="0a"/>
        <field name="tcp.options.timestamp.tsval" showname="Timestamp value: 2845919372" size="4" pos="58" show="2845919372" value="a9a1488c"/>
        <field name="tcp.options.timestamp.tsecr" showname="Timestamp echo reply: 1626042918" size="4" pos="62" show="1626042918" value="60eb7226"/>
      </field>
    </field>
    <field name="" show="Timestamps" size="0" pos="34">
      <field name="tcp.time_relative" showname="Time since first frame in this TCP stream: 0.000049346 seconds" size="0" pos="34" show="0.000049346"/>
      <field name="tcp.time_delta" showname="Time since previous frame in this TCP stream: 0.000049346 seconds" size="0" pos="34" show="0.000049346"/>
    </field>
    <field name="tcp.payload" showname="TCP payload (81 bytes)" size="81" pos="66" show="00:00:48:00:01:00:00:06:d7:5b:7b:0a:09:09:22:6f:70:22:3a:09:22:72:65:70:6c:61:63:65:22:2c:0a:09:09:22:70:61:74:68:22:3a:09:22:2f:6e:66:53:74:61:74:75:73:22:2c:0a:09:09:22:76:61:6c:75:65:22:3a:09:22:52:45:47:49:53:54:45:52:45:44:22:0a:09:7d:5d" value="0000480001000006d75b7b0a0909226f70223a09227265706c616365222c0a09092270617468223a09222f6e66537461747573222c0a09092276616c7565223a092252454749535445524544220a097d5d"/>
    <field name="tcp.pdu.size" showname="PDU Size: 81" size="81" pos="66" show="81" value="0000480001000006d75b7b0a0909226f70223a09227265706c616365222c0a09092270617468223a09222f6e66537461747573222c0a09092276616c7565223a092252454749535445524544220a097d5d"/>
  </proto>
  <proto name="http2" showname="HyperText Transfer Protocol 2" size="81" pos="66">
    <field name="http2.stream" showname="Stream: DATA, Stream ID: 1751, Length 72" size="81" pos="66" show="" value="">
      <field name="http2.length" showname="Length: 72" size="3" pos="66" show="72" value="000048"/>
      <field name="http2.type" showname="Type: DATA (0)" size="1" pos="69" show="0" value="00"/>
      <field name="http2.flags" showname="Flags: 0x01" size="1" pos="70" show="0x00000001" value="01">
        <field name="http2.flags.end_stream" showname=".... ...1 = End Stream: True" size="1" pos="70" show="1" value="1" unmaskedvalue="01"/>
        <field name="http2.flags.padded" showname=".... 0... = Padded: False" size="1" pos="70" show="0" value="0" unmaskedvalue="01"/>
        <field name="http2.flags.unused_data" showname="0000 .00. = Unused: 0x00" size="1" pos="70" show="0x00000000" value="0" unmaskedvalue="01"/>
      </field>
      <field name="http2.r" showname="0... .... .... .... .... .... .... .... = Reserved: 0x0" size="4" pos="71" show="0x00000000" value="0" unmaskedvalue="000006d7"/>
      <field name="http2.streamid" showname=".000 0000 0000 0000 0000 0110 1101 0111 = Stream Identifier: 1751" size="4" pos="71" show="1751" value="6D7" unmaskedvalue="000006d7"/>
      <field name="http2.pad_length" showname="Pad Length: 0" size="0" pos="75" show="0"/>
      <field name="http2.data.data" showname="Data: 5b7b0a0909226f70223a09227265706c616365222c0a0909\xe2\x80\xa6" size="72" pos="75" show="5b:7b:0a:09:09:22:6f:70:22:3a:09:22:72:65:70:6c:61:63:65:22:2c:0a:09:09:22:70:61:74:68:22:3a:09:22:2f:6e:66:53:74:61:74:75:73:22:2c:0a:09:09:22:76:61:6c:75:65:22:3a:09:22:52:45:47:49:53:54:45:52:45:44:22:0a:09:7d:5d" value="5b7b0a0909226f70223a09227265706c616365222c0a09092270617468223a09222f6e66537461747573222c0a09092276616c7565223a092252454749535445524544220a097d5d"/>
    </field>
  </proto>
</packet>


<packet>
  <proto name="geninfo" pos="0" showname="General information" size="101">
    <field name="num" pos="0" show="4" showname="Number" value="4" size="101"/>
    <field name="len" pos="0" show="101" showname="Frame Length" value="65" size="101"/>
    <field name="caplen" pos="0" show="101" showname="Captured Length" value="65" size="101"/>
    <field name="timestamp" pos="0" show="May 23, 2023 23:59:49.590726941 CEST" showname="Captured Time" value="1684879189.590726941" size="101"/>
  </proto>
  <proto name="frame" showname="Frame 4: 101 bytes on wire (808 bits), 101 bytes captured (808 bits) on interface veth_udm, id 0" size="101" pos="0">
    <field name="filtered" value="frame" />
  </proto>
  <proto name="eth" showname="Ethernet II, Src: 5a:03:5f:62:d5:6d, Dst: 4e:bc:00:dd:9a:f0" size="14" pos="0">
    <field name="filtered" value="eth" />
  </proto>
  <proto name="ip" showname="Internet Protocol Version 4, Src: 10.0.8.1, Dst: 10.0.15.1" size="20" pos="14">
    <field name="filtered" value="ip" />
  </proto>
  <proto name="tcp" showname="Transmission Control Protocol, Src Port: 7777, Dst Port: 55934, Seq: 423892732, Ack: 601568203, Len: 35" size="32" pos="34">
    <field name="tcp.srcport" showname="Source Port: 7777" size="2" pos="34" show="7777" value="1e61"/>
    <field name="tcp.dstport" showname="Destination Port: 55934" size="2" pos="36" show="55934" value="da7e"/>
    <field name="tcp.port" showname="Source or Destination Port: 7777" hide="yes" size="2" pos="34" show="7777" value="1e61"/>
    <field name="tcp.port" showname="Source or Destination Port: 55934" hide="yes" size="2" pos="36" show="55934" value="da7e"/>
    <field name="tcp.stream" showname="Stream index: 0" size="0" pos="34" show="0"/>
    <field name="tcp.len" showname="TCP Segment Len: 35" size="1" pos="46" show="35" value="80"/>
    <field name="tcp.seq" showname="Sequence number: 423892732" size="4" pos="38" show="423892732" value="194416fc"/>
    <field name="tcp.seq_raw" showname="Sequence number (raw): 423892732" hide="yes" size="4" pos="38" show="423892732" value="194416fc"/>
    <field name="tcp.nxtseq" showname="Next sequence number: 423892767" size="0" pos="34" show="423892767"/>
    <field name="tcp.ack" showname="Acknowledgment number: 601568203" size="4" pos="42" show="601568203" value="23db33cb"/>
    <field name="tcp.ack_raw" showname="Acknowledgment number (raw): 601568203" hide="yes" size="4" pos="42" show="601568203" value="23db33cb"/>
    <field name="tcp.hdr_len" showname="1000 .... = Header Length: 32 bytes (8)" size="1" pos="46" show="32" value="80"/>
    <field name="tcp.flags" showname="Flags: 0x018 (PSH, ACK)" size="2" pos="46" show="0x00000018" value="18" unmaskedvalue="8018">
      <field name="tcp.flags.res" showname="000. .... .... = Reserved: Not set" size="1" pos="46" show="0" value="0" unmaskedvalue="80"/>
      <field name="tcp.flags.ns" showname="...0 .... .... = Nonce: Not set" size="1" pos="46" show="0" value="0" unmaskedvalue="80"/>
      <field name="tcp.flags.cwr" showname=".... 0... .... = Congestion Window Reduced (CWR): Not set" size="1" pos="47" show="0" value="0" unmaskedvalue="18"/>
      <field name="tcp.flags.ecn" showname=".... .0.. .... = ECN-Echo: Not set" size="1" pos="47" show="0" value="0" unmaskedvalue="18"/>
      <field name="tcp.flags.urg" showname=".... ..0. .... = Urgent: Not set" size="1" pos="47" show="0" value="0" unmaskedvalue="18"/>
      <field name="tcp.flags.ack" showname=".... ...1 .... = Acknowledgment: Set" size="1" pos="47" show="1" value="1" unmaskedvalue="18"/>
      <field name="tcp.flags.push" showname=".... .... 1... = Push: Set" size="1" pos="47" show="1" value="1" unmaskedvalue="18"/>
      <field name="tcp.flags.reset" showname=".... .... .0.. = Reset: Not set" size="1" pos="47" show="0" value="0" unmaskedvalue="18"/>
      <field name="tcp.flags.syn" showname=".... .... ..0. = Syn: Not set" size="1" pos="47" show="0" value="0" unmaskedvalue="18"/>
      <field name="tcp.flags.fin" showname=".... .... ...0 = Fin: Not set" size="1" pos="47" show="0" value="0" unmaskedvalue="18"/>
      <field name="tcp.flags.str" showname="TCP Flags: \xc2\xb7\xc2\xb7\xc2\xb7\xc2\xb7\xc2\xb7\xc2\xb7\xc2\xb7AP\xc2\xb7\xc2\xb7\xc2\xb7" size="2" pos="46" show="\xc2\xb7\xc2\xb7\xc2\xb7\xc2\xb7\xc2\xb7\xc2\xb7\xc2\xb7AP\xc2\xb7\xc2\xb7\xc2\xb7" value="8018"/>
    </field>
    <field name="tcp.window_size_value" showname="Window size value: 501" size="2" pos="48" show="501" value="01f5"/>
    <field name="tcp.window_size" showname="Calculated window size: 501" size="2" pos="48" show="501" value="01f5"/>
    <field name="tcp.window_size_scalefactor" showname="Window size scaling factor: -1 (unknown)" size="2" pos="48" show="-1" value="01f5"/>
    <field name="tcp.checksum" showname="Checksum: 0x2b4b [unverified]" size="2" pos="50" show="0x00002b4b" value="2b4b"/>
    <field name="tcp.checksum.status" showname="Checksum Status: Unverified" size="0" pos="50" show="2"/>
    <field name="tcp.urgent_pointer" showname="Urgent pointer: 0" size="2" pos="52" show="0" value="0000"/>
    <field name="tcp.options" showname="Options: (12 bytes), No-Operation (NOP), No-Operation (NOP), Timestamps" size="12" pos="54" show="01:01:08:0a:60:eb:99:42:a9:a1:48:8c" value="0101080a60eb9942a9a1488c">
      <field name="tcp.options.nop" showname="TCP Option - No-Operation (NOP)" size="1" pos="54" show="01" value="01">
        <field name="tcp.option_kind" showname="Kind: No-Operation (1)" size="1" pos="54" show="1" value="01"/>
      </field>
      <field name="tcp.options.nop" showname="TCP Option - No-Operation (NOP)" size="1" pos="55" show="01" value="01">
        <field name="tcp.option_kind" showname="Kind: No-Operation (1)" size="1" pos="55" show="1" value="01"/>
      </field>
      <field name="tcp.options.timestamp" showname="TCP Option - Timestamps: TSval 1626052930, TSecr 2845919372" size="10" pos="56" show="08:0a:60:eb:99:42:a9:a1:48:8c" value="080a60eb9942a9a1488c">
        <field name="tcp.option_kind" showname="Kind: Time Stamp Option (8)" size="1" pos="56" show="8" value="08"/>
        <field name="tcp.option_len" showname="Length: 10" size="1" pos="57" show="10" value="0a"/>
        <field name="tcp.options.timestamp.tsval" showname="Timestamp value: 1626052930" size="4" pos="58" show="1626052930" value="60eb9942"/>
        <field name="tcp.options.timestamp.tsecr" showname="Timestamp echo reply: 2845919372" size="4" pos="62" show="2845919372" value="a9a1488c"/>
      </field>
    </field>
    <field name="" show="Timestamps" size="0" pos="34">
      <field name="tcp.time_relative" showname="Time since first frame in this TCP stream: 0.001627628 seconds" size="0" pos="34" show="0.001627628"/>
      <field name="tcp.time_delta" showname="Time since previous frame in this TCP stream: 0.001434448 seconds" size="0" pos="34" show="0.001434448"/>
    </field>
    <field name="tcp.payload" showname="TCP payload (35 bytes)" size="35" pos="66" show="00:00:1a:01:05:00:00:06:d7:89:e4:61:96:df:69:7e:94:13:2a:68:1f:a5:04:01:32:a0:83:71:b7:ee:34:fa:98:b4:6f" value="00001a0105000006d789e46196df697e94132a681fa5040132a08371b7ee34fa98b46f"/>
    <field name="tcp.pdu.size" showname="PDU Size: 35" size="35" pos="66" show="35" value="00001a0105000006d789e46196df697e94132a681fa5040132a08371b7ee34fa98b46f"/>
  </proto>
  <proto name="http2" showname="HyperText Transfer Protocol 2" size="35" pos="66">
    <field name="http2.stream" showname="Stream: HEADERS, Stream ID: 1751, Length 26, 204 No Content" size="35" pos="66" show="" value="">
      <field name="http2.length" showname="Length: 26" size="3" pos="66" show="26" value="00001a"/>
      <field name="http2.type" showname="Type: HEADERS (1)" size="1" pos="69" show="1" value="01"/>
      <field name="http2.flags" showname="Flags: 0x05" size="1" pos="70" show="0x00000005" value="05">
        <field name="http2.flags.end_stream" showname=".... ...1 = End Stream: True" size="1" pos="70" show="1" value="1" unmaskedvalue="05"/>
        <field name="http2.flags.eh" showname=".... .1.. = End Headers: True" size="1" pos="70" show="1" value="1" unmaskedvalue="05"/>
        <field name="http2.flags.padded" showname=".... 0... = Padded: False" size="1" pos="70" show="0" value="0" unmaskedvalue="05"/>
        <field name="http2.flags.priority" showname="..0. .... = Priority: False" size="1" pos="70" show="0" value="0" unmaskedvalue="05"/>
        <field name="http2.flags.unused_headers" showname="00.0 ..0. = Unused: 0x00" size="1" pos="70" show="0x00000000" value="0" unmaskedvalue="05"/>
      </field>
      <field name="http2.r" showname="0... .... .... .... .... .... .... .... = Reserved: 0x0" size="4" pos="71" show="0x00000000" value="0" unmaskedvalue="000006d7"/>
      <field name="http2.streamid" showname=".000 0000 0000 0000 0000 0110 1101 0111 = Stream Identifier: 1751" size="4" pos="71" show="1751" value="6D7" unmaskedvalue="000006d7"/>
      <field name="http2.pad_length" showname="Pad Length: 0" size="0" pos="75" show="0"/>
      <field name="http2.headers" showname="Header Block Fragment: 89e46196df697e94132a681fa5040132a08371b7ee34fa98\xe2\x80\xa6" size="26" pos="75" show="89:e4:61:96:df:69:7e:94:13:2a:68:1f:a5:04:01:32:a0:83:71:b7:ee:34:fa:98:b4:6f" value="89e46196df697e94132a681fa5040132a08371b7ee34fa98b46f"/>
      <field name="http2.header.length" showname="Header Length: 18" size="1" pos="66" show="18" value="00"/>
      <field name="http2.header.count" showname="Header Count: 1" size="1" pos="66" show="1" value="00"/>
      <field name="http2.header" showname="Header: :status: 204 No Content" size="1" pos="75" show="" value="">
        <field name="http2.header.name.length" showname="Name Length: 7" size="4" pos="75" show="7" value="00000007"/>
        <field name="http2.header.name" showname="Name: :status" size="7" pos="79" show=":status" value="3a737461747573"/>
        <field name="http2.header.value.length" showname="Value Length: 3" size="4" pos="86" show="3" value="00000003"/>
        <field name="http2.header.value" showname="Value: 204" size="3" pos="90" show="204" value="323034"/>
        <field name="http2.headers.status" showname=":status: 204" size="3" pos="90" show="204" value="323034"/>
        <field name="http2.header.unescaped" showname="Unescaped: 204" size="3" pos="90" show="204" value="323034"/>
        <field name="http2.header.repr" showname="Representation: Indexed Header Field" size="1" pos="75" show="Indexed Header Field" value="89"/>
        <field name="http2.header.index" showname="Index: 9" size="1" pos="75" show="9" value="89"/>
      </field>
    </field>
  </proto>
</packet>


<packet>
  <proto name="geninfo" pos="0" showname="General information" size="507">
    <field name="num" pos="0" show="11" showname="Number" value="b" size="507"/>
    <field name="len" pos="0" show="507" showname="Frame Length" value="1fb" size="507"/>
    <field name="caplen" pos="0" show="507" showname="Captured Length" value="1fb" size="507"/>
    <field name="timestamp" pos="0" show="May 23, 2023 23:59:52.976309909 CEST" showname="Captured Time" value="1684879192.976309909" size="507"/>
  </proto>
  <proto name="frame" showname="Frame 11: 507 bytes on wire (4056 bits), 507 bytes captured (4056 bits) on interface veth_udm, id 0" size="507" pos="0">
    <field name="filtered" value="frame" />
  </proto>
  <proto name="eth" showname="Ethernet II, Src: 5a:03:5f:62:d5:6d, Dst: 4e:bc:00:dd:9a:f0" size="14" pos="0">
    <field name="filtered" value="eth" />
  </proto>
  <proto name="ip" showname="Internet Protocol Version 4, Src: 10.0.15.2, Dst: 10.0.15.1" size="20" pos="14">
    <field name="filtered" value="ip" />
  </proto>
  <proto name="tcp" showname="Transmission Control Protocol, Src Port: 57704, Dst Port: 7777, Seq: 2939533317, Ack: 2082833150, Len: 441" size="32" pos="34">
    <field name="tcp.srcport" showname="Source Port: 57704" size="2" pos="34" show="57704" value="e168"/>
    <field name="tcp.dstport" showname="Destination Port: 7777" size="2" pos="36" show="7777" value="1e61"/>
    <field name="tcp.port" showname="Source or Destination Port: 57704" hide="yes" size="2" pos="34" show="57704" value="e168"/>
    <field name="tcp.port" showname="Source or Destination Port: 7777" hide="yes" size="2" pos="36" show="7777" value="1e61"/>
    <field name="tcp.stream" showname="Stream index: 1" size="0" pos="34" show="1"/>
    <field name="tcp.len" showname="TCP Segment Len: 441" size="1" pos="46" show="441" value="80"/>
    <field name="tcp.seq" showname="Sequence number: 2939533317" size="4" pos="38" show="2939533317" value="af35b805"/>
    <field name="tcp.seq_raw" showname="Sequence number (raw): 2939533317" hide="yes" size="4" pos="38" show="2939533317" value="af35b805"/>
    <field name="tcp.nxtseq" showname="Next sequence number: 2939533758" size="0" pos="34" show="2939533758"/>
    <field name="tcp.ack" showname="Acknowledgment number: 2082833150" size="4" pos="42" show="2082833150" value="7c2582fe"/>
    <field name="tcp.ack_raw" showname="Acknowledgment number (raw): 2082833150" hide="yes" size="4" pos="42" show="2082833150" value="7c2582fe"/>
    <field name="tcp.hdr_len" showname="1000 .... = Header Length: 32 bytes (8)" size="1" pos="46" show="32" value="80"/>
    <field name="tcp.flags" showname="Flags: 0x018 (PSH, ACK)" size="2" pos="46" show="0x00000018" value="18" unmaskedvalue="8018">
      <field name="tcp.flags.res" showname="000. .... .... = Reserved: Not set" size="1" pos="46" show="0" value="0" unmaskedvalue="80"/>
      <field name="tcp.flags.ns" showname="...0 .... .... = Nonce: Not set" size="1" pos="46" show="0" value="0" unmaskedvalue="80"/>
      <field name="tcp.flags.cwr" showname=".... 0... .... = Congestion Window Reduced (CWR): Not set" size="1" pos="47" show="0" value="0" unmaskedvalue="18"/>
      <field name="tcp.flags.ecn" showname=".... .0.. .... = ECN-Echo: Not set" size="1" pos="47" show="0" value="0" unmaskedvalue="18"/>
      <field name="tcp.flags.urg" showname=".... ..0. .... = Urgent: Not set" size="1" pos="47" show="0" value="0" unmaskedvalue="18"/>
      <field name="tcp.flags.ack" showname=".... ...1 .... = Acknowledgment: Set" size="1" pos="47" show="1" value="1" unmaskedvalue="18"/>
      <field name="tcp.flags.push" showname=".... .... 1... = Push: Set" size="1" pos="47" show="1" value="1" unmaskedvalue="18"/>
      <field name="tcp.flags.reset" showname=".... .... .0.. = Reset: Not set" size="1" pos="47" show="0" value="0" unmaskedvalue="18"/>
      <field name="tcp.flags.syn" showname=".... .... ..0. = Syn: Not set" size="1" pos="47" show="0" value="0" unmaskedvalue="18"/>
      <field name="tcp.flags.fin" showname=".... .... ...0 = Fin: Not set" size="1" pos="47" show="0" value="0" unmaskedvalue="18"/>
      <field name="tcp.flags.str" showname="TCP Flags: \xc2\xb7\xc2\xb7\xc2\xb7\xc2\xb7\xc2\xb7\xc2\xb7\xc2\xb7AP\xc2\xb7\xc2\xb7\xc2\xb7" size="2" pos="46" show="\xc2\xb7\xc2\xb7\xc2\xb7\xc2\xb7\xc2\xb7\xc2\xb7\xc2\xb7AP\xc2\xb7\xc2\xb7\xc2\xb7" value="8018"/>
    </field>
    <field name="tcp.window_size_value" showname="Window size value: 502" size="2" pos="48" show="502" value="01f6"/>
    <field name="tcp.window_size" showname="Calculated window size: 64256" size="2" pos="48" show="64256" value="01f6"/>
    <field name="tcp.window_size_scalefactor" showname="Window size scaling factor: 128" size="2" pos="48" show="128" value="01f6"/>
    <field name="tcp.checksum" showname="Checksum: 0x33e2 [unverified]" size="2" pos="50" show="0x000033e2" value="33e2"/>
    <field name="tcp.checksum.status" showname="Checksum Status: Unverified" size="0" pos="50" show="2"/>
    <field name="tcp.urgent_pointer" showname="Urgent pointer: 0" size="2" pos="52" show="0" value="0000"/>
    <field name="tcp.options" showname="Options: (12 bytes), No-Operation (NOP), No-Operation (NOP), Timestamps" size="12" pos="54" show="01:01:08:0a:86:1e:51:20:20:82:d3:37" value="0101080a861e51202082d337">
      <field name="tcp.options.nop" showname="TCP Option - No-Operation (NOP)" size="1" pos="54" show="01" value="01">
        <field name="tcp.option_kind" showname="Kind: No-Operation (1)" size="1" pos="54" show="1" value="01"/>
      </field>
      <field name="tcp.options.nop" showname="TCP Option - No-Operation (NOP)" size="1" pos="55" show="01" value="01">
        <field name="tcp.option_kind" showname="Kind: No-Operation (1)" size="1" pos="55" show="1" value="01"/>
      </field>
      <field name="tcp.options.timestamp" showname="TCP Option - Timestamps: TSval 2250133792, TSecr 545444663" size="10" pos="56" show="08:0a:86:1e:51:20:20:82:d3:37" value="080a861e51202082d337">
        <field name="tcp.option_kind" showname="Kind: Time Stamp Option (8)" size="1" pos="56" show="8" value="08"/>
        <field name="tcp.option_len" showname="Length: 10" size="1" pos="57" show="10" value="0a"/>
        <field name="tcp.options.timestamp.tsval" showname="Timestamp value: 2250133792" size="4" pos="58" show="2250133792" value="861e5120"/>
        <field name="tcp.options.timestamp.tsecr" showname="Timestamp echo reply: 545444663" size="4" pos="62" show="545444663" value="2082d337"/>
      </field>
    </field>
    <field name="" show="Timestamps" size="0" pos="34">
      <field name="tcp.time_relative" showname="Time since first frame in this TCP stream: 0.023458988 seconds" size="0" pos="34" show="0.023458988"/>
      <field name="tcp.time_delta" showname="Time since previous frame in this TCP stream: 0.002438252 seconds" size="0" pos="34" show="0.002438252"/>
    </field>
    <field name="tcp.payload" showname="TCP payload (441 bytes)" size="441" pos="66" show="50:52:49:20:2a:20:48:54:54:50:2f:32:2e:30:0d:0a:0d:0a:53:4d:0d:0a:0d:0a:00:00:0c:04:00:00:00:00:00:00:03:00:00:00:64:00:04:00:00:ff:ff:00:00:00:04:01:00:00:00:00:00:00:05:02:00:00:00:00:03:00:00:00:00:c8:00:00:05:02:00:00:00:00:05:00:00:00:00:64:00:00:05:02:00:00:00:00:07:00:00:00:00:00:00:00:05:02:00:00:00:00:09:00:00:00:07:00:00:00:05:02:00:00:00:00:0b:00:00:00:03:00:00:00:59:01:24:00:00:00:0d:00:00:00:0b:0f:83:04:a0:62:ab:64:a5:6b:4a:3b:58:ee:16:0d:4a:0c:b3:e0:0b:a0:00:00:00:00:22:65:a6:07:6a:67:58:bd:cb:52:51:86:41:8a:08:17:02:e1:6d:70:dc:75:d7:5d:53:03:2a:2f:2a:90:7a:8a:aa:69:d2:9a:c4:c0:57:68:0b:83:0f:0d:82:10:41:5f:8b:1d:75:d0:62:0d:26:3d:4c:74:41:ea:00:00:d2:00:01:00:00:00:0d:7b:0a:09:22:6e:66:49:6e:73:74:61:6e:63:65:49:64:22:3a:09:22:35:61:32:64:39:65:39:38:2d:66:39:39:65:2d:34:31:65:64:2d:38:62:36:31:2d:32:64:31:64:63:61:31:63:62:32:37:64:22:2c:0a:09:22:73:75:63:63:65:73:73:22:3a:09:74:72:75:65:2c:0a:09:22:74:69:6d:65:53:74:61:6d:70:22:3a:09:22:32:30:32:33:2d:30:35:2d:32:33:54:32:31:3a:32:31:3a:33:36:2e:32:38:32:33:30:37:2b:30:32:3a:30:30:22:2c:0a:09:22:61:75:74:68:54:79:70:65:22:3a:09:22:35:47:5f:41:4b:41:22:2c:0a:09:22:73:65:72:76:69:6e:67:4e:65:74:77:6f:72:6b:4e:61:6d:65:22:3a:09:22:35:47:3a:6d:6e:63:30:37:30:2e:6d:63:63:39:30:31:2e:33:67:70:70:6e:65:74:77:6f:72:6b:2e:6f:72:67:22:0a:7d:0a" value="505249202a20485454502f322e300d0a0d0a534d0d0a0d0a00000c04000000000000030000006400040000ffff00000004010000000000000502000000000300000000c800000502000000000500000000640000050200000000070000000000000005020000000009000000070000000502000000000b000000030000005901240000000d0000000b0f8304a062ab64a56b4a3b58ee160d4a0cb3e00ba0000000002265a6076a6758bdcb525186418a081702e16d70dc75d75d53032a2f2a907a8aaa69d29ac4c057680b830f0d8210415f8b1d75d0620d263d4c7441ea0000d200010000000d7b0a09226e66496e7374616e63654964223a092235613264396539382d663939652d343165642d386236312d326431646361316362323764222c0a092273756363657373223a09747275652c0a092274696d655374616d70223a0922323032332d30352d32335432313a32313a33362e3238323330372b30323a3030222c0a09226175746854797065223a092235475f414b41222c0a092273657276696e674e6574776f726b4e616d65223a092235473a6d6e633037302e6d63633930312e336770706e6574776f726b2e6f7267220a7d0a"/>
    <field name="tcp.pdu.size" showname="PDU Size: 24" size="24" pos="66" show="24" value="505249202a20485454502f322e300d0a0d0a534d0d0a0d0a"/>
    <field name="tcp.pdu.size" showname="PDU Size: 21" size="21" pos="90" show="21" value="00000c04000000000000030000006400040000ffff"/>
    <field name="tcp.pdu.size" showname="PDU Size: 9" size="9" pos="111" show="9" value="000000040100000000"/>
    <field name="tcp.pdu.size" showname="PDU Size: 14" size="14" pos="120" show="14" value="00000502000000000300000000c8"/>
    <field name="tcp.pdu.size" showname="PDU Size: 14" size="14" pos="134" show="14" value="0000050200000000050000000064"/>
    <field name="tcp.pdu.size" showname="PDU Size: 14" size="14" pos="148" show="14" value="0000050200000000070000000000"/>
    <field name="tcp.pdu.size" showname="PDU Size: 14" size="14" pos="162" show="14" value="0000050200000000090000000700"/>
    <field name="tcp.pdu.size" showname="PDU Size: 14" size="14" pos="176" show="14" value="00000502000000000b0000000300"/>
    <field name="tcp.pdu.size" showname="PDU Size: 98" size="98" pos="190" show="98" value="00005901240000000d0000000b0f8304a062ab64a56b4a3b58ee160d4a0cb3e00ba0000000002265a6076a6758bdcb525186418a081702e16d70dc75d75d53032a2f2a907a8aaa69d29ac4c057680b830f0d8210415f8b1d75d0620d263d4c7441ea"/>
    <field name="tcp.pdu.size" showname="PDU Size: 219" size="219" pos="288" show="219" value="0000d200010000000d7b0a09226e66496e7374616e63654964223a092235613264396539382d663939652d343165642d386236312d326431646361316362323764222c0a092273756363657373223a09747275652c0a092274696d655374616d70223a0922323032332d30352d32335432313a32313a33362e3238323330372b30323a3030222c0a09226175746854797065223a092235475f414b41222c0a092273657276696e674e6574776f726b4e616d65223a092235473a6d6e633037302e6d63633930312e336770706e6574776f726b2e6f7267220a7d0a"/>
  </proto>
  <proto name="http2" showname="HyperText Transfer Protocol 2" size="441" pos="66">
    <field name="http2.stream" showname="Stream: Magic" size="24" pos="66" show="" value="">
      <field name="http2.magic" showname="Magic: PRI * HTTP/2.0\r\n\r\nSM\r\n\r\n" size="24" pos="66" show="PRI * HTTP/2.0\xd\xa\xd\xaSM\xd\xa\xd\xa" value="505249202a20485454502f322e300d0a0d0a534d0d0a0d0a"/>
    </field>
    <field name="http2.stream" showname="Stream: SETTINGS, Stream ID: 0, Length 12" size="21" pos="90" show="" value="">
      <field name="http2.length" showname="Length: 12" size="3" pos="90" show="12" value="00000c"/>
      <field name="http2.type" showname="Type: SETTINGS (4)" size="1" pos="93" show="4" value="04"/>
      <field name="http2.flags" showname="Flags: 0x00" size="1" pos="94" show="0x00000000" value="00">
        <field name="http2.flags.ack.settings" showname=".... ...0 = ACK: False" size="1" pos="94" show="0" value="0" unmaskedvalue="00"/>
        <field name="http2.flags.unused_settings" showname="0000 000. = Unused: 0x00" size="1" pos="94" show="0x00000000" value="0" unmaskedvalue="00"/>
      </field>
      <field name="http2.r" showname="0... .... .... .... .... .... .... .... = Reserved: 0x0" size="4" pos="95" show="0x00000000" value="0" unmaskedvalue="00000000"/>
      <field name="http2.streamid" showname=".000 0000 0000 0000 0000 0000 0000 0000 = Stream Identifier: 0" size="4" pos="95" show="0" value="0" unmaskedvalue="00000000"/>
      <field name="http2.settings" showname="Settings - Max concurrent streams : 100" size="6" pos="99" show="" value="">
        <field name="http2.settings.id" showname="Settings Identifier: Max concurrent streams (3)" size="2" pos="99" show="3" value="0003"/>
        <field name="http2.settings.max_concurrent_streams" showname="Max concurrent streams: 100" size="4" pos="101" show="100" value="00000064"/>
      </field>
      <field name="http2.settings" showname="Settings - Initial Windows size : 65535" size="6" pos="105" show="" value="">
        <field name="http2.settings.id" showname="Settings Identifier: Initial Windows size (4)" size="2" pos="105" show="4" value="0004"/>
        <field name="http2.settings.initial_window_size" showname="Initial Windows Size: 65535" size="4" pos="107" show="65535" value="0000ffff"/>
      </field>
    </field>
    <field name="http2.stream" showname="Stream: SETTINGS, Stream ID: 0, Length 0" size="9" pos="111" show="" value="">
      <field name="http2.length" showname="Length: 0" size="3" pos="111" show="0" value="000000"/>
      <field name="http2.type" showname="Type: SETTINGS (4)" size="1" pos="114" show="4" value="04"/>
      <field name="http2.flags" showname="Flags: 0x01" size="1" pos="115" show="0x00000001" value="01">
        <field name="http2.flags.ack.settings" showname=".... ...1 = ACK: True" size="1" pos="115" show="1" value="1" unmaskedvalue="01"/>
        <field name="http2.flags.unused_settings" showname="0000 000. = Unused: 0x00" size="1" pos="115" show="0x00000000" value="0" unmaskedvalue="01"/>
      </field>
      <field name="http2.r" showname="0... .... .... .... .... .... .... .... = Reserved: 0x0" size="4" pos="116" show="0x00000000" value="0" unmaskedvalue="00000000"/>
      <field name="http2.streamid" showname=".000 0000 0000 0000 0000 0000 0000 0000 = Stream Identifier: 0" size="4" pos="116" show="0" value="0" unmaskedvalue="00000000"/>
    </field>
    <field name="http2.stream" showname="Stream: PRIORITY, Stream ID: 3, Length 5" size="14" pos="120" show="" value="">
      <field name="http2.length" showname="Length: 5" size="3" pos="120" show="5" value="000005"/>
      <field name="http2.type" showname="Type: PRIORITY (2)" size="1" pos="123" show="2" value="02"/>
      <field name="http2.flags" showname="Flags: 0x00" size="1" pos="124" show="0x00000000" value="00">
        <field name="http2.flags.unused" showname="0000 0000 = Unused: 0x00" size="1" pos="124" show="0x00000000" value="0" unmaskedvalue="00"/>
      </field>
      <field name="http2.r" showname="0... .... .... .... .... .... .... .... = Reserved: 0x0" size="4" pos="125" show="0x00000000" value="0" unmaskedvalue="00000003"/>
      <field name="http2.streamid" showname=".000 0000 0000 0000 0000 0000 0000 0011 = Stream Identifier: 3" size="4" pos="125" show="3" value="3" unmaskedvalue="00000003"/>
      <field name="http2.exclusive" showname="0... .... .... .... .... .... .... .... = Exclusive: False" size="4" pos="129" show="0" value="0" unmaskedvalue="00000000"/>
      <field name="http2.stream_dependency" showname=".000 0000 0000 0000 0000 0000 0000 0000 = Stream Dependency: 0" size="4" pos="129" show="0" value="0" unmaskedvalue="00000000"/>
      <field name="http2.headers.weight" showname="Weight: 200" size="1" pos="133" show="200" value="c8"/>
      <field name="http2.headers.weight_real" showname="Weight real: 201" size="1" pos="133" show="201" value="c8"/>
    </field>
    <field name="http2.stream" showname="Stream: PRIORITY, Stream ID: 5, Length 5" size="14" pos="134" show="" value="">
      <field name="http2.length" showname="Length: 5" size="3" pos="134" show="5" value="000005"/>
      <field name="http2.type" showname="Type: PRIORITY (2)" size="1" pos="137" show="2" value="02"/>
      <field name="http2.flags" showname="Flags: 0x00" size="1" pos="138" show="0x00000000" value="00">
        <field name="http2.flags.unused" showname="0000 0000 = Unused: 0x00" size="1" pos="138" show="0x00000000" value="0" unmaskedvalue="00"/>
      </field>
      <field name="http2.r" showname="0... .... .... .... .... .... .... .... = Reserved: 0x0" size="4" pos="139" show="0x00000000" value="0" unmaskedvalue="00000005"/>
      <field name="http2.streamid" showname=".000 0000 0000 0000 0000 0000 0000 0101 = Stream Identifier: 5" size="4" pos="139" show="5" value="5" unmaskedvalue="00000005"/>
      <field name="http2.exclusive" showname="0... .... .... .... .... .... .... .... = Exclusive: False" size="4" pos="143" show="0" value="0" unmaskedvalue="00000000"/>
      <field name="http2.stream_dependency" showname=".000 0000 0000 0000 0000 0000 0000 0000 = Stream Dependency: 0" size="4" pos="143" show="0" value="0" unmaskedvalue="00000000"/>
      <field name="http2.headers.weight" showname="Weight: 100" size="1" pos="147" show="100" value="64"/>
      <field name="http2.headers.weight_real" showname="Weight real: 101" size="1" pos="147" show="101" value="64"/>
    </field>
    <field name="http2.stream" showname="Stream: PRIORITY, Stream ID: 7, Length 5" size="14" pos="148" show="" value="">
      <field name="http2.length" showname="Length: 5" size="3" pos="148" show="5" value="000005"/>
      <field name="http2.type" showname="Type: PRIORITY (2)" size="1" pos="151" show="2" value="02"/>
      <field name="http2.flags" showname="Flags: 0x00" size="1" pos="152" show="0x00000000" value="00">
        <field name="http2.flags.unused" showname="0000 0000 = Unused: 0x00" size="1" pos="152" show="0x00000000" value="0" unmaskedvalue="00"/>
      </field>
      <field name="http2.r" showname="0... .... .... .... .... .... .... .... = Reserved: 0x0" size="4" pos="153" show="0x00000000" value="0" unmaskedvalue="00000007"/>
      <field name="http2.streamid" showname=".000 0000 0000 0000 0000 0000 0000 0111 = Stream Identifier: 7" size="4" pos="153" show="7" value="7" unmaskedvalue="00000007"/>
      <field name="http2.exclusive" showname="0... .... .... .... .... .... .... .... = Exclusive: False" size="4" pos="157" show="0" value="0" unmaskedvalue="00000000"/>
      <field name="http2.stream_dependency" showname=".000 0000 0000 0000 0000 0000 0000 0000 = Stream Dependency: 0" size="4" pos="157" show="0" value="0" unmaskedvalue="00000000"/>
      <field name="http2.headers.weight" showname="Weight: 0" size="1" pos="161" show="0" value="00"/>
      <field name="http2.headers.weight_real" showname="Weight real: 1" size="1" pos="161" show="1" value="00"/>
    </field>
    <field name="http2.stream" showname="Stream: PRIORITY, Stream ID: 9, Length 5" size="14" pos="162" show="" value="">
      <field name="http2.length" showname="Length: 5" size="3" pos="162" show="5" value="000005"/>
      <field name="http2.type" showname="Type: PRIORITY (2)" size="1" pos="165" show="2" value="02"/>
      <field name="http2.flags" showname="Flags: 0x00" size="1" pos="166" show="0x00000000" value="00">
        <field name="http2.flags.unused" showname="0000 0000 = Unused: 0x00" size="1" pos="166" show="0x00000000" value="0" unmaskedvalue="00"/>
      </field>
      <field name="http2.r" showname="0... .... .... .... .... .... .... .... = Reserved: 0x0" size="4" pos="167" show="0x00000000" value="0" unmaskedvalue="00000009"/>
      <field name="http2.streamid" showname=".000 0000 0000 0000 0000 0000 0000 1001 = Stream Identifier: 9" size="4" pos="167" show="9" value="9" unmaskedvalue="00000009"/>
      <field name="http2.exclusive" showname="0... .... .... .... .... .... .... .... = Exclusive: False" size="4" pos="171" show="0" value="0" unmaskedvalue="00000007"/>
      <field name="http2.stream_dependency" showname=".000 0000 0000 0000 0000 0000 0000 0111 = Stream Dependency: 7" size="4" pos="171" show="7" value="7" unmaskedvalue="00000007"/>
      <field name="http2.headers.weight" showname="Weight: 0" size="1" pos="175" show="0" value="00"/>
      <field name="http2.headers.weight_real" showname="Weight real: 1" size="1" pos="175" show="1" value="00"/>
    </field>
    <field name="http2.stream" showname="Stream: PRIORITY, Stream ID: 11, Length 5" size="14" pos="176" show="" value="">
      <field name="http2.length" showname="Length: 5" size="3" pos="176" show="5" value="000005"/>
      <field name="http2.type" showname="Type: PRIORITY (2)" size="1" pos="179" show="2" value="02"/>
      <field name="http2.flags" showname="Flags: 0x00" size="1" pos="180" show="0x00000000" value="00">
        <field name="http2.flags.unused" showname="0000 0000 = Unused: 0x00" size="1" pos="180" show="0x00000000" value="0" unmaskedvalue="00"/>
      </field>
      <field name="http2.r" showname="0... .... .... .... .... .... .... .... = Reserved: 0x0" size="4" pos="181" show="0x00000000" value="0" unmaskedvalue="0000000b"/>
      <field name="http2.streamid" showname=".000 0000 0000 0000 0000 0000 0000 1011 = Stream Identifier: 11" size="4" pos="181" show="11" value="B" unmaskedvalue="0000000b"/>
      <field name="http2.exclusive" showname="0... .... .... .... .... .... .... .... = Exclusive: False" size="4" pos="185" show="0" value="0" unmaskedvalue="00000003"/>
      <field name="http2.stream_dependency" showname=".000 0000 0000 0000 0000 0000 0000 0011 = Stream Dependency: 3" size="4" pos="185" show="3" value="3" unmaskedvalue="00000003"/>
      <field name="http2.headers.weight" showname="Weight: 0" size="1" pos="189" show="0" value="00"/>
      <field name="http2.headers.weight_real" showname="Weight real: 1" size="1" pos="189" show="1" value="00"/>
    </field>
    <field name="http2.stream" showname="Stream: HEADERS, Stream ID: 13, Length 89, POST /nudm-ueau/v1/imsi-901700000001234/auth-events" size="98" pos="190" show="" value="">
      <field name="http2.length" showname="Length: 89" size="3" pos="190" show="89" value="000059"/>
      <field name="http2.type" showname="Type: HEADERS (1)" size="1" pos="193" show="1" value="01"/>
      <field name="http2.flags" showname="Flags: 0x24" size="1" pos="194" show="0x00000024" value="24">
        <field name="http2.flags.end_stream" showname=".... ...0 = End Stream: False" size="1" pos="194" show="0" value="0" unmaskedvalue="24"/>
        <field name="http2.flags.eh" showname=".... .1.. = End Headers: True" size="1" pos="194" show="1" value="1" unmaskedvalue="24"/>
        <field name="http2.flags.padded" showname=".... 0... = Padded: False" size="1" pos="194" show="0" value="0" unmaskedvalue="24"/>
        <field name="http2.flags.priority" showname="..1. .... = Priority: True" size="1" pos="194" show="1" value="1" unmaskedvalue="24"/>
        <field name="http2.flags.unused_headers" showname="00.0 ..0. = Unused: 0x00" size="1" pos="194" show="0x00000000" value="0" unmaskedvalue="24"/>
      </field>
      <field name="http2.r" showname="0... .... .... .... .... .... .... .... = Reserved: 0x0" size="4" pos="195" show="0x00000000" value="0" unmaskedvalue="0000000d"/>
      <field name="http2.streamid" showname=".000 0000 0000 0000 0000 0000 0000 1101 = Stream Identifier: 13" size="4" pos="195" show="13" value="D" unmaskedvalue="0000000d"/>
      <field name="http2.pad_length" showname="Pad Length: 0" size="0" pos="199" show="0"/>
      <field name="http2.exclusive" showname="0... .... .... .... .... .... .... .... = Exclusive: False" size="4" pos="199" show="0" value="0" unmaskedvalue="0000000b"/>
      <field name="http2.stream_dependency" showname=".000 0000 0000 0000 0000 0000 0000 1011 = Stream Dependency: 11" size="4" pos="199" show="11" value="B" unmaskedvalue="0000000b"/>
      <field name="http2.headers.weight" showname="Weight: 15" size="1" pos="203" show="15" value="0f"/>
      <field name="http2.headers.weight_real" showname="Weight real: 16" size="1" pos="203" show="16" value="0f"/>
      <field name="http2.headers" showname="Header Block Fragment: 8304a062ab64a56b4a3b58ee160d4a0cb3e00ba000000000\xe2\x80\xa6" size="84" pos="204" show="83:04:a0:62:ab:64:a5:6b:4a:3b:58:ee:16:0d:4a:0c:b3:e0:0b:a0:00:00:00:00:22:65:a6:07:6a:67:58:bd:cb:52:51:86:41:8a:08:17:02:e1:6d:70:dc:75:d7:5d:53:03:2a:2f:2a:90:7a:8a:aa:69:d2:9a:c4:c0:57:68:0b:83:0f:0d:82:10:41:5f:8b:1d:75:d0:62:0d:26:3d:4c:74:41:ea" value="8304a062ab64a56b4a3b58ee160d4a0cb3e00ba0000000002265a6076a6758bdcb525186418a081702e16d70dc75d75d53032a2f2a907a8aaa69d29ac4c057680b830f0d8210415f8b1d75d0620d263d4c7441ea"/>
      <field name="http2.header.length" showname="Header Length: 275" size="1" pos="190" show="275" value="00"/>
      <field name="http2.header.count" showname="Header Count: 9" size="1" pos="190" show="9" value="00"/>
      <field name="http2.header" showname="Header: :method: POST" size="1" pos="204" show="" value="">
        <field name="http2.header.name.length" showname="Name Length: 7" size="4" pos="204" show="7" value="00000007"/>
        <field name="http2.header.name" showname="Name: :method" size="7" pos="208" show=":method" value="3a6d6574686f64"/>
        <field name="http2.header.value.length" showname="Value Length: 4" size="4" pos="215" show="4" value="00000004"/>
        <field name="http2.header.value" showname="Value: POST" size="4" pos="219" show="POST" value="504f5354"/>
        <field name="http2.headers.method" showname=":method: POST" size="4" pos="219" show="POST" value="504f5354"/>
        <field name="http2.header.unescaped" showname="Unescaped: POST" size="4" pos="219" show="POST" value="504f5354"/>
        <field name="http2.header.repr" showname="Representation: Indexed Header Field" size="1" pos="204" show="Indexed Header Field" value="83"/>
        <field name="http2.header.index" showname="Index: 3" size="1" pos="204" show="3" value="83"/>
      </field>
      <field name="http2.header" showname="Header: :path: /nudm-ueau/v1/imsi-901700000001234/auth-events" size="34" pos="205" show="" value="">
        <field name="http2.header.name.length" showname="Name Length: 5" size="4" pos="224" show="5" value="00000005"/>
        <field name="http2.header.name" showname="Name: :path" size="5" pos="228" show=":path" value="3a70617468"/>
        <field name="http2.header.value.length" showname="Value Length: 46" size="4" pos="233" show="46" value="0000002e"/>
        <field name="http2.header.value" showname="Value: /nudm-ueau/v1/imsi-901700000001234/auth-events" size="46" pos="237" show="/nudm-ueau/v1/imsi-901700000001234/auth-events" value="2f6e75646d2d756561752f76312f696d73692d3930313730303030303030313233342f617574682d6576656e7473"/>
        <field name="http2.headers.path" showname=":path: /nudm-ueau/v1/imsi-901700000001234/auth-events" size="46" pos="237" show="/nudm-ueau/v1/imsi-901700000001234/auth-events" value="2f6e75646d2d756561752f76312f696d73692d3930313730303030303030313233342f617574682d6576656e7473"/>
        <field name="http2.header.unescaped" showname="Unescaped: /nudm-ueau/v1/imsi-901700000001234/auth-events" size="46" pos="237" show="/nudm-ueau/v1/imsi-901700000001234/auth-events" value="2f6e75646d2d756561752f76312f696d73692d3930313730303030303030313233342f617574682d6576656e7473"/>
        <field name="http2.header.repr" showname="Representation: Literal Header Field without Indexing - Indexed Name" size="1" pos="205" show="Literal Header Field without Indexing - Indexed Name" value="04"/>
        <field name="http2.header.index" showname="Index: 4" size="1" pos="205" show="4" value="04"/>
      </field>
      <field name="http2.header" showname="Header: :scheme: http" size="1" pos="239" show="" value="">
        <field name="http2.header.name.length" showname="Name Length: 7" size="4" pos="317" show="7" value="00000007"/>
        <field name="http2.header.name" showname="Name: :scheme" size="7" pos="321" show=":scheme" value="3a736368656d65"/>
        <field name="http2.header.value.length" showname="Value Length: 4" size="4" pos="328" show="4" value="00000004"/>
        <field name="http2.header.value" showname="Value: http" size="4" pos="332" show="http" value="68747470"/>
        <field name="http2.headers.scheme" showname=":scheme: http" size="4" pos="332" show="http" value="68747470"/>
        <field name="http2.header.unescaped" showname="Unescaped: http" size="4" pos="332" show="http" value="68747470"/>
        <field name="http2.header.repr" showname="Representation: Indexed Header Field" size="1" pos="239" show="Indexed Header Field" value="86"/>
        <field name="http2.header.index" showname="Index: 6" size="1" pos="239" show="6" value="86"/>
      </field>
      <field name="http2.header" showname="Header: :authority: 10.0.15.1:7777" size="12" pos="240" show="" value="">
        <field name="http2.header.name.length" showname="Name Length: 10" size="4" pos="337" show="10" value="0000000a"/>
        <field name="http2.header.name" showname="Name: :authority" size="10" pos="341" show=":authority" value="3a617574686f72697479"/>
        <field name="http2.header.value.length" showname="Value Length: 14" size="4" pos="351" show="14" value="0000000e"/>
        <field name="http2.header.value" showname="Value: 10.0.15.1:7777" size="14" pos="355" show="10.0.15.1:7777" value="31302e302e31352e313a37373737"/>
        <field name="http2.headers.authority" showname=":authority: 10.0.15.1:7777" size="14" pos="355" show="10.0.15.1:7777" value="31302e302e31352e313a37373737"/>
        <field name="http2.header.unescaped" showname="Unescaped: 10.0.15.1:7777" size="14" pos="355" show="10.0.15.1:7777" value="31302e302e31352e313a37373737"/>
        <field name="http2.header.repr" showname="Representation: Literal Header Field with Incremental Indexing - Indexed Name" size="1" pos="240" show="Literal Header Field with Incremental Indexing - Indexed Name" value="41"/>
        <field name="http2.header.index" showname="Index: 1" size="1" pos="240" show="1" value="41"/>
      </field>
      <field name="http2.header" showname="Header: accept: */*" size="5" pos="252" show="" value="">
        <field name="http2.header.name.length" showname="Name Length: 6" size="4" pos="381" show="6" value="00000006"/>
        <field name="http2.header.name" showname="Name: accept" size="6" pos="385" show="accept" value="616363657074"/>
        <field name="http2.header.value.length" showname="Value Length: 3" size="4" pos="391" show="3" value="00000003"/>
        <field name="http2.header.value" showname="Value: */*" size="3" pos="395" show="*/*" value="2a2f2a"/>
        <field name="http2.headers.accept" showname="accept: */*" size="3" pos="395" show="*/*" value="2a2f2a"/>
        <field name="http2.header.unescaped" showname="Unescaped: */*" size="3" pos="395" show="*/*" value="2a2f2a"/>
        <field name="http2.header.repr" showname="Representation: Literal Header Field with Incremental Indexing - Indexed Name" size="1" pos="252" show="Literal Header Field with Incremental Indexing - Indexed Name" value="53"/>
        <field name="http2.header.index" showname="Index: 19" size="1" pos="252" show="19" value="53"/>
      </field>
      <field name="http2.header" showname="Header: accept-encoding: gzip, deflate" size="1" pos="257" show="" value="">
        <field name="http2.header.name.length" showname="Name Length: 15" size="4" pos="403" show="15" value="0000000f"/>
        <field name="http2.header.name" showname="Name: accept-encoding" size="15" pos="407" show="accept-encoding" value="6163636570742d656e636f64696e67"/>
        <field name="http2.header.value.length" showname="Value Length: 13" size="4" pos="422" show="13" value="0000000d"/>
        <field name="http2.header.value" showname="Value: gzip, deflate" size="13" pos="426" show="gzip, deflate" value="677a69702c206465666c617465"/>
        <field name="http2.headers.accept_encoding" showname="accept-encoding: gzip, deflate" size="13" pos="426" show="gzip, deflate" value="677a69702c206465666c617465"/>
        <field name="http2.header.unescaped" showname="Unescaped: gzip, deflate" size="13" pos="426" show="gzip, deflate" value="677a69702c206465666c617465"/>
        <field name="http2.header.repr" showname="Representation: Indexed Header Field" size="1" pos="257" show="Indexed Header Field" value="90"/>
        <field name="http2.header.index" showname="Index: 16" size="1" pos="257" show="16" value="90"/>
      </field>
      <field name="http2.header" showname="Header: user-agent: nghttp2/1.40.0" size="12" pos="258" show="" value="">
        <field name="http2.header.name.length" showname="Name Length: 10" size="4" pos="440" show="10" value="0000000a"/>
        <field name="http2.header.name" showname="Name: user-agent" size="10" pos="444" show="user-agent" value="757365722d6167656e74"/>
        <field name="http2.header.value.length" showname="Value Length: 14" size="4" pos="454" show="14" value="0000000e"/>
        <field name="http2.header.value" showname="Value: nghttp2/1.40.0" size="14" pos="458" show="nghttp2/1.40.0" value="6e6768747470322f312e34302e30"/>
        <field name="http2.headers.user_agent" showname="user-agent: nghttp2/1.40.0" size="14" pos="458" show="nghttp2/1.40.0" value="6e6768747470322f312e34302e30"/>
        <field name="http2.header.unescaped" showname="Unescaped: nghttp2/1.40.0" size="14" pos="458" show="nghttp2/1.40.0" value="6e6768747470322f312e34302e30"/>
        <field name="http2.header.repr" showname="Representation: Literal Header Field with Incremental Indexing - Indexed Name" size="1" pos="258" show="Literal Header Field with Incremental Indexing - Indexed Name" value="7a"/>
        <field name="http2.header.index" showname="Index: 58" size="1" pos="258" show="58" value="7a"/>
      </field>
      <field name="http2.header" showname="Header: content-length: 210" size="5" pos="270" show="" value="">
        <field name="http2.header.name.length" showname="Name Length: 14" size="4" pos="484" show="14" value="0000000e"/>
        <field name="http2.header.name" showname="Name: content-length" size="14" pos="488" show="content-length" value="636f6e74656e742d6c656e677468"/>
        <field name="http2.header.value.length" showname="Value Length: 3" size="4" pos="502" show="3" value="00000003"/>
        <field name="http2.header.value" showname="Value: 210" size="3" pos="506" show="210" value="323130"/>
        <field name="http2.headers.content_length" showname="content-length: 210" size="3" pos="506" show="210" value="323130"/>
        <field name="http2.header.unescaped" showname="Unescaped: 210" size="3" pos="506" show="210" value="323130"/>
        <field name="http2.header.repr" showname="Representation: Literal Header Field without Indexing - Indexed Name" size="1" pos="270" show="Literal Header Field without Indexing - Indexed Name" value="0f"/>
        <field name="http2.header.index" showname="Index: 28" size="1" pos="270" show="28" value="0f"/>
      </field>
      <field name="http2.header" showname="Header: content-type: application/json" size="13" pos="275" show="" value="">
        <field name="http2.header.name.length" showname="Name Length: 12" size="4" pos="514" show="12" value="0000000c"/>
        <field name="http2.header.name" showname="Name: content-type" size="12" pos="518" show="content-type" value="636f6e74656e742d74797065"/>
        <field name="http2.header.value.length" showname="Value Length: 16" size="4" pos="530" show="16" value="00000010"/>
        <field name="http2.header.value" showname="Value: application/json" size="16" pos="534" show="application/json" value="6170706c69636174696f6e2f6a736f6e"/>
        <field name="http2.headers.content_type" showname="content-type: application/json" size="16" pos="534" show="application/json" value="6170706c69636174696f6e2f6a736f6e"/>
        <field name="http2.header.unescaped" showname="Unescaped: application/json" size="16" pos="534" show="application/json" value="6170706c69636174696f6e2f6a736f6e"/>
        <field name="http2.header.repr" showname="Representation: Literal Header Field with Incremental Indexing - Indexed Name" size="1" pos="275" show="Literal Header Field with Incremental Indexing - Indexed Name" value="5f"/>
        <field name="http2.header.index" showname="Index: 31" size="1" pos="275" show="31" value="5f"/>
      </field>
    </field>
    <field name="http2.stream" showname="Stream: DATA, Stream ID: 13, Length 210" size="219" pos="288" show="" value="">
      <field name="http2.length" showname="Length: 210" size="3" pos="288" show="210" value="0000d2"/>
      <field name="http2.type" showname="Type: DATA (0)" size="1" pos="291" show="0" value="00"/>
      <field name="http2.flags" showname="Flags: 0x01" size="1" pos="292" show="0x00000001" value="01">
        <field name="http2.flags.end_stream" showname=".... ...1 = End Stream: True" size="1" pos="292" show="1" value="1" unmaskedvalue="01"/>
        <field name="http2.flags.padded" showname=".... 0... = Padded: False" size="1" pos="292" show="0" value="0" unmaskedvalue="01"/>
        <field name="http2.flags.unused_data" showname="0000 .00. = Unused: 0x00" size="1" pos="292" show="0x00000000" value="0" unmaskedvalue="01"/>
      </field>
      <field name="http2.r" showname="0... .... .... .... .... .... .... .... = Reserved: 0x0" size="4" pos="293" show="0x00000000" value="0" unmaskedvalue="0000000d"/>
      <field name="http2.streamid" showname=".000 0000 0000 0000 0000 0000 0000 1101 = Stream Identifier: 13" size="4" pos="293" show="13" value="D" unmaskedvalue="0000000d"/>
      <field name="http2.pad_length" showname="Pad Length: 0" size="0" pos="297" show="0"/>
      <field name="http2.data.data" showname="Data: 7b0a09226e66496e7374616e63654964223a092235613264\xe2\x80\xa6" size="210" pos="297" show="7b:0a:09:22:6e:66:49:6e:73:74:61:6e:63:65:49:64:22:3a:09:22:35:61:32:64:39:65:39:38:2d:66:39:39:65:2d:34:31:65:64:2d:38:62:36:31:2d:32:64:31:64:63:61:31:63:62:32:37:64:22:2c:0a:09:22:73:75:63:63:65:73:73:22:3a:09:74:72:75:65:2c:0a:09:22:74:69:6d:65:53:74:61:6d:70:22:3a:09:22:32:30:32:33:2d:30:35:2d:32:33:54:32:31:3a:32:31:3a:33:36:2e:32:38:32:33:30:37:2b:30:32:3a:30:30:22:2c:0a:09:22:61:75:74:68:54:79:70:65:22:3a:09:22:35:47:5f:41:4b:41:22:2c:0a:09:22:73:65:72:76:69:6e:67:4e:65:74:77:6f:72:6b:4e:61:6d:65:22:3a:09:22:35:47:3a:6d:6e:63:30:37:30:2e:6d:63:63:39:30:31:2e:33:67:70:70:6e:65:74:77:6f:72:6b:2e:6f:72:67:22:0a:7d:0a" value="7b0a09226e66496e7374616e63654964223a092235613264396539382d663939652d343165642d386236312d326431646361316362323764222c0a092273756363657373223a09747275652c0a092274696d655374616d70223a0922323032332d30352d32335432313a32313a33362e3238323330372b30323a3030222c0a09226175746854797065223a092235475f414b41222c0a092273657276696e674e6574776f726b4e616d65223a092235473a6d6e633037302e6d63633930312e336770706e6574776f726b2e6f7267220a7d0a"/>
    </field>
    <proto name="json" showname="JavaScript Object Notation: application/json" size="210" pos="297">
      <field name="json.object" showname="Object" size="209" pos="297" show="" value="">
        <field name="json.member" showname="Member Key: nfInstanceId" size="54" pos="300" show="" value="">
          <field name="json.value.string" showname="String value: 5a2d9e98-f99e-41ed-8b61-2d1dca1cb27d" size="38" pos="316" show="5a2d9e98-f99e-41ed-8b61-2d1dca1cb27d" value="2235613264396539382d663939652d343165642d386236312d32643164636131636232376422"/>
          <field name="json.key" showname="Key: nfInstanceId" size="14" pos="300" show="nfInstanceId" value="226e66496e7374616e6365496422"/>
        </field>
        <field name="json.member" showname="Member Key: success" size="15" pos="357" show="" value="">
          <field name="json.value.true" showname="True value" size="4" pos="368" show="" value=""/>
          <field name="json.key" showname="Key: success" size="9" pos="357" show="success" value="227375636365737322"/>
        </field>
        <field name="json.member" showname="Member Key: timeStamp" size="47" pos="375" show="" value="">
          <field name="json.value.string" showname="String value: 2023-05-23T21:21:36.282307+02:00" size="34" pos="388" show="2023-05-23T21:21:36.282307+02:00" value="22323032332d30352d32335432313a32313a33362e3238323330372b30323a303022"/>
          <field name="json.key" showname="Key: timeStamp" size="11" pos="375" show="timeStamp" value="2274696d655374616d7022"/>
        </field>
        <field name="json.member" showname="Member Key: authType" size="20" pos="425" show="" value="">
          <field name="json.value.string" showname="String value: 5G_AKA" size="8" pos="437" show="5G_AKA" value="2235475f414b4122"/>
          <field name="json.key" showname="Key: authType" size="10" pos="425" show="authType" value="22617574685479706522"/>
        </field>
        <field name="json.member" showname="Member Key: servingNetworkName" size="56" pos="448" show="" value="">
          <field name="json.value.string" showname="String value: 5G:mnc070.mcc901.3gppnetwork.org" size="34" pos="470" show="5G:mnc070.mcc901.3gppnetwork.org" value="2235473a6d6e633037302e6d63633930312e336770706e6574776f726b2e6f726722"/>
          <field name="json.key" showname="Key: servingNetworkName" size="20" pos="448" show="servingNetworkName" value="2273657276696e674e6574776f726b4e616d6522"/>
        </field>
      </field>
    </proto>
  </proto>
</packet>


<packet>
  <proto name="geninfo" pos="0" showname="General information" size="166">
    <field name="num" pos="0" show="13" showname="Number" value="d" size="166"/>
    <field name="len" pos="0" show="166" showname="Frame Length" value="a6" size="166"/>
    <field name="caplen" pos="0" show="166" showname="Captured Length" value="a6" size="166"/>
    <field name="timestamp" pos="0" show="May 23, 2023 23:59:52.984111491 CEST" showname="Captured Time" value="1684879192.984111491" size="166"/>
  </proto>
  <proto name="frame" showname="Frame 13: 166 bytes on wire (1328 bits), 166 bytes captured (1328 bits) on interface veth_udm, id 0" size="166" pos="0">
    <field name="filtered" value="frame" />
  </proto>
  <proto name="eth" showname="Ethernet II, Src: 4e:bc:00:dd:9a:f0, Dst: 5a:03:5f:62:d5:6d" size="14" pos="0">
    <field name="filtered" value="eth" />
  </proto>
  <proto name="ip" showname="Internet Protocol Version 4, Src: 10.0.15.1, Dst: 10.0.16.1" size="20" pos="14">
    <field name="filtered" value="ip" />
  </proto>
  <proto name="tcp" showname="Transmission Control Protocol, Src Port: 36474, Dst Port: 7777, Seq: 3022824492, Ack: 3615167329, Len: 100" size="32" pos="34">
    <field name="tcp.srcport" showname="Source Port: 36474" size="2" pos="34" show="36474" value="8e7a"/>
    <field name="tcp.dstport" showname="Destination Port: 7777" size="2" pos="36" show="7777" value="1e61"/>
    <field name="tcp.port" showname="Source or Destination Port: 36474" hide="yes" size="2" pos="34" show="36474" value="8e7a"/>
    <field name="tcp.port" showname="Source or Destination Port: 7777" hide="yes" size="2" pos="36" show="7777" value="1e61"/>
    <field name="tcp.stream" showname="Stream index: 2" size="0" pos="34" show="2"/>
    <field name="tcp.len" showname="TCP Segment Len: 100" size="1" pos="46" show="100" value="80"/>
    <field name="tcp.seq" showname="Sequence number: 3022824492" size="4" pos="38" show="3022824492" value="b42ca42c"/>
    <field name="tcp.seq_raw" showname="Sequence number (raw): 3022824492" hide="yes" size="4" pos="38" show="3022824492" value="b42ca42c"/>
    <field name="tcp.nxtseq" showname="Next sequence number: 3022824592" size="0" pos="34" show="3022824592"/>
    <field name="tcp.ack" showname="Acknowledgment number: 3615167329" size="4" pos="42" show="3615167329" value="d77b1361"/>
    <field name="tcp.ack_raw" showname="Acknowledgment number (raw): 3615167329" hide="yes" size="4" pos="42" show="3615167329" value="d77b1361"/>
    <field name="tcp.hdr_len" showname="1000 .... = Header Length: 32 bytes (8)" size="1" pos="46" show="32" value="80"/>
    <field name="tcp.flags" showname="Flags: 0x018 (PSH, ACK)" size="2" pos="46" show="0x00000018" value="18" unmaskedvalue="8018">
      <field name="tcp.flags.res" showname="000. .... .... = Reserved: Not set" size="1" pos="46" show="0" value="0" unmaskedvalue="80"/>
      <field name="tcp.flags.ns" showname="...0 .... .... = Nonce: Not set" size="1" pos="46" show="0" value="0" unmaskedvalue="80"/>
      <field name="tcp.flags.cwr" showname=".... 0... .... = Congestion Window Reduced (CWR): Not set" size="1" pos="47" show="0" value="0" unmaskedvalue="18"/>
      <field name="tcp.flags.ecn" showname=".... .0.. .... = ECN-Echo: Not set" size="1" pos="47" show="0" value="0" unmaskedvalue="18"/>
      <field name="tcp.flags.urg" showname=".... ..0. .... = Urgent: Not set" size="1" pos="47" show="0" value="0" unmaskedvalue="18"/>
      <field name="tcp.flags.ack" showname=".... ...1 .... = Acknowledgment: Set" size="1" pos="47" show="1" value="1" unmaskedvalue="18"/>
      <field name="tcp.flags.push" showname=".... .... 1... = Push: Set" size="1" pos="47" show="1" value="1" unmaskedvalue="18"/>
      <field name="tcp.flags.reset" showname=".... .... .0.. = Reset: Not set" size="1" pos="47" show="0" value="0" unmaskedvalue="18"/>
      <field name="tcp.flags.syn" showname=".... .... ..0. = Syn: Not set" size="1" pos="47" show="0" value="0" unmaskedvalue="18"/>
      <field name="tcp.flags.fin" showname=".... .... ...0 = Fin: Not set" size="1" pos="47" show="0" value="0" unmaskedvalue="18"/>
      <field name="tcp.flags.str" showname="TCP Flags: \xc2\xb7\xc2\xb7\xc2\xb7\xc2\xb7\xc2\xb7\xc2\xb7\xc2\xb7AP\xc2\xb7\xc2\xb7\xc2\xb7" size="2" pos="46" show="\xc2\xb7\xc2\xb7\xc2\xb7\xc2\xb7\xc2\xb7\xc2\xb7\xc2\xb7AP\xc2\xb7\xc2\xb7\xc2\xb7" value="8018"/>
    </field>
    <field name="tcp.window_size_value" showname="Window size value: 501" size="2" pos="48" show="501" value="01f5"/>
    <field name="tcp.window_size" showname="Calculated window size: 501" size="2" pos="48" show="501" value="01f5"/>
    <field name="tcp.window_size_scalefactor" showname="Window size scaling factor: -1 (unknown)" size="2" pos="48" show="-1" value="01f5"/>
    <field name="tcp.checksum" showname="Checksum: 0x338c [unverified]" size="2" pos="50" show="0x0000338c" value="338c"/>
    <field name="tcp.checksum.status" showname="Checksum Status: Unverified" size="0" pos="50" show="2"/>
    <field name="tcp.urgent_pointer" showname="Urgent pointer: 0" size="2" pos="52" show="0" value="0000"/>
    <field name="tcp.options" showname="Options: (12 bytes), No-Operation (NOP), No-Operation (NOP), Timestamps" size="12" pos="54" show="01:01:08:0a:b0:3e:3f:f0:7c:49:4d:b5" value="0101080ab03e3ff07c494db5">
      <field name="tcp.options.nop" showname="TCP Option - No-Operation (NOP)" size="1" pos="54" show="01" value="01">
        <field name="tcp.option_kind" showname="Kind: No-Operation (1)" size="1" pos="54" show="1" value="01"/>
      </field>
      <field name="tcp.options.nop" showname="TCP Option - No-Operation (NOP)" size="1" pos="55" show="01" value="01">
        <field name="tcp.option_kind" showname="Kind: No-Operation (1)" size="1" pos="55" show="1" value="01"/>
      </field>
      <field name="tcp.options.timestamp" showname="TCP Option - Timestamps: TSval 2956869616, TSecr 2085178805" size="10" pos="56" show="08:0a:b0:3e:3f:f0:7c:49:4d:b5" value="080ab03e3ff07c494db5">
        <field name="tcp.option_kind" showname="Kind: Time Stamp Option (8)" size="1" pos="56" show="8" value="08"/>
        <field name="tcp.option_len" showname="Length: 10" size="1" pos="57" show="10" value="0a"/>
        <field name="tcp.options.timestamp.tsval" showname="Timestamp value: 2956869616" size="4" pos="58" show="2956869616" value="b03e3ff0"/>
        <field name="tcp.options.timestamp.tsecr" showname="Timestamp echo reply: 2085178805" size="4" pos="62" show="2085178805" value="7c494db5"/>
      </field>
    </field>
    <field name="" show="Timestamps" size="0" pos="34">
      <field name="tcp.time_relative" showname="Time since first frame in this TCP stream: 0.000000000 seconds" size="0" pos="34" show="0.000000000"/>
      <field name="tcp.time_delta" showname="Time since previous frame in this TCP stream: 0.000000000 seconds" size="0" pos="34" show="0.000000000"/>
    </field>
    <field name="tcp.payload" showname="TCP payload (100 bytes)" size="100" pos="66" show="00:00:5b:01:04:00:00:00:05:42:03:50:55:54:04:bf:62:ab:64:b1:69:2c:63:b8:58:45:b1:a0:96:1a:b4:98:f5:2d:20:d2:36:0d:4a:0c:b3:e0:0b:a0:00:00:00:00:22:65:a6:07:6a:67:2d:49:31:06:93:1e:a5:a4:1a:46:c0:ed:4c:e5:a9:26:20:d2:63:d4:b2:12:34:da:8f:86:c0:5f:8b:1d:75:d0:62:0d:26:3d:4c:74:41:ea:c0:0f:0d:82:10:1f" value="00005b010400000005420350555404bf62ab64b1692c63b85845b1a0961ab498f52d20d2360d4a0cb3e00ba0000000002265a6076a672d493106931ea5a41a46c0ed4ce5a92620d263d4b21234da8f86c05f8b1d75d0620d263d4c7441eac00f0d82101f"/>
    <field name="tcp.pdu.size" showname="PDU Size: 100" size="100" pos="66" show="100" value="00005b010400000005420350555404bf62ab64b1692c63b85845b1a0961ab498f52d20d2360d4a0cb3e00ba0000000002265a6076a672d493106931ea5a41a46c0ed4ce5a92620d263d4b21234da8f86c05f8b1d75d0620d263d4c7441eac00f0d82101f"/>
  </proto>
  <proto name="http2" showname="HyperText Transfer Protocol 2" size="100" pos="66">
    <field name="http2.stream" showname="Stream: HEADERS, Stream ID: 5, Length 91, PUT /nudr-dr/v1/subscription-data/imsi-901700000001234/authentication-data/authentication-status" size="100" pos="66" show="" value="">
      <field name="http2.length" showname="Length: 91" size="3" pos="66" show="91" value="00005b"/>
      <field name="http2.type" showname="Type: HEADERS (1)" size="1" pos="69" show="1" value="01"/>
      <field name="http2.flags" showname="Flags: 0x04" size="1" pos="70" show="0x00000004" value="04">
        <field name="http2.flags.end_stream" showname=".... ...0 = End Stream: False" size="1" pos="70" show="0" value="0" unmaskedvalue="04"/>
        <field name="http2.flags.eh" showname=".... .1.. = End Headers: True" size="1" pos="70" show="1" value="1" unmaskedvalue="04"/>
        <field name="http2.flags.padded" showname=".... 0... = Padded: False" size="1" pos="70" show="0" value="0" unmaskedvalue="04"/>
        <field name="http2.flags.priority" showname="..0. .... = Priority: False" size="1" pos="70" show="0" value="0" unmaskedvalue="04"/>
        <field name="http2.flags.unused_headers" showname="00.0 ..0. = Unused: 0x00" size="1" pos="70" show="0x00000000" value="0" unmaskedvalue="04"/>
      </field>
      <field name="http2.r" showname="0... .... .... .... .... .... .... .... = Reserved: 0x0" size="4" pos="71" show="0x00000000" value="0" unmaskedvalue="00000005"/>
      <field name="http2.streamid" showname=".000 0000 0000 0000 0000 0000 0000 0101 = Stream Identifier: 5" size="4" pos="71" show="5" value="5" unmaskedvalue="00000005"/>
      <field name="http2.pad_length" showname="Pad Length: 0" size="0" pos="75" show="0"/>
      <field name="http2.headers" showname="Header Block Fragment: 420350555404bf62ab64b1692c63b85845b1a0961ab498f5\xe2\x80\xa6" size="91" pos="75" show="42:03:50:55:54:04:bf:62:ab:64:b1:69:2c:63:b8:58:45:b1:a0:96:1a:b4:98:f5:2d:20:d2:36:0d:4a:0c:b3:e0:0b:a0:00:00:00:00:22:65:a6:07:6a:67:2d:49:31:06:93:1e:a5:a4:1a:46:c0:ed:4c:e5:a9:26:20:d2:63:d4:b2:12:34:da:8f:86:c0:5f:8b:1d:75:d0:62:0d:26:3d:4c:74:41:ea:c0:0f:0d:82:10:1f" value="420350555404bf62ab64b1692c63b85845b1a0961ab498f52d20d2360d4a0cb3e00ba0000000002265a6076a672d493106931ea5a41a46c0ed4ce5a92620d263d4b21234da8f86c05f8b1d75d0620d263d4c7441eac00f0d82101f"/>
      <field name="http2.header.length" showname="Header Length: 142" size="1" pos="66" show="142" value="00"/>
      <field name="http2.header.count" showname="Header Count: 3" size="1" pos="66" show="3" value="00"/>
      <field name="http2.header" showname="Header: :method: PUT" size="5" pos="75" show="" value="">
        <field name="http2.header.name.length" showname="Name Length: 7" size="4" pos="75" show="7" value="00000007"/>
        <field name="http2.header.name" showname="Name: :method" size="7" pos="79" show=":method" value="3a6d6574686f64"/>
        <field name="http2.header.value.length" showname="Value Length: 3" size="4" pos="86" show="3" value="00000003"/>
        <field name="http2.header.value" showname="Value: PUT" size="3" pos="90" show="PUT" value="505554"/>
        <field name="http2.headers.method" showname=":method: PUT" size="3" pos="90" show="PUT" value="505554"/>
        <field name="http2.header.unescaped" showname="Unescaped: PUT" size="3" pos="90" show="PUT" value="505554"/>
        <field name="http2.header.repr" showname="Representation: Literal Header Field with Incremental Indexing - Indexed Name" size="1" pos="75" show="Literal Header Field with Incremental Indexing - Indexed Name" value="42"/>
        <field name="http2.header.index" showname="Index: 2" size="1" pos="75" show="2" value="42"/>
      </field>
      <field name="http2.header" showname="Header: :path: /nudr-dr/v1/subscription-data/imsi-901700000001234/authentication-data/authentication-status" size="65" pos="80" show="" value="">
        <field name="http2.header.name.length" showname="Name Length: 5" size="4" pos="98" show="5" value="00000005"/>
        <field name="http2.header.name" showname="Name: :path" size="5" pos="102" show=":path" value="3a70617468"/>
        <field name="http2.header.value.length" showname="Value Length: 92" size="4" pos="107" show="92" value="0000005c"/>
        <field name="http2.header.value" showname="Value: /nudr-dr/v1/subscription-data/imsi-901700000001234/authentication-data/authentication-status" size="92" pos="111" show="/nudr-dr/v1/subscription-data/imsi-901700000001234/authentication-data/authentication-status" value="2f6e7564722d64722f76312f737562736372697074696f6e2d646174612f696d73692d3930313730303030303030313233342f61757468656e7469636174696f6e2d646174612f61757468656e7469636174696f6e2d737461747573"/>
        <field name="http2.headers.path" showname=":path: /nudr-dr/v1/subscription-data/imsi-901700000001234/authentication-data/authentication-status" size="92" pos="111" show="/nudr-dr/v1/subscription-data/imsi-901700000001234/authentication-data/authentication-status" value="2f6e7564722d64722f76312f737562736372697074696f6e2d646174612f696d73692d3930313730303030303030313233342f61757468656e7469636174696f6e2d646174612f61757468656e7469636174696f6e2d737461747573"/>
        <field name="http2.header.unescaped" showname="Unescaped: /nudr-dr/v1/subscription-data/imsi-901700000001234/authentication-data/authentication-status" size="92" pos="111" show="/nudr-dr/v1/subscription-data/imsi-901700000001234/authentication-data/authentication-status" value="2f6e7564722d64722f76312f737562736372697074696f6e2d646174612f696d73692d3930313730303030303030313233342f61757468656e7469636174696f6e2d646174612f61757468656e7469636174696f6e2d737461747573"/>
        <field name="http2.header.repr" showname="Representation: Literal Header Field without Indexing - Indexed Name" size="1" pos="80" show="Literal Header Field without Indexing - Indexed Name" value="04"/>
        <field name="http2.header.index" showname="Index: 4" size="1" pos="80" show="4" value="04"/>
      </field>
      <field name="http2.header" showname="Header: :scheme: http" size="1" pos="145" show="" value="">
        <field name="http2.header.name.length" showname="Name Length: 7" size="4" pos="268" show="7" value="00000007"/>
        <field name="http2.header.name" showname="Name: :scheme" size="7" pos="272" show=":scheme" value="3a736368656d65"/>
        <field name="http2.header.value.length" showname="Value Length: 4" size="4" pos="279" show="4" value="00000004"/>
        <field name="http2.header.value" showname="Value: http" size="4" pos="283" show="http" value="68747470"/>
        <field name="http2.headers.scheme" showname=":scheme: http" size="4" pos="283" show="http" value="68747470"/>
        <field name="http2.header.unescaped" showname="Unescaped: http" size="4" pos="283" show="http" value="68747470"/>
        <field name="http2.header.repr" showname="Representation: Indexed Header Field" size="1" pos="145" show="Indexed Header Field" value="86"/>
        <field name="http2.header.index" showname="Index: 6" size="1" pos="145" show="6" value="86"/>
      </field>
    </field>
  </proto>
</packet>


<packet>
  <proto name="geninfo" pos="0" showname="General information" size="284">
    <field name="num" pos="0" show="14" showname="Number" value="e" size="284"/>
    <field name="len" pos="0" show="284" showname="Frame Length" value="11c" size="284"/>
    <field name="caplen" pos="0" show="284" showname="Captured Length" value="11c" size="284"/>
    <field name="timestamp" pos="0" show="May 23, 2023 23:59:52.984269796 CEST" showname="Captured Time" value="1684879192.984269796" size="284"/>
  </proto>
  <proto name="frame" showname="Frame 14: 284 bytes on wire (2272 bits), 284 bytes captured (2272 bits) on interface veth_udm, id 0" size="284" pos="0">
    <field name="filtered" value="frame" />
  </proto>
  <proto name="eth" showname="Ethernet II, Src: 4e:bc:00:dd:9a:f0, Dst: 5a:03:5f:62:d5:6d" size="14" pos="0">
    <field name="filtered" value="eth" />
  </proto>
  <proto name="ip" showname="Internet Protocol Version 4, Src: 10.0.15.1, Dst: 10.0.16.1" size="20" pos="14">
    <field name="filtered" value="ip" />
  </proto>
  <proto name="tcp" showname="Transmission Control Protocol, Src Port: 36474, Dst Port: 7777, Seq: 3022824592, Ack: 3615167329, Len: 218" size="32" pos="34">
    <field name="tcp.srcport" showname="Source Port: 36474" size="2" pos="34" show="36474" value="8e7a"/>
    <field name="tcp.dstport" showname="Destination Port: 7777" size="2" pos="36" show="7777" value="1e61"/>
    <field name="tcp.port" showname="Source or Destination Port: 36474" hide="yes" size="2" pos="34" show="36474" value="8e7a"/>
    <field name="tcp.port" showname="Source or Destination Port: 7777" hide="yes" size="2" pos="36" show="7777" value="1e61"/>
    <field name="tcp.stream" showname="Stream index: 2" size="0" pos="34" show="2"/>
    <field name="tcp.len" showname="TCP Segment Len: 218" size="1" pos="46" show="218" value="80"/>
    <field name="tcp.seq" showname="Sequence number: 3022824592" size="4" pos="38" show="3022824592" value="b42ca490"/>
    <field name="tcp.seq_raw" showname="Sequence number (raw): 3022824592" hide="yes" size="4" pos="38" show="3022824592" value="b42ca490"/>
    <field name="tcp.nxtseq" showname="Next sequence number: 3022824810" size="0" pos="34" show="3022824810"/>
    <field name="tcp.ack" showname="Acknowledgment number: 3615167329" size="4" pos="42" show="3615167329" value="d77b1361"/>
    <field name="tcp.ack_raw" showname="Acknowledgment number (raw): 3615167329" hide="yes" size="4" pos="42" show="3615167329" value="d77b1361"/>
    <field name="tcp.hdr_len" showname="1000 .... = Header Length: 32 bytes (8)" size="1" pos="46" show="32" value="80"/>
    <field name="tcp.flags" showname="Flags: 0x018 (PSH, ACK)" size="2" pos="46" show="0x00000018" value="18" unmaskedvalue="8018">
      <field name="tcp.flags.res" showname="000. .... .... = Reserved: Not set" size="1" pos="46" show="0" value="0" unmaskedvalue="80"/>
      <field name="tcp.flags.ns" showname="...0 .... .... = Nonce: Not set" size="1" pos="46" show="0" value="0" unmaskedvalue="80"/>
      <field name="tcp.flags.cwr" showname=".... 0... .... = Congestion Window Reduced (CWR): Not set" size="1" pos="47" show="0" value="0" unmaskedvalue="18"/>
      <field name="tcp.flags.ecn" showname=".... .0.. .... = ECN-Echo: Not set" size="1" pos="47" show="0" value="0" unmaskedvalue="18"/>
      <field name="tcp.flags.urg" showname=".... ..0. .... = Urgent: Not set" size="1" pos="47" show="0" value="0" unmaskedvalue="18"/>
      <field name="tcp.flags.ack" showname=".... ...1 .... = Acknowledgment: Set" size="1" pos="47" show="1" value="1" unmaskedvalue="18"/>
      <field name="tcp.flags.push" showname=".... .... 1... = Push: Set" size="1" pos="47" show="1" value="1" unmaskedvalue="18"/>
      <field name="tcp.flags.reset" showname=".... .... .0.. = Reset: Not set" size="1" pos="47" show="0" value="0" unmaskedvalue="18"/>
      <field name="tcp.flags.syn" showname=".... .... ..0. = Syn: Not set" size="1" pos="47" show="0" value="0" unmaskedvalue="18"/>
      <field name="tcp.flags.fin" showname=".... .... ...0 = Fin: Not set" size="1" pos="47" show="0" value="0" unmaskedvalue="18"/>
      <field name="tcp.flags.str" showname="TCP Flags: \xc2\xb7\xc2\xb7\xc2\xb7\xc2\xb7\xc2\xb7\xc2\xb7\xc2\xb7AP\xc2\xb7\xc2\xb7\xc2\xb7" size="2" pos="46" show="\xc2\xb7\xc2\xb7\xc2\xb7\xc2\xb7\xc2\xb7\xc2\xb7\xc2\xb7AP\xc2\xb7\xc2\xb7\xc2\xb7" value="8018"/>
    </field>
    <field name="tcp.window_size_value" showname="Window size value: 501" size="2" pos="48" show="501" value="01f5"/>
    <field name="tcp.window_size" showname="Calculated window size: 501" size="2" pos="48" show="501" value="01f5"/>
    <field name="tcp.window_size_scalefactor" showname="Window size scaling factor: -1 (unknown)" size="2" pos="48" show="-1" value="01f5"/>
    <field name="tcp.checksum" showname="Checksum: 0x3402 [unverified]" size="2" pos="50" show="0x00003402" value="3402"/>
    <field name="tcp.checksum.status" showname="Checksum Status: Unverified" size="0" pos="50" show="2"/>
    <field name="tcp.urgent_pointer" showname="Urgent pointer: 0" size="2" pos="52" show="0" value="0000"/>
    <field name="tcp.options" showname="Options: (12 bytes), No-Operation (NOP), No-Operation (NOP), Timestamps" size="12" pos="54" show="01:01:08:0a:b0:3e:3f:f0:7c:49:4d:b5" value="0101080ab03e3ff07c494db5">
      <field name="tcp.options.nop" showname="TCP Option - No-Operation (NOP)" size="1" pos="54" show="01" value="01">
        <field name="tcp.option_kind" showname="Kind: No-Operation (1)" size="1" pos="54" show="1" value="01"/>
      </field>
      <field name="tcp.options.nop" showname="TCP Option - No-Operation (NOP)" size="1" pos="55" show="01" value="01">
        <field name="tcp.option_kind" showname="Kind: No-Operation (1)" size="1" pos="55" show="1" value="01"/>
      </field>
      <field name="tcp.options.timestamp" showname="TCP Option - Timestamps: TSval 2956869616, TSecr 2085178805" size="10" pos="56" show="08:0a:b0:3e:3f:f0:7c:49:4d:b5" value="080ab03e3ff07c494db5">
        <field name="tcp.option_kind" showname="Kind: Time Stamp Option (8)" size="1" pos="56" show="8" value="08"/>
        <field name="tcp.option_len" showname="Length: 10" size="1" pos="57" show="10" value="0a"/>
        <field name="tcp.options.timestamp.tsval" showname="Timestamp value: 2956869616" size="4" pos="58" show="2956869616" value="b03e3ff0"/>
        <field name="tcp.options.timestamp.tsecr" showname="Timestamp echo reply: 2085178805" size="4" pos="62" show="2085178805" value="7c494db5"/>
      </field>
    </field>
    <field name="" show="Timestamps" size="0" pos="34">
      <field name="tcp.time_relative" showname="Time since first frame in this TCP stream: 0.000158305 seconds" size="0" pos="34" show="0.000158305"/>
      <field name="tcp.time_delta" showname="Time since previous frame in this TCP stream: 0.000158305 seconds" size="0" pos="34" show="0.000158305"/>
    </field>
    <field name="tcp.payload" showname="TCP payload (218 bytes)" size="218" pos="66" show="00:00:d1:00:01:00:00:00:05:7b:0a:09:22:6e:66:49:6e:73:74:61:6e:63:65:49:64:22:3a:09:22:35:61:32:64:39:65:39:38:2d:66:39:39:65:2d:34:31:65:64:2d:38:62:36:31:2d:32:64:31:64:63:61:31:63:62:32:37:64:22:2c:0a:09:22:73:75:63:63:65:73:73:22:3a:09:74:72:75:65:2c:0a:09:22:74:69:6d:65:53:74:61:6d:70:22:3a:09:22:32:30:32:33:2d:30:35:2d:32:33:54:32:31:3a:32:31:3a:33:36:2e:32:38:32:33:30:37:2b:30:32:3a:30:30:22:2c:0a:09:22:61:75:74:68:54:79:70:65:22:3a:09:22:35:47:5f:41:4b:41:22:2c:0a:09:22:73:65:72:76:69:6e:67:4e:65:74:77:6f:72:6b:4e:61:6d:65:22:3a:09:22:35:47:3a:6d:6e:63:30:37:30:2e:6d:63:63:39:30:31:2e:33:67:70:70:6e:65:74:77:6f:72:6b:2e:6f:72:67:22:0a:7d" value="0000d10001000000057b0a09226e66496e7374616e63654964223a092235613264396539382d663939652d343165642d386236312d326431646361316362323764222c0a092273756363657373223a09747275652c0a092274696d655374616d70223a0922323032332d30352d32335432313a32313a33362e3238323330372b30323a3030222c0a09226175746854797065223a092235475f414b41222c0a092273657276696e674e6574776f726b4e616d65223a092235473a6d6e633037302e6d63633930312e336770706e6574776f726b2e6f7267220a7d"/>
    <field name="tcp.pdu.size" showname="PDU Size: 218" size="218" pos="66" show="218" value="0000d10001000000057b0a09226e66496e7374616e63654964223a092235613264396539382d663939652d343165642d386236312d326431646361316362323764222c0a092273756363657373223a09747275652c0a092274696d655374616d70223a0922323032332d30352d32335432313a32313a33362e3238323330372b30323a3030222c0a09226175746854797065223a092235475f414b41222c0a092273657276696e674e6574776f726b4e616d65223a092235473a6d6e633037302e6d63633930312e336770706e6574776f726b2e6f7267220a7d"/>
  </proto>
  <proto name="http2" showname="HyperText Transfer Protocol 2" size="218" pos="66">
    <field name="http2.stream" showname="Stream: DATA, Stream ID: 5, Length 209" size="218" pos="66" show="" value="">
      <field name="http2.length" showname="Length: 209" size="3" pos="66" show="209" value="0000d1"/>
      <field name="http2.type" showname="Type: DATA (0)" size="1" pos="69" show="0" value="00"/>
      <field name="http2.flags" showname="Flags: 0x01" size="1" pos="70" show="0x00000001" value="01">
        <field name="http2.flags.end_stream" showname=".... ...1 = End Stream: True" size="1" pos="70" show="1" value="1" unmaskedvalue="01"/>
        <field name="http2.flags.padded" showname=".... 0... = Padded: False" size="1" pos="70" show="0" value="0" unmaskedvalue="01"/>
        <field name="http2.flags.unused_data" showname="0000 .00. = Unused: 0x00" size="1" pos="70" show="0x00000000" value="0" unmaskedvalue="01"/>
      </field>
      <field name="http2.r" showname="0... .... .... .... .... .... .... .... = Reserved: 0x0" size="4" pos="71" show="0x00000000" value="0" unmaskedvalue="00000005"/>
      <field name="http2.streamid" showname=".000 0000 0000 0000 0000 0000 0000 0101 = Stream Identifier: 5" size="4" pos="71" show="5" value="5" unmaskedvalue="00000005"/>
      <field name="http2.pad_length" showname="Pad Length: 0" size="0" pos="75" show="0"/>
      <field name="http2.data.data" showname="Data: 7b0a09226e66496e7374616e63654964223a092235613264\xe2\x80\xa6" size="209" pos="75" show="7b:0a:09:22:6e:66:49:6e:73:74:61:6e:63:65:49:64:22:3a:09:22:35:61:32:64:39:65:39:38:2d:66:39:39:65:2d:34:31:65:64:2d:38:62:36:31:2d:32:64:31:64:63:61:31:63:62:32:37:64:22:2c:0a:09:22:73:75:63:63:65:73:73:22:3a:09:74:72:75:65:2c:0a:09:22:74:69:6d:65:53:74:61:6d:70:22:3a:09:22:32:30:32:33:2d:30:35:2d:32:33:54:32:31:3a:32:31:3a:33:36:2e:32:38:32:33:30:37:2b:30:32:3a:30:30:22:2c:0a:09:22:61:75:74:68:54:79:70:65:22:3a:09:22:35:47:5f:41:4b:41:22:2c:0a:09:22:73:65:72:76:69:6e:67:4e:65:74:77:6f:72:6b:4e:61:6d:65:22:3a:09:22:35:47:3a:6d:6e:63:30:37:30:2e:6d:63:63:39:30:31:2e:33:67:70:70:6e:65:74:77:6f:72:6b:2e:6f:72:67:22:0a:7d" value="7b0a09226e66496e7374616e63654964223a092235613264396539382d663939652d343165642d386236312d326431646361316362323764222c0a092273756363657373223a09747275652c0a092274696d655374616d70223a0922323032332d30352d32335432313a32313a33362e3238323330372b30323a3030222c0a09226175746854797065223a092235475f414b41222c0a092273657276696e674e6574776f726b4e616d65223a092235473a6d6e633037302e6d63633930312e336770706e6574776f726b2e6f7267220a7d"/>
    </field>
  </proto>
</packet>


<packet>
  <proto name="geninfo" pos="0" showname="General information" size="108">
    <field name="num" pos="0" show="16" showname="Number" value="10" size="108"/>
    <field name="len" pos="0" show="108" showname="Frame Length" value="6c" size="108"/>
    <field name="caplen" pos="0" show="108" showname="Captured Length" value="6c" size="108"/>
    <field name="timestamp" pos="0" show="May 23, 2023 23:59:52.985083277 CEST" showname="Captured Time" value="1684879192.985083277" size="108"/>
  </proto>
  <proto name="frame" showname="Frame 16: 108 bytes on wire (864 bits), 108 bytes captured (864 bits) on interface veth_udm, id 0" size="108" pos="0">
    <field name="filtered" value="frame" />
  </proto>
  <proto name="eth" showname="Ethernet II, Src: 5a:03:5f:62:d5:6d, Dst: 4e:bc:00:dd:9a:f0" size="14" pos="0">
    <field name="filtered" value="eth" />
  </proto>
  <proto name="ip" showname="Internet Protocol Version 4, Src: 10.0.16.1, Dst: 10.0.15.1" size="20" pos="14">
    <field name="filtered" value="ip" />
  </proto>
  <proto name="tcp" showname="Transmission Control Protocol, Src Port: 7777, Dst Port: 36474, Seq: 3615167329, Ack: 3022824810, Len: 42" size="32" pos="34">
    <field name="tcp.srcport" showname="Source Port: 7777" size="2" pos="34" show="7777" value="1e61"/>
    <field name="tcp.dstport" showname="Destination Port: 36474" size="2" pos="36" show="36474" value="8e7a"/>
    <field name="tcp.port" showname="Source or Destination Port: 7777" hide="yes" size="2" pos="34" show="7777" value="1e61"/>
    <field name="tcp.port" showname="Source or Destination Port: 36474" hide="yes" size="2" pos="36" show="36474" value="8e7a"/>
    <field name="tcp.stream" showname="Stream index: 2" size="0" pos="34" show="2"/>
    <field name="tcp.len" showname="TCP Segment Len: 42" size="1" pos="46" show="42" value="80"/>
    <field name="tcp.seq" showname="Sequence number: 3615167329" size="4" pos="38" show="3615167329" value="d77b1361"/>
    <field name="tcp.seq_raw" showname="Sequence number (raw): 3615167329" hide="yes" size="4" pos="38" show="3615167329" value="d77b1361"/>
    <field name="tcp.nxtseq" showname="Next sequence number: 3615167371" size="0" pos="34" show="3615167371"/>
    <field name="tcp.ack" showname="Acknowledgment number: 3022824810" size="4" pos="42" show="3022824810" value="b42ca56a"/>
    <field name="tcp.ack_raw" showname="Acknowledgment number (raw): 3022824810" hide="yes" size="4" pos="42" show="3022824810" value="b42ca56a"/>
    <field name="tcp.hdr_len" showname="1000 .... = Header Length: 32 bytes (8)" size="1" pos="46" show="32" value="80"/>
    <field name="tcp.flags" showname="Flags: 0x018 (PSH, ACK)" size="2" pos="46" show="0x00000018" value="18" unmaskedvalue="8018">
      <field name="tcp.flags.res" showname="000. .... .... = Reserved: Not set" size="1" pos="46" show="0" value="0" unmaskedvalue="80"/>
      <field name="tcp.flags.ns" showname="...0 .... .... = Nonce: Not set" size="1" pos="46" show="0" value="0" unmaskedvalue="80"/>
      <field name="tcp.flags.cwr" showname=".... 0... .... = Congestion Window Reduced (CWR): Not set" size="1" pos="47" show="0" value="0" unmaskedvalue="18"/>
      <field name="tcp.flags.ecn" showname=".... .0.. .... = ECN-Echo: Not set" size="1" pos="47" show="0" value="0" unmaskedvalue="18"/>
      <field name="tcp.flags.urg" showname=".... ..0. .... = Urgent: Not set" size="1" pos="47" show="0" value="0" unmaskedvalue="18"/>
      <field name="tcp.flags.ack" showname=".... ...1 .... = Acknowledgment: Set" size="1" pos="47" show="1" value="1" unmaskedvalue="18"/>
      <field name="tcp.flags.push" showname=".... .... 1... = Push: Set" size="1" pos="47" show="1" value="1" unmaskedvalue="18"/>
      <field name="tcp.flags.reset" showname=".... .... .0.. = Reset: Not set" size="1" pos="47" show="0" value="0" unmaskedvalue="18"/>
      <field name="tcp.flags.syn" showname=".... .... ..0. = Syn: Not set" size="1" pos="47" show="0" value="0" unmaskedvalue="18"/>
      <field name="tcp.flags.fin" showname=".... .... ...0 = Fin: Not set" size="1" pos="47" show="0" value="0" unmaskedvalue="18"/>
      <field name="tcp.flags.str" showname="TCP Flags: \xc2\xb7\xc2\xb7\xc2\xb7\xc2\xb7\xc2\xb7\xc2\xb7\xc2\xb7AP\xc2\xb7\xc2\xb7\xc2\xb7" size="2" pos="46" show="\xc2\xb7\xc2\xb7\xc2\xb7\xc2\xb7\xc2\xb7\xc2\xb7\xc2\xb7AP\xc2\xb7\xc2\xb7\xc2\xb7" value="8018"/>
    </field>
    <field name="tcp.window_size_value" showname="Window size value: 507" size="2" pos="48" show="507" value="01fb"/>
    <field name="tcp.window_size" showname="Calculated window size: 507" size="2" pos="48" show="507" value="01fb"/>
    <field name="tcp.window_size_scalefactor" showname="Window size scaling factor: -1 (unknown)" size="2" pos="48" show="-1" value="01fb"/>
    <field name="tcp.checksum" showname="Checksum: 0x3352 [unverified]" size="2" pos="50" show="0x00003352" value="3352"/>
    <field name="tcp.checksum.status" showname="Checksum Status: Unverified" size="0" pos="50" show="2"/>
    <field name="tcp.urgent_pointer" showname="Urgent pointer: 0" size="2" pos="52" show="0" value="0000"/>
    <field name="tcp.options" showname="Options: (12 bytes), No-Operation (NOP), No-Operation (NOP), Timestamps" size="12" pos="54" show="01:01:08:0a:7c:4a:5b:bd:b0:3e:3f:f0" value="0101080a7c4a5bbdb03e3ff0">
      <field name="tcp.options.nop" showname="TCP Option - No-Operation (NOP)" size="1" pos="54" show="01" value="01">
        <field name="tcp.option_kind" showname="Kind: No-Operation (1)" size="1" pos="54" show="1" value="01"/>
      </field>
      <field name="tcp.options.nop" showname="TCP Option - No-Operation (NOP)" size="1" pos="55" show="01" value="01">
        <field name="tcp.option_kind" showname="Kind: No-Operation (1)" size="1" pos="55" show="1" value="01"/>
      </field>
      <field name="tcp.options.timestamp" showname="TCP Option - Timestamps: TSval 2085247933, TSecr 2956869616" size="10" pos="56" show="08:0a:7c:4a:5b:bd:b0:3e:3f:f0" value="080a7c4a5bbdb03e3ff0">
        <field name="tcp.option_kind" showname="Kind: Time Stamp Option (8)" size="1" pos="56" show="8" value="08"/>
        <field name="tcp.option_len" showname="Length: 10" size="1" pos="57" show="10" value="0a"/>
        <field name="tcp.options.timestamp.tsval" showname="Timestamp value: 2085247933" size="4" pos="58" show="2085247933" value="7c4a5bbd"/>
        <field name="tcp.options.timestamp.tsecr" showname="Timestamp echo reply: 2956869616" size="4" pos="62" show="2956869616" value="b03e3ff0"/>
      </field>
    </field>
    <field name="" show="Timestamps" size="0" pos="34">
      <field name="tcp.time_relative" showname="Time since first frame in this TCP stream: 0.000971786 seconds" size="0" pos="34" show="0.000971786"/>
      <field name="tcp.time_delta" showname="Time since previous frame in this TCP stream: 0.000781369 seconds" size="0" pos="34" show="0.000781369"/>
    </field>
    <field name="tcp.payload" showname="TCP payload (42 bytes)" size="42" pos="66" show="00:00:21:01:04:00:00:00:05:8d:c1:61:96:df:69:7e:94:13:2a:68:1f:a5:04:01:32:a0:83:71:b7:ee:36:25:31:68:df:0f:0d:03:31:36:38:c0" value="0000210104000000058dc16196df697e94132a681fa5040132a08371b7ee36253168df0f0d03313638c0"/>
    <field name="tcp.pdu.size" showname="PDU Size: 42" size="42" pos="66" show="42" value="0000210104000000058dc16196df697e94132a681fa5040132a08371b7ee36253168df0f0d03313638c0"/>
  </proto>
  <proto name="http2" showname="HyperText Transfer Protocol 2" size="42" pos="66">
    <field name="http2.stream" showname="Stream: HEADERS, Stream ID: 5, Length 33, 404 Not Found" size="42" pos="66" show="" value="">
      <field name="http2.length" showname="Length: 33" size="3" pos="66" show="33" value="000021"/>
      <field name="http2.type" showname="Type: HEADERS (1)" size="1" pos="69" show="1" value="01"/>
      <field name="http2.flags" showname="Flags: 0x04" size="1" pos="70" show="0x00000004" value="04">
        <field name="http2.flags.end_stream" showname=".... ...0 = End Stream: False" size="1" pos="70" show="0" value="0" unmaskedvalue="04"/>
        <field name="http2.flags.eh" showname=".... .1.. = End Headers: True" size="1" pos="70" show="1" value="1" unmaskedvalue="04"/>
        <field name="http2.flags.padded" showname=".... 0... = Padded: False" size="1" pos="70" show="0" value="0" unmaskedvalue="04"/>
        <field name="http2.flags.priority" showname="..0. .... = Priority: False" size="1" pos="70" show="0" value="0" unmaskedvalue="04"/>
        <field name="http2.flags.unused_headers" showname="00.0 ..0. = Unused: 0x00" size="1" pos="70" show="0x00000000" value="0" unmaskedvalue="04"/>
      </field>
      <field name="http2.r" showname="0... .... .... .... .... .... .... .... = Reserved: 0x0" size="4" pos="71" show="0x00000000" value="0" unmaskedvalue="00000005"/>
      <field name="http2.streamid" showname=".000 0000 0000 0000 0000 0000 0000 0101 = Stream Identifier: 5" size="4" pos="71" show="5" value="5" unmaskedvalue="00000005"/>
      <field name="http2.pad_length" showname="Pad Length: 0" size="0" pos="75" show="0"/>
      <field name="http2.headers" showname="Header Block Fragment: 8dc16196df697e94132a681fa5040132a08371b7ee362531\xe2\x80\xa6" size="33" pos="75" show="8d:c1:61:96:df:69:7e:94:13:2a:68:1f:a5:04:01:32:a0:83:71:b7:ee:36:25:31:68:df:0f:0d:03:31:36:38:c0" value="8dc16196df697e94132a681fa5040132a08371b7ee36253168df0f0d03313638c0"/>
      <field name="http2.header.length" showname="Header Length: 18" size="1" pos="66" show="18" value="00"/>
      <field name="http2.header.count" showname="Header Count: 1" size="1" pos="66" show="1" value="00"/>
      <field name="http2.header" showname="Header: :status: 404 Not Found" size="1" pos="75" show="" value="">
        <field name="http2.header.name.length" showname="Name Length: 7" size="4" pos="75" show="7" value="00000007"/>
        <field name="http2.header.name" showname="Name: :status" size="7" pos="79" show=":status" value="3a737461747573"/>
        <field name="http2.header.value.length" showname="Value Length: 3" size="4" pos="86" show="3" value="00000003"/>
        <field name="http2.header.value" showname="Value: 404" size="3" pos="90" show="404" value="343034"/>
        <field name="http2.headers.status" showname=":status: 404" size="3" pos="90" show="404" value="343034"/>
        <field name="http2.header.unescaped" showname="Unescaped: 404" size="3" pos="90" show="404" value="343034"/>
        <field name="http2.header.repr" showname="Representation: Indexed Header Field" size="1" pos="75" show="Indexed Header Field" value="8d"/>
        <field name="http2.header.index" showname="Index: 13" size="1" pos="75" show="13" value="8d"/>
      </field>
    </field>
  </proto>
</packet>


<packet>
  <proto name="geninfo" pos="0" showname="General information" size="243">
    <field name="num" pos="0" show="17" showname="Number" value="11" size="243"/>
    <field name="len" pos="0" show="243" showname="Frame Length" value="f3" size="243"/>
    <field name="caplen" pos="0" show="243" showname="Captured Length" value="f3" size="243"/>
    <field name="timestamp" pos="0" show="May 23, 2023 23:59:52.985110430 CEST" showname="Captured Time" value="1684879192.985110430" size="243"/>
  </proto>
  <proto name="frame" showname="Frame 17: 243 bytes on wire (1944 bits), 243 bytes captured (1944 bits) on interface veth_udm, id 0" size="243" pos="0">
    <field name="filtered" value="frame" />
  </proto>
  <proto name="eth" showname="Ethernet II, Src: 5a:03:5f:62:d5:6d, Dst: 4e:bc:00:dd:9a:f0" size="14" pos="0">
    <field name="filtered" value="eth" />
  </proto>
  <proto name="ip" showname="Internet Protocol Version 4, Src: 10.0.16.1, Dst: 10.0.15.1" size="20" pos="14">
    <field name="filtered" value="ip" />
  </proto>
  <proto name="tcp" showname="Transmission Control Protocol, Src Port: 7777, Dst Port: 36474, Seq: 3615167371, Ack: 3022824810, Len: 177" size="32" pos="34">
    <field name="tcp.srcport" showname="Source Port: 7777" size="2" pos="34" show="7777" value="1e61"/>
    <field name="tcp.dstport" showname="Destination Port: 36474" size="2" pos="36" show="36474" value="8e7a"/>
    <field name="tcp.port" showname="Source or Destination Port: 7777" hide="yes" size="2" pos="34" show="7777" value="1e61"/>
    <field name="tcp.port" showname="Source or Destination Port: 36474" hide="yes" size="2" pos="36" show="36474" value="8e7a"/>
    <field name="tcp.stream" showname="Stream index: 2" size="0" pos="34" show="2"/>
    <field name="tcp.len" showname="TCP Segment Len: 177" size="1" pos="46" show="177" value="80"/>
    <field name="tcp.seq" showname="Sequence number: 3615167371" size="4" pos="38" show="3615167371" value="d77b138b"/>
    <field name="tcp.seq_raw" showname="Sequence number (raw): 3615167371" hide="yes" size="4" pos="38" show="3615167371" value="d77b138b"/>
    <field name="tcp.nxtseq" showname="Next sequence number: 3615167548" size="0" pos="34" show="3615167548"/>
    <field name="tcp.ack" showname="Acknowledgment number: 3022824810" size="4" pos="42" show="3022824810" value="b42ca56a"/>
    <field name="tcp.ack_raw" showname="Acknowledgment number (raw): 3022824810" hide="yes" size="4" pos="42" show="3022824810" value="b42ca56a"/>
    <field name="tcp.hdr_len" showname="1000 .... = Header Length: 32 bytes (8)" size="1" pos="46" show="32" value="80"/>
    <field name="tcp.flags" showname="Flags: 0x018 (PSH, ACK)" size="2" pos="46" show="0x00000018" value="18" unmaskedvalue="8018">
      <field name="tcp.flags.res" showname="000. .... .... = Reserved: Not set" size="1" pos="46" show="0" value="0" unmaskedvalue="80"/>
      <field name="tcp.flags.ns" showname="...0 .... .... = Nonce: Not set" size="1" pos="46" show="0" value="0" unmaskedvalue="80"/>
      <field name="tcp.flags.cwr" showname=".... 0... .... = Congestion Window Reduced (CWR): Not set" size="1" pos="47" show="0" value="0" unmaskedvalue="18"/>
      <field name="tcp.flags.ecn" showname=".... .0.. .... = ECN-Echo: Not set" size="1" pos="47" show="0" value="0" unmaskedvalue="18"/>
      <field name="tcp.flags.urg" showname=".... ..0. .... = Urgent: Not set" size="1" pos="47" show="0" value="0" unmaskedvalue="18"/>
      <field name="tcp.flags.ack" showname=".... ...1 .... = Acknowledgment: Set" size="1" pos="47" show="1" value="1" unmaskedvalue="18"/>
      <field name="tcp.flags.push" showname=".... .... 1... = Push: Set" size="1" pos="47" show="1" value="1" unmaskedvalue="18"/>
      <field name="tcp.flags.reset" showname=".... .... .0.. = Reset: Not set" size="1" pos="47" show="0" value="0" unmaskedvalue="18"/>
      <field name="tcp.flags.syn" showname=".... .... ..0. = Syn: Not set" size="1" pos="47" show="0" value="0" unmaskedvalue="18"/>
      <field name="tcp.flags.fin" showname=".... .... ...0 = Fin: Not set" size="1" pos="47" show="0" value="0" unmaskedvalue="18"/>
      <field name="tcp.flags.str" showname="TCP Flags: \xc2\xb7\xc2\xb7\xc2\xb7\xc2\xb7\xc2\xb7\xc2\xb7\xc2\xb7AP\xc2\xb7\xc2\xb7\xc2\xb7" size="2" pos="46" show="\xc2\xb7\xc2\xb7\xc2\xb7\xc2\xb7\xc2\xb7\xc2\xb7\xc2\xb7AP\xc2\xb7\xc2\xb7\xc2\xb7" value="8018"/>
    </field>
    <field name="tcp.window_size_value" showname="Window size value: 507" size="2" pos="48" show="507" value="01fb"/>
    <field name="tcp.window_size" showname="Calculated window size: 507" size="2" pos="48" show="507" value="01fb"/>
    <field name="tcp.window_size_scalefactor" showname="Window size scaling factor: -1 (unknown)" size="2" pos="48" show="-1" value="01fb"/>
    <field name="tcp.checksum" showname="Checksum: 0x33d9 [unverified]" size="2" pos="50" show="0x000033d9" value="33d9"/>
    <field name="tcp.checksum.status" showname="Checksum Status: Unverified" size="0" pos="50" show="2"/>
    <field name="tcp.urgent_pointer" showname="Urgent pointer: 0" size="2" pos="52" show="0" value="0000"/>
    <field name="tcp.options" showname="Options: (12 bytes), No-Operation (NOP), No-Operation (NOP), Timestamps" size="12" pos="54" show="01:01:08:0a:7c:4a:5b:bd:b0:3e:3f:f0" value="0101080a7c4a5bbdb03e3ff0">
      <field name="tcp.options.nop" showname="TCP Option - No-Operation (NOP)" size="1" pos="54" show="01" value="01">
        <field name="tcp.option_kind" showname="Kind: No-Operation (1)" size="1" pos="54" show="1" value="01"/>
      </field>
      <field name="tcp.options.nop" showname="TCP Option - No-Operation (NOP)" size="1" pos="55" show="01" value="01">
        <field name="tcp.option_kind" showname="Kind: No-Operation (1)" size="1" pos="55" show="1" value="01"/>
      </field>
      <field name="tcp.options.timestamp" showname="TCP Option - Timestamps: TSval 2085247933, TSecr 2956869616" size="10" pos="56" show="08:0a:7c:4a:5b:bd:b0:3e:3f:f0" value="080a7c4a5bbdb03e3ff0">
        <field name="tcp.option_kind" showname="Kind: Time Stamp Option (8)" size="1" pos="56" show="8" value="08"/>
        <field name="tcp.option_len" showname="Length: 10" size="1" pos="57" show="10" value="0a"/>
        <field name="tcp.options.timestamp.tsval" showname="Timestamp value: 2085247933" size="4" pos="58" show="2085247933" value="7c4a5bbd"/>
        <field name="tcp.options.timestamp.tsecr" showname="Timestamp echo reply: 2956869616" size="4" pos="62" show="2956869616" value="b03e3ff0"/>
      </field>
    </field>
    <field name="" show="Timestamps" size="0" pos="34">
      <field name="tcp.time_relative" showname="Time since first frame in this TCP stream: 0.000998939 seconds" size="0" pos="34" show="0.000998939"/>
      <field name="tcp.time_delta" showname="Time since previous frame in this TCP stream: 0.000027153 seconds" size="0" pos="34" show="0.000027153"/>
    </field>
    <field name="tcp.payload" showname="TCP payload (177 bytes)" size="177" pos="66" show="00:00:a8:00:01:00:00:00:05:7b:0a:09:22:74:79:70:65:22:3a:09:22:2f:6e:75:64:72:2d:64:72:2f:76:31:22:2c:0a:09:22:74:69:74:6c:65:22:3a:09:22:43:61:6e:6e:6f:74:20:66:69:6e:64:20:53:55:50:49:20:54:79:70:65:22:2c:0a:09:22:73:74:61:74:75:73:22:3a:09:34:30:34:2c:0a:09:22:64:65:74:61:69:6c:22:3a:09:22:69:6d:73:69:2d:39:30:31:37:30:30:30:30:30:30:30:31:32:33:34:22:2c:0a:09:22:69:6e:73:74:61:6e:63:65:22:3a:09:22:2f:73:75:62:73:63:72:69:70:74:69:6f:6e:2d:64:61:74:61:2f:69:6d:73:69:2d:39:30:31:37:30:30:30:30:30:30:30:31:32:33:34:22:0a:7d" value="0000a80001000000057b0a092274797065223a09222f6e7564722d64722f7631222c0a09227469746c65223a092243616e6e6f742066696e6420535550492054797065222c0a0922737461747573223a093430342c0a092264657461696c223a0922696d73692d393031373030303030303031323334222c0a0922696e7374616e6365223a09222f737562736372697074696f6e2d646174612f696d73692d393031373030303030303031323334220a7d"/>
    <field name="tcp.pdu.size" showname="PDU Size: 177" size="177" pos="66" show="177" value="0000a80001000000057b0a092274797065223a09222f6e7564722d64722f7631222c0a09227469746c65223a092243616e6e6f742066696e6420535550492054797065222c0a0922737461747573223a093430342c0a092264657461696c223a0922696d73692d393031373030303030303031323334222c0a0922696e7374616e6365223a09222f737562736372697074696f6e2d646174612f696d73692d393031373030303030303031323334220a7d"/>
  </proto>
  <proto name="http2" showname="HyperText Transfer Protocol 2" size="177" pos="66">
    <field name="http2.stream" showname="Stream: DATA, Stream ID: 5, Length 168" size="177" pos="66" show="" value="">
      <field name="http2.length" showname="Length: 168" size="3" pos="66" show="168" value="0000a8"/>
      <field name="http2.type" showname="Type: DATA (0)" size="1" pos="69" show="0" value="00"/>
      <field name="http2.flags" showname="Flags: 0x01" size="1" pos="70" show="0x00000001" value="01">
        <field name="http2.flags.end_stream" showname=".... ...1 = End Stream: True" size="1" pos="70" show="1" value="1" unmaskedvalue="01"/>
        <field name="http2.flags.padded" showname=".... 0... = Padded: False" size="1" pos="70" show="0" value="0" unmaskedvalue="01"/>
        <field name="http2.flags.unused_data" showname="0000 .00. = Unused: 0x00" size="1" pos="70" show="0x00000000" value="0" unmaskedvalue="01"/>
      </field>
      <field name="http2.r" showname="0... .... .... .... .... .... .... .... = Reserved: 0x0" size="4" pos="71" show="0x00000000" value="0" unmaskedvalue="00000005"/>
      <field name="http2.streamid" showname=".000 0000 0000 0000 0000 0000 0000 0101 = Stream Identifier: 5" size="4" pos="71" show="5" value="5" unmaskedvalue="00000005"/>
      <field name="http2.pad_length" showname="Pad Length: 0" size="0" pos="75" show="0"/>
      <field name="http2.data.data" showname="Data: 7b0a092274797065223a09222f6e7564722d64722f763122\xe2\x80\xa6" size="168" pos="75" show="7b:0a:09:22:74:79:70:65:22:3a:09:22:2f:6e:75:64:72:2d:64:72:2f:76:31:22:2c:0a:09:22:74:69:74:6c:65:22:3a:09:22:43:61:6e:6e:6f:74:20:66:69:6e:64:20:53:55:50:49:20:54:79:70:65:22:2c:0a:09:22:73:74:61:74:75:73:22:3a:09:34:30:34:2c:0a:09:22:64:65:74:61:69:6c:22:3a:09:22:69:6d:73:69:2d:39:30:31:37:30:30:30:30:30:30:30:31:32:33:34:22:2c:0a:09:22:69:6e:73:74:61:6e:63:65:22:3a:09:22:2f:73:75:62:73:63:72:69:70:74:69:6f:6e:2d:64:61:74:61:2f:69:6d:73:69:2d:39:30:31:37:30:30:30:30:30:30:30:31:32:33:34:22:0a:7d" value="7b0a092274797065223a09222f6e7564722d64722f7631222c0a09227469746c65223a092243616e6e6f742066696e6420535550492054797065222c0a0922737461747573223a093430342c0a092264657461696c223a0922696d73692d393031373030303030303031323334222c0a0922696e7374616e6365223a09222f737562736372697074696f6e2d646174612f696d73692d393031373030303030303031323334220a7d"/>
    </field>
  </proto>
</packet>


<packet>
  <proto name="geninfo" pos="0" showname="General information" size="139">
    <field name="num" pos="0" show="20" showname="Number" value="14" size="139"/>
    <field name="len" pos="0" show="139" showname="Frame Length" value="8b" size="139"/>
    <field name="caplen" pos="0" show="139" showname="Captured Length" value="8b" size="139"/>
    <field name="timestamp" pos="0" show="May 23, 2023 23:59:52.986786535 CEST" showname="Captured Time" value="1684879192.986786535" size="139"/>
  </proto>
  <proto name="frame" showname="Frame 20: 139 bytes on wire (1112 bits), 139 bytes captured (1112 bits) on interface veth_udm, id 0" size="139" pos="0">
    <field name="filtered" value="frame" />
  </proto>
  <proto name="eth" showname="Ethernet II, Src: 4e:bc:00:dd:9a:f0, Dst: 5a:03:5f:62:d5:6d" size="14" pos="0">
    <field name="filtered" value="eth" />
  </proto>
  <proto name="ip" showname="Internet Protocol Version 4, Src: 10.0.15.1, Dst: 10.0.15.2" size="20" pos="14">
    <field name="filtered" value="ip" />
  </proto>
  <proto name="tcp" showname="Transmission Control Protocol, Src Port: 7777, Dst Port: 57704, Seq: 2082833159, Ack: 2939533758, Len: 73" size="32" pos="34">
    <field name="tcp.srcport" showname="Source Port: 7777" size="2" pos="34" show="7777" value="1e61"/>
    <field name="tcp.dstport" showname="Destination Port: 57704" size="2" pos="36" show="57704" value="e168"/>
    <field name="tcp.port" showname="Source or Destination Port: 7777" hide="yes" size="2" pos="34" show="7777" value="1e61"/>
    <field name="tcp.port" showname="Source or Destination Port: 57704" hide="yes" size="2" pos="36" show="57704" value="e168"/>
    <field name="tcp.stream" showname="Stream index: 1" size="0" pos="34" show="1"/>
    <field name="tcp.len" showname="TCP Segment Len: 73" size="1" pos="46" show="73" value="80"/>
    <field name="tcp.seq" showname="Sequence number: 2082833159" size="4" pos="38" show="2082833159" value="7c258307"/>
    <field name="tcp.seq_raw" showname="Sequence number (raw): 2082833159" hide="yes" size="4" pos="38" show="2082833159" value="7c258307"/>
    <field name="tcp.nxtseq" showname="Next sequence number: 2082833232" size="0" pos="34" show="2082833232"/>
    <field name="tcp.ack" showname="Acknowledgment number: 2939533758" size="4" pos="42" show="2939533758" value="af35b9be"/>
    <field name="tcp.ack_raw" showname="Acknowledgment number (raw): 2939533758" hide="yes" size="4" pos="42" show="2939533758" value="af35b9be"/>
    <field name="tcp.hdr_len" showname="1000 .... = Header Length: 32 bytes (8)" size="1" pos="46" show="32" value="80"/>
    <field name="tcp.flags" showname="Flags: 0x018 (PSH, ACK)" size="2" pos="46" show="0x00000018" value="18" unmaskedvalue="8018">
      <field name="tcp.flags.res" showname="000. .... .... = Reserved: Not set" size="1" pos="46" show="0" value="0" unmaskedvalue="80"/>
      <field name="tcp.flags.ns" showname="...0 .... .... = Nonce: Not set" size="1" pos="46" show="0" value="0" unmaskedvalue="80"/>
      <field name="tcp.flags.cwr" showname=".... 0... .... = Congestion Window Reduced (CWR): Not set" size="1" pos="47" show="0" value="0" unmaskedvalue="18"/>
      <field name="tcp.flags.ecn" showname=".... .0.. .... = ECN-Echo: Not set" size="1" pos="47" show="0" value="0" unmaskedvalue="18"/>
      <field name="tcp.flags.urg" showname=".... ..0. .... = Urgent: Not set" size="1" pos="47" show="0" value="0" unmaskedvalue="18"/>
      <field name="tcp.flags.ack" showname=".... ...1 .... = Acknowledgment: Set" size="1" pos="47" show="1" value="1" unmaskedvalue="18"/>
      <field name="tcp.flags.push" showname=".... .... 1... = Push: Set" size="1" pos="47" show="1" value="1" unmaskedvalue="18"/>
      <field name="tcp.flags.reset" showname=".... .... .0.. = Reset: Not set" size="1" pos="47" show="0" value="0" unmaskedvalue="18"/>
      <field name="tcp.flags.syn" showname=".... .... ..0. = Syn: Not set" size="1" pos="47" show="0" value="0" unmaskedvalue="18"/>
      <field name="tcp.flags.fin" showname=".... .... ...0 = Fin: Not set" size="1" pos="47" show="0" value="0" unmaskedvalue="18"/>
      <field name="tcp.flags.str" showname="TCP Flags: \xc2\xb7\xc2\xb7\xc2\xb7\xc2\xb7\xc2\xb7\xc2\xb7\xc2\xb7AP\xc2\xb7\xc2\xb7\xc2\xb7" size="2" pos="46" show="\xc2\xb7\xc2\xb7\xc2\xb7\xc2\xb7\xc2\xb7\xc2\xb7\xc2\xb7AP\xc2\xb7\xc2\xb7\xc2\xb7" value="8018"/>
    </field>
    <field name="tcp.window_size_value" showname="Window size value: 507" size="2" pos="48" show="507" value="01fb"/>
    <field name="tcp.window_size" showname="Calculated window size: 64896" size="2" pos="48" show="64896" value="01fb"/>
    <field name="tcp.window_size_scalefactor" showname="Window size scaling factor: 128" size="2" pos="48" show="128" value="01fb"/>
    <field name="tcp.checksum" showname="Checksum: 0x3272 [unverified]" size="2" pos="50" show="0x00003272" value="3272"/>
    <field name="tcp.checksum.status" showname="Checksum Status: Unverified" size="0" pos="50" show="2"/>
    <field name="tcp.urgent_pointer" showname="Urgent pointer: 0" size="2" pos="52" show="0" value="0000"/>
    <field name="tcp.options" showname="Options: (12 bytes), No-Operation (NOP), No-Operation (NOP), Timestamps" size="12" pos="54" show="01:01:08:0a:20:82:d3:57:86:1e:51:20" value="0101080a2082d357861e5120">
      <field name="tcp.options.nop" showname="TCP Option - No-Operation (NOP)" size="1" pos="54" show="01" value="01">
        <field name="tcp.option_kind" showname="Kind: No-Operation (1)" size="1" pos="54" show="1" value="01"/>
      </field>
      <field name="tcp.options.nop" showname="TCP Option - No-Operation (NOP)" size="1" pos="55" show="01" value="01">
        <field name="tcp.option_kind" showname="Kind: No-Operation (1)" size="1" pos="55" show="1" value="01"/>
      </field>
      <field name="tcp.options.timestamp" showname="TCP Option - Timestamps: TSval 545444695, TSecr 2250133792" size="10" pos="56" show="08:0a:20:82:d3:57:86:1e:51:20" value="080a2082d357861e5120">
        <field name="tcp.option_kind" showname="Kind: Time Stamp Option (8)" size="1" pos="56" show="8" value="08"/>
        <field name="tcp.option_len" showname="Length: 10" size="1" pos="57" show="10" value="0a"/>
        <field name="tcp.options.timestamp.tsval" showname="Timestamp value: 545444695" size="4" pos="58" show="545444695" value="2082d357"/>
        <field name="tcp.options.timestamp.tsecr" showname="Timestamp echo reply: 2250133792" size="4" pos="62" show="2250133792" value="861e5120"/>
      </field>
    </field>
    <field name="" show="Timestamps" size="0" pos="34">
      <field name="tcp.time_relative" showname="Time since first frame in this TCP stream: 0.033935614 seconds" size="0" pos="34" show="0.033935614"/>
      <field name="tcp.time_delta" showname="Time since previous frame in this TCP stream: 0.000039775 seconds" size="0" pos="34" show="0.000039775"/>
    </field>
    <field name="tcp.payload" showname="TCP payload (73 bytes)" size="73" pos="66" show="00:00:40:01:04:00:00:00:0d:8d:76:8c:d5:59:6a:6f:16:e5:3b:89:76:97:08:3f:61:96:df:69:7e:94:13:2a:68:1f:a5:04:01:32:a0:83:71:b7:ee:36:25:31:68:df:0f:0d:82:0b:80:5f:92:1d:75:d0:62:0d:26:3d:4c:57:61:e3:a0:b4:ff:be:88:3d:5f" value="00004001040000000d8d768cd5596a6f16e53b897697083f6196df697e94132a681fa5040132a08371b7ee36253168df0f0d820b805f921d75d0620d263d4c5761e3a0b4ffbe883d5f"/>
    <field name="tcp.pdu.size" showname="PDU Size: 73" size="73" pos="66" show="73" value="00004001040000000d8d768cd5596a6f16e53b897697083f6196df697e94132a681fa5040132a08371b7ee36253168df0f0d820b805f921d75d0620d263d4c5761e3a0b4ffbe883d5f"/>
  </proto>
  <proto name="http2" showname="HyperText Transfer Protocol 2" size="73" pos="66">
    <field name="http2.stream" showname="Stream: HEADERS, Stream ID: 13, Length 64, 404 Not Found" size="73" pos="66" show="" value="">
      <field name="http2.length" showname="Length: 64" size="3" pos="66" show="64" value="000040"/>
      <field name="http2.type" showname="Type: HEADERS (1)" size="1" pos="69" show="1" value="01"/>
      <field name="http2.flags" showname="Flags: 0x04" size="1" pos="70" show="0x00000004" value="04">
        <field name="http2.flags.end_stream" showname=".... ...0 = End Stream: False" size="1" pos="70" show="0" value="0" unmaskedvalue="04"/>
        <field name="http2.flags.eh" showname=".... .1.. = End Headers: True" size="1" pos="70" show="1" value="1" unmaskedvalue="04"/>
        <field name="http2.flags.padded" showname=".... 0... = Padded: False" size="1" pos="70" show="0" value="0" unmaskedvalue="04"/>
        <field name="http2.flags.priority" showname="..0. .... = Priority: False" size="1" pos="70" show="0" value="0" unmaskedvalue="04"/>
        <field name="http2.flags.unused_headers" showname="00.0 ..0. = Unused: 0x00" size="1" pos="70" show="0x00000000" value="0" unmaskedvalue="04"/>
      </field>
      <field name="http2.r" showname="0... .... .... .... .... .... .... .... = Reserved: 0x0" size="4" pos="71" show="0x00000000" value="0" unmaskedvalue="0000000d"/>
      <field name="http2.streamid" showname=".000 0000 0000 0000 0000 0000 0000 1101 = Stream Identifier: 13" size="4" pos="71" show="13" value="D" unmaskedvalue="0000000d"/>
      <field name="http2.pad_length" showname="Pad Length: 0" size="0" pos="75" show="0"/>
      <field name="http2.headers" showname="Header Block Fragment: 8d768cd5596a6f16e53b897697083f6196df697e94132a68\xe2\x80\xa6" size="64" pos="75" show="8d:76:8c:d5:59:6a:6f:16:e5:3b:89:76:97:08:3f:61:96:df:69:7e:94:13:2a:68:1f:a5:04:01:32:a0:83:71:b7:ee:36:25:31:68:df:0f:0d:82:0b:80:5f:92:1d:75:d0:62:0d:26:3d:4c:57:61:e3:a0:b4:ff:be:88:3d:5f" value="8d768cd5596a6f16e53b897697083f6196df697e94132a681fa5040132a08371b7ee36253168df0f0d820b805f921d75d0620d263d4c5761e3a0b4ffbe883d5f"/>
      <field name="http2.header.length" showname="Header Length: 157" size="1" pos="66" show="157" value="00"/>
      <field name="http2.header.count" showname="Header Count: 5" size="1" pos="66" show="5" value="00"/>
      <field name="http2.header" showname="Header: :status: 404 Not Found" size="1" pos="75" show="" value="">
        <field name="http2.header.name.length" showname="Name Length: 7" size="4" pos="75" show="7" value="00000007"/>
        <field name="http2.header.name" showname="Name: :status" size="7" pos="79" show=":status" value="3a737461747573"/>
        <field name="http2.header.value.length" showname="Value Length: 3" size="4" pos="86" show="3" value="00000003"/>
        <field name="http2.header.value" showname="Value: 404" size="3" pos="90" show="404" value="343034"/>
        <field name="http2.headers.status" showname=":status: 404" size="3" pos="90" show="404" value="343034"/>
        <field name="http2.header.unescaped" showname="Unescaped: 404" size="3" pos="90" show="404" value="343034"/>
        <field name="http2.header.repr" showname="Representation: Indexed Header Field" size="1" pos="75" show="Indexed Header Field" value="8d"/>
        <field name="http2.header.index" showname="Index: 13" size="1" pos="75" show="13" value="8d"/>
      </field>
      <field name="http2.header" showname="Header: server: Open5GS v2.4.10" size="14" pos="76" show="" value="">
        <field name="http2.header.name.length" showname="Name Length: 6" size="4" pos="94" show="6" value="00000006"/>
        <field name="http2.header.name" showname="Name: server" size="6" pos="98" show="server" value="736572766572"/>
        <field name="http2.header.value.length" showname="Value Length: 15" size="4" pos="104" show="15" value="0000000f"/>
        <field name="http2.header.value" showname="Value: Open5GS v2.4.10" size="15" pos="108" show="Open5GS v2.4.10" value="4f70656e3547532076322e342e3130"/>
        <field name="http2.headers.server" showname="server: Open5GS v2.4.10" size="15" pos="108" show="Open5GS v2.4.10" value="4f70656e3547532076322e342e3130"/>
        <field name="http2.header.unescaped" showname="Unescaped: Open5GS v2.4.10" size="15" pos="108" show="Open5GS v2.4.10" value="4f70656e3547532076322e342e3130"/>
        <field name="http2.header.repr" showname="Representation: Literal Header Field with Incremental Indexing - Indexed Name" size="1" pos="76" show="Literal Header Field with Incremental Indexing - Indexed Name" value="76"/>
        <field name="http2.header.index" showname="Index: 54" size="1" pos="76" show="54" value="76"/>
      </field>
      <field name="http2.header" showname="Header: date: Tue, 23 May 2023 21:59:52 GMT" size="24" pos="90" show="" value="">
        <field name="http2.header.name.length" showname="Name Length: 4" size="4" pos="137" show="4" value="00000004"/>
        <field name="http2.header.name" showname="Name: date" size="4" pos="141" show="date" value="64617465"/>
        <field name="http2.header.value.length" showname="Value Length: 29" size="4" pos="145" show="29" value="0000001d"/>
        <field name="http2.header.value" showname="Value: Tue, 23 May 2023 21:59:52 GMT" size="29" pos="149" show="Tue, 23 May 2023 21:59:52 GMT" value="5475652c203233204d617920323032332032313a35393a353220474d54"/>
        <field name="http2.headers.date" showname="date: Tue, 23 May 2023 21:59:52 GMT" size="29" pos="149" show="Tue, 23 May 2023 21:59:52 GMT" value="5475652c203233204d617920323032332032313a35393a353220474d54"/>
        <field name="http2.header.unescaped" showname="Unescaped: Tue, 23 May 2023 21:59:52 GMT" size="29" pos="149" show="Tue, 23 May 2023 21:59:52 GMT" value="5475652c203233204d617920323032332032313a35393a353220474d54"/>
        <field name="http2.header.repr" showname="Representation: Literal Header Field with Incremental Indexing - Indexed Name" size="1" pos="90" show="Literal Header Field with Incremental Indexing - Indexed Name" value="61"/>
        <field name="http2.header.index" showname="Index: 33" size="1" pos="90" show="33" value="61"/>
      </field>
      <field name="http2.header" showname="Header: content-length: 160" size="5" pos="114" show="" value="">
        <field name="http2.header.name.length" showname="Name Length: 14" size="4" pos="202" show="14" value="0000000e"/>
        <field name="http2.header.name" showname="Name: content-length" size="14" pos="206" show="content-length" value="636f6e74656e742d6c656e677468"/>
        <field name="http2.header.value.length" showname="Value Length: 3" size="4" pos="220" show="3" value="00000003"/>
        <field name="http2.header.value" showname="Value: 160" size="3" pos="224" show="160" value="313630"/>
        <field name="http2.headers.content_length" showname="content-length: 160" size="3" pos="224" show="160" value="313630"/>
        <field name="http2.header.unescaped" showname="Unescaped: 160" size="3" pos="224" show="160" value="313630"/>
        <field name="http2.header.repr" showname="Representation: Literal Header Field without Indexing - Indexed Name" size="1" pos="114" show="Literal Header Field without Indexing - Indexed Name" value="0f"/>
        <field name="http2.header.index" showname="Index: 28" size="1" pos="114" show="28" value="0f"/>
      </field>
      <field name="http2.header" showname="Header: content-type: application/problem+json" size="20" pos="119" show="" value="">
        <field name="http2.header.name.length" showname="Name Length: 12" size="4" pos="232" show="12" value="0000000c"/>
        <field name="http2.header.name" showname="Name: content-type" size="12" pos="236" show="content-type" value="636f6e74656e742d74797065"/>
        <field name="http2.header.value.length" showname="Value Length: 24" size="4" pos="129" show="24" value="00000018"/>
        <field name="http2.header.value" showname="Value: application/problem+json" size="24" pos="133" show="application/problem+json" value="6170706c69636174696f6e2f70726f626c656d2b6a736f6e"/>
        <field name="http2.headers.content_type" showname="content-type: application/problem+json" size="24" pos="133" show="application/problem+json" value="6170706c69636174696f6e2f70726f626c656d2b6a736f6e"/>
        <field name="http2.header.unescaped" showname="Unescaped: application/problem+json" size="24" pos="133" show="application/problem+json" value="6170706c69636174696f6e2f70726f626c656d2b6a736f6e"/>
        <field name="http2.header.repr" showname="Representation: Literal Header Field with Incremental Indexing - Indexed Name" size="1" pos="119" show="Literal Header Field with Incremental Indexing - Indexed Name" value="5f"/>
        <field name="http2.header.index" showname="Index: 31" size="1" pos="119" show="31" value="5f"/>
      </field>
    </field>
  </proto>
</packet>


<packet>
  <proto name="geninfo" pos="0" showname="General information" size="235">
    <field name="num" pos="0" show="21" showname="Number" value="15" size="235"/>
    <field name="len" pos="0" show="235" showname="Frame Length" value="eb" size="235"/>
    <field name="caplen" pos="0" show="235" showname="Captured Length" value="eb" size="235"/>
    <field name="timestamp" pos="0" show="May 23, 2023 23:59:52.986808803 CEST" showname="Captured Time" value="1684879192.986808803" size="235"/>
  </proto>
  <proto name="frame" showname="Frame 21: 235 bytes on wire (1880 bits), 235 bytes captured (1880 bits) on interface veth_udm, id 0" size="235" pos="0">
    <field name="filtered" value="frame" />
  </proto>
  <proto name="eth" showname="Ethernet II, Src: 4e:bc:00:dd:9a:f0, Dst: 5a:03:5f:62:d5:6d" size="14" pos="0">
    <field name="filtered" value="eth" />
  </proto>
  <proto name="ip" showname="Internet Protocol Version 4, Src: 10.0.15.1, Dst: 10.0.15.2" size="20" pos="14">
    <field name="filtered" value="ip" />
  </proto>
  <proto name="tcp" showname="Transmission Control Protocol, Src Port: 7777, Dst Port: 57704, Seq: 2082833232, Ack: 2939533758, Len: 169" size="32" pos="34">
    <field name="tcp.srcport" showname="Source Port: 7777" size="2" pos="34" show="7777" value="1e61"/>
    <field name="tcp.dstport" showname="Destination Port: 57704" size="2" pos="36" show="57704" value="e168"/>
    <field name="tcp.port" showname="Source or Destination Port: 7777" hide="yes" size="2" pos="34" show="7777" value="1e61"/>
    <field name="tcp.port" showname="Source or Destination Port: 57704" hide="yes" size="2" pos="36" show="57704" value="e168"/>
    <field name="tcp.stream" showname="Stream index: 1" size="0" pos="34" show="1"/>
    <field name="tcp.len" showname="TCP Segment Len: 169" size="1" pos="46" show="169" value="80"/>
    <field name="tcp.seq" showname="Sequence number: 2082833232" size="4" pos="38" show="2082833232" value="7c258350"/>
    <field name="tcp.seq_raw" showname="Sequence number (raw): 2082833232" hide="yes" size="4" pos="38" show="2082833232" value="7c258350"/>
    <field name="tcp.nxtseq" showname="Next sequence number: 2082833401" size="0" pos="34" show="2082833401"/>
    <field name="tcp.ack" showname="Acknowledgment number: 2939533758" size="4" pos="42" show="2939533758" value="af35b9be"/>
    <field name="tcp.ack_raw" showname="Acknowledgment number (raw): 2939533758" hide="yes" size="4" pos="42" show="2939533758" value="af35b9be"/>
    <field name="tcp.hdr_len" showname="1000 .... = Header Length: 32 bytes (8)" size="1" pos="46" show="32" value="80"/>
    <field name="tcp.flags" showname="Flags: 0x018 (PSH, ACK)" size="2" pos="46" show="0x00000018" value="18" unmaskedvalue="8018">
      <field name="tcp.flags.res" showname="000. .... .... = Reserved: Not set" size="1" pos="46" show="0" value="0" unmaskedvalue="80"/>
      <field name="tcp.flags.ns" showname="...0 .... .... = Nonce: Not set" size="1" pos="46" show="0" value="0" unmaskedvalue="80"/>
      <field name="tcp.flags.cwr" showname=".... 0... .... = Congestion Window Reduced (CWR): Not set" size="1" pos="47" show="0" value="0" unmaskedvalue="18"/>
      <field name="tcp.flags.ecn" showname=".... .0.. .... = ECN-Echo: Not set" size="1" pos="47" show="0" value="0" unmaskedvalue="18"/>
      <field name="tcp.flags.urg" showname=".... ..0. .... = Urgent: Not set" size="1" pos="47" show="0" value="0" unmaskedvalue="18"/>
      <field name="tcp.flags.ack" showname=".... ...1 .... = Acknowledgment: Set" size="1" pos="47" show="1" value="1" unmaskedvalue="18"/>
      <field name="tcp.flags.push" showname=".... .... 1... = Push: Set" size="1" pos="47" show="1" value="1" unmaskedvalue="18"/>
      <field name="tcp.flags.reset" showname=".... .... .0.. = Reset: Not set" size="1" pos="47" show="0" value="0" unmaskedvalue="18"/>
      <field name="tcp.flags.syn" showname=".... .... ..0. = Syn: Not set" size="1" pos="47" show="0" value="0" unmaskedvalue="18"/>
      <field name="tcp.flags.fin" showname=".... .... ...0 = Fin: Not set" size="1" pos="47" show="0" value="0" unmaskedvalue="18"/>
      <field name="tcp.flags.str" showname="TCP Flags: \xc2\xb7\xc2\xb7\xc2\xb7\xc2\xb7\xc2\xb7\xc2\xb7\xc2\xb7AP\xc2\xb7\xc2\xb7\xc2\xb7" size="2" pos="46" show="\xc2\xb7\xc2\xb7\xc2\xb7\xc2\xb7\xc2\xb7\xc2\xb7\xc2\xb7AP\xc2\xb7\xc2\xb7\xc2\xb7" value="8018"/>
    </field>
    <field name="tcp.window_size_value" showname="Window size value: 507" size="2" pos="48" show="507" value="01fb"/>
    <field name="tcp.window_size" showname="Calculated window size: 64896" size="2" pos="48" show="64896" value="01fb"/>
    <field name="tcp.window_size_scalefactor" showname="Window size scaling factor: 128" size="2" pos="48" show="128" value="01fb"/>
    <field name="tcp.checksum" showname="Checksum: 0x32d2 [unverified]" size="2" pos="50" show="0x000032d2" value="32d2"/>
    <field name="tcp.checksum.status" showname="Checksum Status: Unverified" size="0" pos="50" show="2"/>
    <field name="tcp.urgent_pointer" showname="Urgent pointer: 0" size="2" pos="52" show="0" value="0000"/>
    <field name="tcp.options" showname="Options: (12 bytes), No-Operation (NOP), No-Operation (NOP), Timestamps" size="12" pos="54" show="01:01:08:0a:20:82:d3:57:86:1e:51:20" value="0101080a2082d357861e5120">
      <field name="tcp.options.nop" showname="TCP Option - No-Operation (NOP)" size="1" pos="54" show="01" value="01">
        <field name="tcp.option_kind" showname="Kind: No-Operation (1)" size="1" pos="54" show="1" value="01"/>
      </field>
      <field name="tcp.options.nop" showname="TCP Option - No-Operation (NOP)" size="1" pos="55" show="01" value="01">
        <field name="tcp.option_kind" showname="Kind: No-Operation (1)" size="1" pos="55" show="1" value="01"/>
      </field>
      <field name="tcp.options.timestamp" showname="TCP Option - Timestamps: TSval 545444695, TSecr 2250133792" size="10" pos="56" show="08:0a:20:82:d3:57:86:1e:51:20" value="080a2082d357861e5120">
        <field name="tcp.option_kind" showname="Kind: Time Stamp Option (8)" size="1" pos="56" show="8" value="08"/>
        <field name="tcp.option_len" showname="Length: 10" size="1" pos="57" show="10" value="0a"/>
        <field name="tcp.options.timestamp.tsval" showname="Timestamp value: 545444695" size="4" pos="58" show="545444695" value="2082d357"/>
        <field name="tcp.options.timestamp.tsecr" showname="Timestamp echo reply: 2250133792" size="4" pos="62" show="2250133792" value="861e5120"/>
      </field>
    </field>
    <field name="" show="Timestamps" size="0" pos="34">
      <field name="tcp.time_relative" showname="Time since first frame in this TCP stream: 0.033957882 seconds" size="0" pos="34" show="0.033957882"/>
      <field name="tcp.time_delta" showname="Time since previous frame in this TCP stream: 0.000022268 seconds" size="0" pos="34" show="0.000022268"/>
    </field>
    <field name="tcp.payload" showname="TCP payload (169 bytes)" size="169" pos="66" show="00:00:a0:00:01:00:00:00:0d:7b:0a:09:22:74:79:70:65:22:3a:09:22:2f:6e:75:64:72:2d:64:72:2f:76:31:22:2c:0a:09:22:74:69:74:6c:65:22:3a:09:22:5b:69:6d:73:69:2d:39:30:31:37:30:30:30:30:30:30:30:31:32:33:34:5d:20:48:54:54:50:20:72:65:73:70:6f:6e:73:65:20:65:72:72:6f:72:20:5b:34:30:34:5d:22:2c:0a:09:22:73:74:61:74:75:73:22:3a:09:34:30:34:2c:0a:09:22:69:6e:73:74:61:6e:63:65:22:3a:09:22:2f:73:75:62:73:63:72:69:70:74:69:6f:6e:2d:64:61:74:61:2f:69:6d:73:69:2d:39:30:31:37:30:30:30:30:30:30:30:31:32:33:34:22:0a:7d" value="0000a000010000000d7b0a092274797065223a09222f6e7564722d64722f7631222c0a09227469746c65223a09225b696d73692d3930313730303030303030313233345d204854545020726573706f6e7365206572726f72205b3430345d222c0a0922737461747573223a093430342c0a0922696e7374616e6365223a09222f737562736372697074696f6e2d646174612f696d73692d393031373030303030303031323334220a7d"/>
    <field name="tcp.pdu.size" showname="PDU Size: 169" size="169" pos="66" show="169" value="0000a000010000000d7b0a092274797065223a09222f6e7564722d64722f7631222c0a09227469746c65223a09225b696d73692d3930313730303030303030313233345d204854545020726573706f6e7365206572726f72205b3430345d222c0a0922737461747573223a093430342c0a0922696e7374616e6365223a09222f737562736372697074696f6e2d646174612f696d73692d393031373030303030303031323334220a7d"/>
  </proto>
  <proto name="http2" showname="HyperText Transfer Protocol 2" size="169" pos="66">
    <field name="http2.stream" showname="Stream: DATA, Stream ID: 13, Length 160" size="169" pos="66" show="" value="">
      <field name="http2.length" showname="Length: 160" size="3" pos="66" show="160" value="0000a0"/>
      <field name="http2.type" showname="Type: DATA (0)" size="1" pos="69" show="0" value="00"/>
      <field name="http2.flags" showname="Flags: 0x01" size="1" pos="70" show="0x00000001" value="01">
        <field name="http2.flags.end_stream" showname=".... ...1 = End Stream: True" size="1" pos="70" show="1" value="1" unmaskedvalue="01"/>
        <field name="http2.flags.padded" showname=".... 0... = Padded: False" size="1" pos="70" show="0" value="0" unmaskedvalue="01"/>
        <field name="http2.flags.unused_data" showname="0000 .00. = Unused: 0x00" size="1" pos="70" show="0x00000000" value="0" unmaskedvalue="01"/>
      </field>
      <field name="http2.r" showname="0... .... .... .... .... .... .... .... = Reserved: 0x0" size="4" pos="71" show="0x00000000" value="0" unmaskedvalue="0000000d"/>
      <field name="http2.streamid" showname=".000 0000 0000 0000 0000 0000 0000 1101 = Stream Identifier: 13" size="4" pos="71" show="13" value="D" unmaskedvalue="0000000d"/>
      <field name="http2.pad_length" showname="Pad Length: 0" size="0" pos="75" show="0"/>
      <field name="http2.data.data" showname="Data: 7b0a092274797065223a09222f6e7564722d64722f763122\xe2\x80\xa6" size="160" pos="75" show="7b:0a:09:22:74:79:70:65:22:3a:09:22:2f:6e:75:64:72:2d:64:72:2f:76:31:22:2c:0a:09:22:74:69:74:6c:65:22:3a:09:22:5b:69:6d:73:69:2d:39:30:31:37:30:30:30:30:30:30:30:31:32:33:34:5d:20:48:54:54:50:20:72:65:73:70:6f:6e:73:65:20:65:72:72:6f:72:20:5b:34:30:34:5d:22:2c:0a:09:22:73:74:61:74:75:73:22:3a:09:34:30:34:2c:0a:09:22:69:6e:73:74:61:6e:63:65:22:3a:09:22:2f:73:75:62:73:63:72:69:70:74:69:6f:6e:2d:64:61:74:61:2f:69:6d:73:69:2d:39:30:31:37:30:30:30:30:30:30:30:31:32:33:34:22:0a:7d" value="7b0a092274797065223a09222f6e7564722d64722f7631222c0a09227469746c65223a09225b696d73692d3930313730303030303030313233345d204854545020726573706f6e7365206572726f72205b3430345d222c0a0922737461747573223a093430342c0a0922696e7374616e6365223a09222f737562736372697074696f6e2d646174612f696d73692d393031373030303030303031323334220a7d"/>
    </field>
    <proto name="json" showname="JavaScript Object Notation: application/problem+json" size="160" pos="75">
      <field name="json.object" showname="Object" size="160" pos="75" show="" value="">
        <field name="json.member" showname="Member Key: type" size="21" pos="78" show="" value="">
          <field name="json.value.string" showname="String value: /nudr-dr/v1" size="13" pos="86" show="/nudr-dr/v1" value="222f6e7564722d64722f763122"/>
          <field name="json.key" showname="Key: type" size="6" pos="78" show="type" value="227479706522"/>
        </field>
        <field name="json.member" showname="Member Key: title" size="59" pos="102" show="" value="">
          <field name="json.value.string" showname="String value: [imsi-901700000001234] HTTP response error [404]" size="50" pos="111" show="[imsi-901700000001234] HTTP response error [404]" value="225b696d73692d3930313730303030303030313233345d204854545020726573706f6e7365206572726f72205b3430345d22"/>
          <field name="json.key" showname="Key: title" size="7" pos="102" show="title" value="227469746c6522"/>
        </field>
        <field name="json.member" showname="Member Key: status" size="13" pos="164" show="" value="">
          <field name="json.value.number" showname="Number value: 404" size="3" pos="174" show="404" value="343034"/>
          <field name="json.key" showname="Key: status" size="8" pos="164" show="status" value="2273746174757322"/>
        </field>
        <field name="json.member" showname="Member Key: instance" size="53" pos="180" show="" value="">
          <field name="json.value.string" showname="String value: /subscription-data/imsi-901700000001234" size="41" pos="192" show="/subscription-data/imsi-901700000001234" value="222f737562736372697074696f6e2d646174612f696d73692d39303137303030303030303132333422"/>
          <field name="json.key" showname="Key: instance" size="10" pos="180" show="instance" value="22696e7374616e636522"/>
        </field>
      </field>
    </proto>
  </proto>
</packet>


<packet>
  <proto name="geninfo" pos="0" showname="General information" size="131">
    <field name="num" pos="0" show="27" showname="Number" value="1b" size="131"/>
    <field name="len" pos="0" show="131" showname="Frame Length" value="83" size="131"/>
    <field name="caplen" pos="0" show="131" showname="Captured Length" value="83" size="131"/>
    <field name="timestamp" pos="0" show="May 23, 2023 23:59:59.595749901 CEST" showname="Captured Time" value="1684879199.595749901" size="131"/>
  </proto>
  <proto name="frame" showname="Frame 27: 131 bytes on wire (1048 bits), 131 bytes captured (1048 bits) on interface veth_udm, id 0" size="131" pos="0">
    <field name="filtered" value="frame" />
  </proto>
  <proto name="eth" showname="Ethernet II, Src: 4e:bc:00:dd:9a:f0, Dst: 5a:03:5f:62:d5:6d" size="14" pos="0">
    <field name="filtered" value="eth" />
  </proto>
  <proto name="ip" showname="Internet Protocol Version 4, Src: 10.0.15.1, Dst: 10.0.8.1" size="20" pos="14">
    <field name="filtered" value="ip" />
  </proto>
  <proto name="tcp" showname="Transmission Control Protocol, Src Port: 55934, Dst Port: 7777, Seq: 601568203, Ack: 423892767, Len: 65" size="32" pos="34">
    <field name="tcp.srcport" showname="Source Port: 55934" size="2" pos="34" show="55934" value="da7e"/>
    <field name="tcp.dstport" showname="Destination Port: 7777" size="2" pos="36" show="7777" value="1e61"/>
    <field name="tcp.port" showname="Source or Destination Port: 55934" hide="yes" size="2" pos="34" show="55934" value="da7e"/>
    <field name="tcp.port" showname="Source or Destination Port: 7777" hide="yes" size="2" pos="36" show="7777" value="1e61"/>
    <field name="tcp.stream" showname="Stream index: 0" size="0" pos="34" show="0"/>
    <field name="tcp.len" showname="TCP Segment Len: 65" size="1" pos="46" show="65" value="80"/>
    <field name="tcp.seq" showname="Sequence number: 601568203" size="4" pos="38" show="601568203" value="23db33cb"/>
    <field name="tcp.seq_raw" showname="Sequence number (raw): 601568203" hide="yes" size="4" pos="38" show="601568203" value="23db33cb"/>
    <field name="tcp.nxtseq" showname="Next sequence number: 601568268" size="0" pos="34" show="601568268"/>
    <field name="tcp.ack" showname="Acknowledgment number: 423892767" size="4" pos="42" show="423892767" value="1944171f"/>
    <field name="tcp.ack_raw" showname="Acknowledgment number (raw): 423892767" hide="yes" size="4" pos="42" show="423892767" value="1944171f"/>
    <field name="tcp.hdr_len" showname="1000 .... = Header Length: 32 bytes (8)" size="1" pos="46" show="32" value="80"/>
    <field name="tcp.flags" showname="Flags: 0x018 (PSH, ACK)" size="2" pos="46" show="0x00000018" value="18" unmaskedvalue="8018">
      <field name="tcp.flags.res" showname="000. .... .... = Reserved: Not set" size="1" pos="46" show="0" value="0" unmaskedvalue="80"/>
      <field name="tcp.flags.ns" showname="...0 .... .... = Nonce: Not set" size="1" pos="46" show="0" value="0" unmaskedvalue="80"/>
      <field name="tcp.flags.cwr" showname=".... 0... .... = Congestion Window Reduced (CWR): Not set" size="1" pos="47" show="0" value="0" unmaskedvalue="18"/>
      <field name="tcp.flags.ecn" showname=".... .0.. .... = ECN-Echo: Not set" size="1" pos="47" show="0" value="0" unmaskedvalue="18"/>
      <field name="tcp.flags.urg" showname=".... ..0. .... = Urgent: Not set" size="1" pos="47" show="0" value="0" unmaskedvalue="18"/>
      <field name="tcp.flags.ack" showname=".... ...1 .... = Acknowledgment: Set" size="1" pos="47" show="1" value="1" unmaskedvalue="18"/>
      <field name="tcp.flags.push" showname=".... .... 1... = Push: Set" size="1" pos="47" show="1" value="1" unmaskedvalue="18"/>
      <field name="tcp.flags.reset" showname=".... .... .0.. = Reset: Not set" size="1" pos="47" show="0" value="0" unmaskedvalue="18"/>
      <field name="tcp.flags.syn" showname=".... .... ..0. = Syn: Not set" size="1" pos="47" show="0" value="0" unmaskedvalue="18"/>
      <field name="tcp.flags.fin" showname=".... .... ...0 = Fin: Not set" size="1" pos="47" show="0" value="0" unmaskedvalue="18"/>
      <field name="tcp.flags.str" showname="TCP Flags: \xc2\xb7\xc2\xb7\xc2\xb7\xc2\xb7\xc2\xb7\xc2\xb7\xc2\xb7AP\xc2\xb7\xc2\xb7\xc2\xb7" size="2" pos="46" show="\xc2\xb7\xc2\xb7\xc2\xb7\xc2\xb7\xc2\xb7\xc2\xb7\xc2\xb7AP\xc2\xb7\xc2\xb7\xc2\xb7" value="8018"/>
    </field>
    <field name="tcp.window_size_value" showname="Window size value: 501" size="2" pos="48" show="501" value="01f5"/>
    <field name="tcp.window_size" showname="Calculated window size: 501" size="2" pos="48" show="501" value="01f5"/>
    <field name="tcp.window_size_scalefactor" showname="Window size scaling factor: -1 (unknown)" size="2" pos="48" show="-1" value="01f5"/>
    <field name="tcp.checksum" showname="Checksum: 0x2b69 [unverified]" size="2" pos="50" show="0x00002b69" value="2b69"/>
    <field name="tcp.checksum.status" showname="Checksum Status: Unverified" size="0" pos="50" show="2"/>
    <field name="tcp.urgent_pointer" showname="Urgent pointer: 0" size="2" pos="52" show="0" value="0000"/>
    <field name="tcp.options" showname="Options: (12 bytes), No-Operation (NOP), No-Operation (NOP), Timestamps" size="12" pos="54" show="01:01:08:0a:a9:a1:6f:a2:60:eb:99:42" value="0101080aa9a16fa260eb9942">
      <field name="tcp.options.nop" showname="TCP Option - No-Operation (NOP)" size="1" pos="54" show="01" value="01">
        <field name="tcp.option_kind" showname="Kind: No-Operation (1)" size="1" pos="54" show="1" value="01"/>
      </field>
      <field name="tcp.options.nop" showname="TCP Option - No-Operation (NOP)" size="1" pos="55" show="01" value="01">
        <field name="tcp.option_kind" showname="Kind: No-Operation (1)" size="1" pos="55" show="1" value="01"/>
      </field>
      <field name="tcp.options.timestamp" showname="TCP Option - Timestamps: TSval 2845929378, TSecr 1626052930" size="10" pos="56" show="08:0a:a9:a1:6f:a2:60:eb:99:42" value="080aa9a16fa260eb9942">
        <field name="tcp.option_kind" showname="Kind: Time Stamp Option (8)" size="1" pos="56" show="8" value="08"/>
        <field name="tcp.option_len" showname="Length: 10" size="1" pos="57" show="10" value="0a"/>
        <field name="tcp.options.timestamp.tsval" showname="Timestamp value: 2845929378" size="4" pos="58" show="2845929378" value="a9a16fa2"/>
        <field name="tcp.options.timestamp.tsecr" showname="Timestamp echo reply: 1626052930" size="4" pos="62" show="1626052930" value="60eb9942"/>
      </field>
    </field>
    <field name="" show="Timestamps" size="0" pos="34">
      <field name="tcp.time_relative" showname="Time since first frame in this TCP stream: 10.006650588 seconds" size="0" pos="34" show="10.006650588"/>
      <field name="tcp.time_delta" showname="Time since previous frame in this TCP stream: 10.005013278 seconds" size="0" pos="34" show="10.005013278"/>
    </field>
    <field name="tcp.payload" showname="TCP payload (65 bytes)" size="65" pos="66" show="00:00:38:01:04:00:00:06:d9:c1:04:ac:62:aa:ac:95:6a:a5:a5:8e:e1:62:a9:56:35:48:48:ea:21:50:c3:64:74:2e:3e:27:96:95:f7:ca:b3:41:2c:8b:0d:e8:c4:b3:f2:04:8d:4a:40:3e:f9:41:86:c4:c2:c0:0f:0d:02:37:32" value="0000380104000006d9c104ac62aaac956aa5a58ee162a956354848ea2150c364742e3e279695f7cab3412c8b0de8c4b3f2048d4a403ef94186c4c2c00f0d023732"/>
    <field name="tcp.pdu.size" showname="PDU Size: 65" size="65" pos="66" show="65" value="0000380104000006d9c104ac62aaac956aa5a58ee162a956354848ea2150c364742e3e279695f7cab3412c8b0de8c4b3f2048d4a403ef94186c4c2c00f0d023732"/>
  </proto>
  <proto name="http2" showname="HyperText Transfer Protocol 2" size="65" pos="66">
    <field name="http2.stream" showname="Stream: HEADERS, Stream ID: 1753, Length 56" size="65" pos="66" show="" value="">
      <field name="http2.length" showname="Length: 56" size="3" pos="66" show="56" value="000038"/>
      <field name="http2.type" showname="Type: HEADERS (1)" size="1" pos="69" show="1" value="01"/>
      <field name="http2.flags" showname="Flags: 0x04" size="1" pos="70" show="0x00000004" value="04">
        <field name="http2.flags.end_stream" showname=".... ...0 = End Stream: False" size="1" pos="70" show="0" value="0" unmaskedvalue="04"/>
        <field name="http2.flags.eh" showname=".... .1.. = End Headers: True" size="1" pos="70" show="1" value="1" unmaskedvalue="04"/>
        <field name="http2.flags.padded" showname=".... 0... = Padded: False" size="1" pos="70" show="0" value="0" unmaskedvalue="04"/>
        <field name="http2.flags.priority" showname="..0. .... = Priority: False" size="1" pos="70" show="0" value="0" unmaskedvalue="04"/>
        <field name="http2.flags.unused_headers" showname="00.0 ..0. = Unused: 0x00" size="1" pos="70" show="0x00000000" value="0" unmaskedvalue="04"/>
      </field>
      <field name="http2.r" showname="0... .... .... .... .... .... .... .... = Reserved: 0x0" size="4" pos="71" show="0x00000000" value="0" unmaskedvalue="000006d9"/>
      <field name="http2.streamid" showname=".000 0000 0000 0000 0000 0110 1101 1001 = Stream Identifier: 1753" size="4" pos="71" show="1753" value="6D9" unmaskedvalue="000006d9"/>
      <field name="http2.pad_length" showname="Pad Length: 0" size="0" pos="75" show="0"/>
      <field name="http2.headers" showname="Header Block Fragment: c104ac62aaac956aa5a58ee162a956354848ea2150c36474\xe2\x80\xa6" size="56" pos="75" show="c1:04:ac:62:aa:ac:95:6a:a5:a5:8e:e1:62:a9:56:35:48:48:ea:21:50:c3:64:74:2e:3e:27:96:95:f7:ca:b3:41:2c:8b:0d:e8:c4:b3:f2:04:8d:4a:40:3e:f9:41:86:c4:c2:c0:0f:0d:02:37:32" value="c104ac62aaac956aa5a58ee162a956354848ea2150c364742e3e279695f7cab3412c8b0de8c4b3f2048d4a403ef94186c4c2c00f0d023732"/>
    </field>
  </proto>
</packet>


<packet>
  <proto name="geninfo" pos="0" showname="General information" size="147">
    <field name="num" pos="0" show="28" showname="Number" value="1c" size="147"/>
    <field name="len" pos="0" show="147" showname="Frame Length" value="93" size="147"/>
    <field name="caplen" pos="0" show="147" showname="Captured Length" value="93" size="147"/>
    <field name="timestamp" pos="0" show="May 23, 2023 23:59:59.595800080 CEST" showname="Captured Time" value="1684879199.595800080" size="147"/>
  </proto>
  <proto name="frame" showname="Frame 28: 147 bytes on wire (1176 bits), 147 bytes captured (1176 bits) on interface veth_udm, id 0" size="147" pos="0">
    <field name="filtered" value="frame" />
  </proto>
  <proto name="eth" showname="Ethernet II, Src: 4e:bc:00:dd:9a:f0, Dst: 5a:03:5f:62:d5:6d" size="14" pos="0">
    <field name="filtered" value="eth" />
  </proto>
  <proto name="ip" showname="Internet Protocol Version 4, Src: 10.0.15.1, Dst: 10.0.8.1" size="20" pos="14">
    <field name="filtered" value="ip" />
  </proto>
  <proto name="tcp" showname="Transmission Control Protocol, Src Port: 55934, Dst Port: 7777, Seq: 601568268, Ack: 423892767, Len: 81" size="32" pos="34">
    <field name="tcp.srcport" showname="Source Port: 55934" size="2" pos="34" show="55934" value="da7e"/>
    <field name="tcp.dstport" showname="Destination Port: 7777" size="2" pos="36" show="7777" value="1e61"/>
    <field name="tcp.port" showname="Source or Destination Port: 55934" hide="yes" size="2" pos="34" show="55934" value="da7e"/>
    <field name="tcp.port" showname="Source or Destination Port: 7777" hide="yes" size="2" pos="36" show="7777" value="1e61"/>
    <field name="tcp.stream" showname="Stream index: 0" size="0" pos="34" show="0"/>
    <field name="tcp.len" showname="TCP Segment Len: 81" size="1" pos="46" show="81" value="80"/>
    <field name="tcp.seq" showname="Sequence number: 601568268" size="4" pos="38" show="601568268" value="23db340c"/>
    <field name="tcp.seq_raw" showname="Sequence number (raw): 601568268" hide="yes" size="4" pos="38" show="601568268" value="23db340c"/>
    <field name="tcp.nxtseq" showname="Next sequence number: 601568349" size="0" pos="34" show="601568349"/>
    <field name="tcp.ack" showname="Acknowledgment number: 423892767" size="4" pos="42" show="423892767" value="1944171f"/>
    <field name="tcp.ack_raw" showname="Acknowledgment number (raw): 423892767" hide="yes" size="4" pos="42" show="423892767" value="1944171f"/>
    <field name="tcp.hdr_len" showname="1000 .... = Header Length: 32 bytes (8)" size="1" pos="46" show="32" value="80"/>
    <field name="tcp.flags" showname="Flags: 0x018 (PSH, ACK)" size="2" pos="46" show="0x00000018" value="18" unmaskedvalue="8018">
      <field name="tcp.flags.res" showname="000. .... .... = Reserved: Not set" size="1" pos="46" show="0" value="0" unmaskedvalue="80"/>
      <field name="tcp.flags.ns" showname="...0 .... .... = Nonce: Not set" size="1" pos="46" show="0" value="0" unmaskedvalue="80"/>
      <field name="tcp.flags.cwr" showname=".... 0... .... = Congestion Window Reduced (CWR): Not set" size="1" pos="47" show="0" value="0" unmaskedvalue="18"/>
      <field name="tcp.flags.ecn" showname=".... .0.. .... = ECN-Echo: Not set" size="1" pos="47" show="0" value="0" unmaskedvalue="18"/>
      <field name="tcp.flags.urg" showname=".... ..0. .... = Urgent: Not set" size="1" pos="47" show="0" value="0" unmaskedvalue="18"/>
      <field name="tcp.flags.ack" showname=".... ...1 .... = Acknowledgment: Set" size="1" pos="47" show="1" value="1" unmaskedvalue="18"/>
      <field name="tcp.flags.push" showname=".... .... 1... = Push: Set" size="1" pos="47" show="1" value="1" unmaskedvalue="18"/>
      <field name="tcp.flags.reset" showname=".... .... .0.. = Reset: Not set" size="1" pos="47" show="0" value="0" unmaskedvalue="18"/>
      <field name="tcp.flags.syn" showname=".... .... ..0. = Syn: Not set" size="1" pos="47" show="0" value="0" unmaskedvalue="18"/>
      <field name="tcp.flags.fin" showname=".... .... ...0 = Fin: Not set" size="1" pos="47" show="0" value="0" unmaskedvalue="18"/>
      <field name="tcp.flags.str" showname="TCP Flags: \xc2\xb7\xc2\xb7\xc2\xb7\xc2\xb7\xc2\xb7\xc2\xb7\xc2\xb7AP\xc2\xb7\xc2\xb7\xc2\xb7" size="2" pos="46" show="\xc2\xb7\xc2\xb7\xc2\xb7\xc2\xb7\xc2\xb7\xc2\xb7\xc2\xb7AP\xc2\xb7\xc2\xb7\xc2\xb7" value="8018"/>
    </field>
    <field name="tcp.window_size_value" showname="Window size value: 501" size="2" pos="48" show="501" value="01f5"/>
    <field name="tcp.window_size" showname="Calculated window size: 501" size="2" pos="48" show="501" value="01f5"/>
    <field name="tcp.window_size_scalefactor" showname="Window size scaling factor: -1 (unknown)" size="2" pos="48" show="-1" value="01f5"/>
    <field name="tcp.checksum" showname="Checksum: 0x2b79 [unverified]" size="2" pos="50" show="0x00002b79" value="2b79"/>
    <field name="tcp.checksum.status" showname="Checksum Status: Unverified" size="0" pos="50" show="2"/>
    <field name="tcp.urgent_pointer" showname="Urgent pointer: 0" size="2" pos="52" show="0" value="0000"/>
    <field name="tcp.options" showname="Options: (12 bytes), No-Operation (NOP), No-Operation (NOP), Timestamps" size="12" pos="54" show="01:01:08:0a:a9:a1:6f:a2:60:eb:99:42" value="0101080aa9a16fa260eb9942">
      <field name="tcp.options.nop" showname="TCP Option - No-Operation (NOP)" size="1" pos="54" show="01" value="01">
        <field name="tcp.option_kind" showname="Kind: No-Operation (1)" size="1" pos="54" show="1" value="01"/>
      </field>
      <field name="tcp.options.nop" showname="TCP Option - No-Operation (NOP)" size="1" pos="55" show="01" value="01">
        <field name="tcp.option_kind" showname="Kind: No-Operation (1)" size="1" pos="55" show="1" value="01"/>
      </field>
      <field name="tcp.options.timestamp" showname="TCP Option - Timestamps: TSval 2845929378, TSecr 1626052930" size="10" pos="56" show="08:0a:a9:a1:6f:a2:60:eb:99:42" value="080aa9a16fa260eb9942">
        <field name="tcp.option_kind" showname="Kind: Time Stamp Option (8)" size="1" pos="56" show="8" value="08"/>
        <field name="tcp.option_len" showname="Length: 10" size="1" pos="57" show="10" value="0a"/>
        <field name="tcp.options.timestamp.tsval" showname="Timestamp value: 2845929378" size="4" pos="58" show="2845929378" value="a9a16fa2"/>
        <field name="tcp.options.timestamp.tsecr" showname="Timestamp echo reply: 1626052930" size="4" pos="62" show="1626052930" value="60eb9942"/>
      </field>
    </field>
    <field name="" show="Timestamps" size="0" pos="34">
      <field name="tcp.time_relative" showname="Time since first frame in this TCP stream: 10.006700767 seconds" size="0" pos="34" show="10.006700767"/>
      <field name="tcp.time_delta" showname="Time since previous frame in this TCP stream: 0.000050179 seconds" size="0" pos="34" show="0.000050179"/>
    </field>
    <field name="tcp.payload" showname="TCP payload (81 bytes)" size="81" pos="66" show="00:00:48:00:01:00:00:06:d9:5b:7b:0a:09:09:22:6f:70:22:3a:09:22:72:65:70:6c:61:63:65:22:2c:0a:09:09:22:70:61:74:68:22:3a:09:22:2f:6e:66:53:74:61:74:75:73:22:2c:0a:09:09:22:76:61:6c:75:65:22:3a:09:22:52:45:47:49:53:54:45:52:45:44:22:0a:09:7d:5d" value="0000480001000006d95b7b0a0909226f70223a09227265706c616365222c0a09092270617468223a09222f6e66537461747573222c0a09092276616c7565223a092252454749535445524544220a097d5d"/>
    <field name="tcp.pdu.size" showname="PDU Size: 81" size="81" pos="66" show="81" value="0000480001000006d95b7b0a0909226f70223a09227265706c616365222c0a09092270617468223a09222f6e66537461747573222c0a09092276616c7565223a092252454749535445524544220a097d5d"/>
  </proto>
  <proto name="http2" showname="HyperText Transfer Protocol 2" size="81" pos="66">
    <field name="http2.stream" showname="Stream: DATA, Stream ID: 1753, Length 72" size="81" pos="66" show="" value="">
      <field name="http2.length" showname="Length: 72" size="3" pos="66" show="72" value="000048"/>
      <field name="http2.type" showname="Type: DATA (0)" size="1" pos="69" show="0" value="00"/>
      <field name="http2.flags" showname="Flags: 0x01" size="1" pos="70" show="0x00000001" value="01">
        <field name="http2.flags.end_stream" showname=".... ...1 = End Stream: True" size="1" pos="70" show="1" value="1" unmaskedvalue="01"/>
        <field name="http2.flags.padded" showname=".... 0... = Padded: False" size="1" pos="70" show="0" value="0" unmaskedvalue="01"/>
        <field name="http2.flags.unused_data" showname="0000 .00. = Unused: 0x00" size="1" pos="70" show="0x00000000" value="0" unmaskedvalue="01"/>
      </field>
      <field name="http2.r" showname="0... .... .... .... .... .... .... .... = Reserved: 0x0" size="4" pos="71" show="0x00000000" value="0" unmaskedvalue="000006d9"/>
      <field name="http2.streamid" showname=".000 0000 0000 0000 0000 0110 1101 1001 = Stream Identifier: 1753" size="4" pos="71" show="1753" value="6D9" unmaskedvalue="000006d9"/>
      <field name="http2.pad_length" showname="Pad Length: 0" size="0" pos="75" show="0"/>
      <field name="http2.data.data" showname="Data: 5b7b0a0909226f70223a09227265706c616365222c0a0909\xe2\x80\xa6" size="72" pos="75" show="5b:7b:0a:09:09:22:6f:70:22:3a:09:22:72:65:70:6c:61:63:65:22:2c:0a:09:09:22:70:61:74:68:22:3a:09:22:2f:6e:66:53:74:61:74:75:73:22:2c:0a:09:09:22:76:61:6c:75:65:22:3a:09:22:52:45:47:49:53:54:45:52:45:44:22:0a:09:7d:5d" value="5b7b0a0909226f70223a09227265706c616365222c0a09092270617468223a09222f6e66537461747573222c0a09092276616c7565223a092252454749535445524544220a097d5d"/>
    </field>
  </proto>
</packet>


<packet>
  <proto name="geninfo" pos="0" showname="General information" size="101">
    <field name="num" pos="0" show="30" showname="Number" value="1e" size="101"/>
    <field name="len" pos="0" show="101" showname="Frame Length" value="65" size="101"/>
    <field name="caplen" pos="0" show="101" showname="Captured Length" value="65" size="101"/>
    <field name="timestamp" pos="0" show="May 23, 2023 23:59:59.596121413 CEST" showname="Captured Time" value="1684879199.596121413" size="101"/>
  </proto>
  <proto name="frame" showname="Frame 30: 101 bytes on wire (808 bits), 101 bytes captured (808 bits) on interface veth_udm, id 0" size="101" pos="0">
    <field name="filtered" value="frame" />
  </proto>
  <proto name="eth" showname="Ethernet II, Src: 5a:03:5f:62:d5:6d, Dst: 4e:bc:00:dd:9a:f0" size="14" pos="0">
    <field name="filtered" value="eth" />
  </proto>
  <proto name="ip" showname="Internet Protocol Version 4, Src: 10.0.8.1, Dst: 10.0.15.1" size="20" pos="14">
    <field name="filtered" value="ip" />
  </proto>
  <proto name="tcp" showname="Transmission Control Protocol, Src Port: 7777, Dst Port: 55934, Seq: 423892767, Ack: 601568349, Len: 35" size="32" pos="34">
    <field name="tcp.srcport" showname="Source Port: 7777" size="2" pos="34" show="7777" value="1e61"/>
    <field name="tcp.dstport" showname="Destination Port: 55934" size="2" pos="36" show="55934" value="da7e"/>
    <field name="tcp.port" showname="Source or Destination Port: 7777" hide="yes" size="2" pos="34" show="7777" value="1e61"/>
    <field name="tcp.port" showname="Source or Destination Port: 55934" hide="yes" size="2" pos="36" show="55934" value="da7e"/>
    <field name="tcp.stream" showname="Stream index: 0" size="0" pos="34" show="0"/>
    <field name="tcp.len" showname="TCP Segment Len: 35" size="1" pos="46" show="35" value="80"/>
    <field name="tcp.seq" showname="Sequence number: 423892767" size="4" pos="38" show="423892767" value="1944171f"/>
    <field name="tcp.seq_raw" showname="Sequence number (raw): 423892767" hide="yes" size="4" pos="38" show="423892767" value="1944171f"/>
    <field name="tcp.nxtseq" showname="Next sequence number: 423892802" size="0" pos="34" show="423892802"/>
    <field name="tcp.ack" showname="Acknowledgment number: 601568349" size="4" pos="42" show="601568349" value="23db345d"/>
    <field name="tcp.ack_raw" showname="Acknowledgment number (raw): 601568349" hide="yes" size="4" pos="42" show="601568349" value="23db345d"/>
    <field name="tcp.hdr_len" showname="1000 .... = Header Length: 32 bytes (8)" size="1" pos="46" show="32" value="80"/>
    <field name="tcp.flags" showname="Flags: 0x018 (PSH, ACK)" size="2" pos="46" show="0x00000018" value="18" unmaskedvalue="8018">
      <field name="tcp.flags.res" showname="000. .... .... = Reserved: Not set" size="1" pos="46" show="0" value="0" unmaskedvalue="80"/>
      <field name="tcp.flags.ns" showname="...0 .... .... = Nonce: Not set" size="1" pos="46" show="0" value="0" unmaskedvalue="80"/>
      <field name="tcp.flags.cwr" showname=".... 0... .... = Congestion Window Reduced (CWR): Not set" size="1" pos="47" show="0" value="0" unmaskedvalue="18"/>
      <field name="tcp.flags.ecn" showname=".... .0.. .... = ECN-Echo: Not set" size="1" pos="47" show="0" value="0" unmaskedvalue="18"/>
      <field name="tcp.flags.urg" showname=".... ..0. .... = Urgent: Not set" size="1" pos="47" show="0" value="0" unmaskedvalue="18"/>
      <field name="tcp.flags.ack" showname=".... ...1 .... = Acknowledgment: Set" size="1" pos="47" show="1" value="1" unmaskedvalue="18"/>
      <field name="tcp.flags.push" showname=".... .... 1... = Push: Set" size="1" pos="47" show="1" value="1" unmaskedvalue="18"/>
      <field name="tcp.flags.reset" showname=".... .... .0.. = Reset: Not set" size="1" pos="47" show="0" value="0" unmaskedvalue="18"/>
      <field name="tcp.flags.syn" showname=".... .... ..0. = Syn: Not set" size="1" pos="47" show="0" value="0" unmaskedvalue="18"/>
      <field name="tcp.flags.fin" showname=".... .... ...0 = Fin: Not set" size="1" pos="47" show="0" value="0" unmaskedvalue="18"/>
      <field name="tcp.flags.str" showname="TCP Flags: \xc2\xb7\xc2\xb7\xc2\xb7\xc2\xb7\xc2\xb7\xc2\xb7\xc2\xb7AP\xc2\xb7\xc2\xb7\xc2\xb7" size="2" pos="46" show="\xc2\xb7\xc2\xb7\xc2\xb7\xc2\xb7\xc2\xb7\xc2\xb7\xc2\xb7AP\xc2\xb7\xc2\xb7\xc2\xb7" value="8018"/>
    </field>
    <field name="tcp.window_size_value" showname="Window size value: 501" size="2" pos="48" show="501" value="01f5"/>
    <field name="tcp.window_size" showname="Calculated window size: 501" size="2" pos="48" show="501" value="01f5"/>
    <field name="tcp.window_size_scalefactor" showname="Window size scaling factor: -1 (unknown)" size="2" pos="48" show="-1" value="01f5"/>
    <field name="tcp.checksum" showname="Checksum: 0x2b4b [unverified]" size="2" pos="50" show="0x00002b4b" value="2b4b"/>
    <field name="tcp.checksum.status" showname="Checksum Status: Unverified" size="0" pos="50" show="2"/>
    <field name="tcp.urgent_pointer" showname="Urgent pointer: 0" size="2" pos="52" show="0" value="0000"/>
    <field name="tcp.options" showname="Options: (12 bytes), No-Operation (NOP), No-Operation (NOP), Timestamps" size="12" pos="54" show="01:01:08:0a:60:eb:c0:58:a9:a1:6f:a2" value="0101080a60ebc058a9a16fa2">
      <field name="tcp.options.nop" showname="TCP Option - No-Operation (NOP)" size="1" pos="54" show="01" value="01">
        <field name="tcp.option_kind" showname="Kind: No-Operation (1)" size="1" pos="54" show="1" value="01"/>
      </field>
      <field name="tcp.options.nop" showname="TCP Option - No-Operation (NOP)" size="1" pos="55" show="01" value="01">
        <field name="tcp.option_kind" showname="Kind: No-Operation (1)" size="1" pos="55" show="1" value="01"/>
      </field>
      <field name="tcp.options.timestamp" showname="TCP Option - Timestamps: TSval 1626062936, TSecr 2845929378" size="10" pos="56" show="08:0a:60:eb:c0:58:a9:a1:6f:a2" value="080a60ebc058a9a16fa2">
        <field name="tcp.option_kind" showname="Kind: Time Stamp Option (8)" size="1" pos="56" show="8" value="08"/>
        <field name="tcp.option_len" showname="Length: 10" size="1" pos="57" show="10" value="0a"/>
        <field name="tcp.options.timestamp.tsval" showname="Timestamp value: 1626062936" size="4" pos="58" show="1626062936" value="60ebc058"/>
        <field name="tcp.options.timestamp.tsecr" showname="Timestamp echo reply: 2845929378" size="4" pos="62" show="2845929378" value="a9a16fa2"/>
      </field>
    </field>
    <field name="" show="Timestamps" size="0" pos="34">
      <field name="tcp.time_relative" showname="Time since first frame in this TCP stream: 10.007022100 seconds" size="0" pos="34" show="10.007022100"/>
      <field name="tcp.time_delta" showname="Time since previous frame in this TCP stream: 0.000255750 seconds" size="0" pos="34" show="0.000255750"/>
    </field>
    <field name="tcp.payload" showname="TCP payload (35 bytes)" size="35" pos="66" show="00:00:1a:01:05:00:00:06:d9:89:e5:61:96:df:69:7e:94:13:2a:68:1f:a5:04:01:32:a0:83:71:b7:ee:36:fa:98:b4:6f" value="00001a0105000006d989e56196df697e94132a681fa5040132a08371b7ee36fa98b46f"/>
    <field name="tcp.pdu.size" showname="PDU Size: 35" size="35" pos="66" show="35" value="00001a0105000006d989e56196df697e94132a681fa5040132a08371b7ee36fa98b46f"/>
  </proto>
  <proto name="http2" showname="HyperText Transfer Protocol 2" size="35" pos="66">
    <field name="http2.stream" showname="Stream: HEADERS, Stream ID: 1753, Length 26" size="35" pos="66" show="" value="">
      <field name="http2.length" showname="Length: 26" size="3" pos="66" show="26" value="00001a"/>
      <field name="http2.type" showname="Type: HEADERS (1)" size="1" pos="69" show="1" value="01"/>
      <field name="http2.flags" showname="Flags: 0x05" size="1" pos="70" show="0x00000005" value="05">
        <field name="http2.flags.end_stream" showname=".... ...1 = End Stream: True" size="1" pos="70" show="1" value="1" unmaskedvalue="05"/>
        <field name="http2.flags.eh" showname=".... .1.. = End Headers: True" size="1" pos="70" show="1" value="1" unmaskedvalue="05"/>
        <field name="http2.flags.padded" showname=".... 0... = Padded: False" size="1" pos="70" show="0" value="0" unmaskedvalue="05"/>
        <field name="http2.flags.priority" showname="..0. .... = Priority: False" size="1" pos="70" show="0" value="0" unmaskedvalue="05"/>
        <field name="http2.flags.unused_headers" showname="00.0 ..0. = Unused: 0x00" size="1" pos="70" show="0x00000000" value="0" unmaskedvalue="05"/>
      </field>
      <field name="http2.r" showname="0... .... .... .... .... .... .... .... = Reserved: 0x0" size="4" pos="71" show="0x00000000" value="0" unmaskedvalue="000006d9"/>
      <field name="http2.streamid" showname=".000 0000 0000 0000 0000 0110 1101 1001 = Stream Identifier: 1753" size="4" pos="71" show="1753" value="6D9" unmaskedvalue="000006d9"/>
      <field name="http2.pad_length" showname="Pad Length: 0" size="0" pos="75" show="0"/>
      <field name="http2.headers" showname="Header Block Fragment: 89e56196df697e94132a681fa5040132a08371b7ee36fa98\xe2\x80\xa6" size="26" pos="75" show="89:e5:61:96:df:69:7e:94:13:2a:68:1f:a5:04:01:32:a0:83:71:b7:ee:36:fa:98:b4:6f" value="89e56196df697e94132a681fa5040132a08371b7ee36fa98b46f"/>
    </field>
  </proto>
</packet>


</pdml>
