<?xml version="1.0" encoding="utf-8"?>
<?xml-stylesheet type="text/xsl" href="pdml2html.xsl"?>
<!-- You can find pdml2html.xsl in /usr/share/wireshark or at https://code.wireshark.org/review/gitweb?p=wireshark.git;a=blob_plain;f=pdml2html.xsl. -->
<pdml version="0" creator="wireshark/3.2.3" time="Tue May 23 23:46:41 2023" capture_file="/home/lily/5G/PCAPS/Core/post_policy.pcapng">
<packet>
  <proto name="geninfo" pos="0" showname="General information" size="132">
    <field name="num" pos="0" show="1" showname="Number" value="1" size="132"/>
    <field name="len" pos="0" show="132" showname="Frame Length" value="84" size="132"/>
    <field name="caplen" pos="0" show="132" showname="Captured Length" value="84" size="132"/>
    <field name="timestamp" pos="0" show="May 23, 2023 23:39:05.456122646 CEST" showname="Captured Time" value="1684877945.456122646" size="132"/>
  </proto>
  <proto name="frame" showname="Frame 1: 132 bytes on wire (1056 bits), 132 bytes captured (1056 bits) on interface veth_pcf, id 0" size="132" pos="0">
    <field name="filtered" value="frame" />
  </proto>
  <proto name="eth" showname="Ethernet II, Src: 8a:0b:87:b7:1e:40, Dst: 52:d4:2e:8b:e5:24" size="14" pos="0">
    <field name="filtered" value="eth" />
  </proto>
  <proto name="ip" showname="Internet Protocol Version 4, Src: 10.0.10.1, Dst: 10.0.8.1" size="20" pos="14">
    <field name="filtered" value="ip" />
  </proto>
  <proto name="tcp" showname="Transmission Control Protocol, Src Port: 46984, Dst Port: 7777, Seq: 3602932377, Ack: 1422993677, Len: 66" size="32" pos="34">
    <field name="tcp.srcport" showname="Source Port: 46984" size="2" pos="34" show="46984" value="b788"/>
    <field name="tcp.dstport" showname="Destination Port: 7777" size="2" pos="36" show="7777" value="1e61"/>
    <field name="tcp.port" showname="Source or Destination Port: 46984" hide="yes" size="2" pos="34" show="46984" value="b788"/>
    <field name="tcp.port" showname="Source or Destination Port: 7777" hide="yes" size="2" pos="36" show="7777" value="1e61"/>
    <field name="tcp.stream" showname="Stream index: 0" size="0" pos="34" show="0"/>
    <field name="tcp.len" showname="TCP Segment Len: 66" size="1" pos="46" show="66" value="80"/>
    <field name="tcp.seq" showname="Sequence number: 3602932377" size="4" pos="38" show="3602932377" value="d6c06299"/>
    <field name="tcp.seq_raw" showname="Sequence number (raw): 3602932377" hide="yes" size="4" pos="38" show="3602932377" value="d6c06299"/>
    <field name="tcp.nxtseq" showname="Next sequence number: 3602932443" size="0" pos="34" show="3602932443"/>
    <field name="tcp.ack" showname="Acknowledgment number: 1422993677" size="4" pos="42" show="1422993677" value="54d1290d"/>
    <field name="tcp.ack_raw" showname="Acknowledgment number (raw): 1422993677" hide="yes" size="4" pos="42" show="1422993677" value="54d1290d"/>
    <field name="tcp.hdr_len" showname="1000 .... = Header Length: 32 bytes (8)" size="1" pos="46" show="32" value="80"/>
    <field name="tcp.flags" showname="Flags: 0x018 (PSH, ACK)" size="2" pos="46" show="0x00000018" value="18" unmaskedvalue="8018">
      <field name="tcp.flags.res" showname="000. .... .... = Reserved: Not set" size="1" pos="46" show="0" value="0" unmaskedvalue="80"/>
      <field name="tcp.flags.ns" showname="...0 .... .... = Nonce: Not set" size="1" pos="46" show="0" value="0" unmaskedvalue="80"/>
      <field name="tcp.flags.cwr" showname=".... 0... .... = Congestion Window Reduced (CWR): Not set" size="1" pos="47" show="0" value="0" unmaskedvalue="18"/>
      <field name="tcp.flags.ecn" showname=".... .0.. .... = ECN-Echo: Not set" size="1" pos="47" show="0" value="0" unmaskedvalue="18"/>
      <field name="tcp.flags.urg" showname=".... ..0. .... = Urgent: Not set" size="1" pos="47" show="0" value="0" unmaskedvalue="18"/>
      <field name="tcp.flags.ack" showname=".... ...1 .... = Acknowledgment: Set" size="1" pos="47" show="1" value="1" unmaskedvalue="18"/>
      <field name="tcp.flags.push" showname=".... .... 1... = Push: Set" size="1" pos="47" show="1" value="1" unmaskedvalue="18"/>
      <field name="tcp.flags.reset" showname=".... .... .0.. = Reset: Not set" size="1" pos="47" show="0" value="0" unmaskedvalue="18"/>
      <field name="tcp.flags.syn" showname=".... .... ..0. = Syn: Not set" size="1" pos="47" show="0" value="0" unmaskedvalue="18"/>
      <field name="tcp.flags.fin" showname=".... .... ...0 = Fin: Not set" size="1" pos="47" show="0" value="0" unmaskedvalue="18"/>
      <field name="tcp.flags.str" showname="TCP Flags: \xc2\xb7\xc2\xb7\xc2\xb7\xc2\xb7\xc2\xb7\xc2\xb7\xc2\xb7AP\xc2\xb7\xc2\xb7\xc2\xb7" size="2" pos="46" show="\xc2\xb7\xc2\xb7\xc2\xb7\xc2\xb7\xc2\xb7\xc2\xb7\xc2\xb7AP\xc2\xb7\xc2\xb7\xc2\xb7" value="8018"/>
    </field>
    <field name="tcp.window_size_value" showname="Window size value: 501" size="2" pos="48" show="501" value="01f5"/>
    <field name="tcp.window_size" showname="Calculated window size: 501" size="2" pos="48" show="501" value="01f5"/>
    <field name="tcp.window_size_scalefactor" showname="Window size scaling factor: -1 (unknown)" size="2" pos="48" show="-1" value="01f5"/>
    <field name="tcp.checksum" showname="Checksum: 0x266a [unverified]" size="2" pos="50" show="0x0000266a" value="266a"/>
    <field name="tcp.checksum.status" showname="Checksum Status: Unverified" size="0" pos="50" show="2"/>
    <field name="tcp.urgent_pointer" showname="Urgent pointer: 0" size="2" pos="52" show="0" value="0000"/>
    <field name="tcp.options" showname="Options: (12 bytes), No-Operation (NOP), No-Operation (NOP), Timestamps" size="12" pos="54" show="01:01:08:0a:4f:45:74:1b:0b:e6:7c:c0" value="0101080a4f45741b0be67cc0">
      <field name="tcp.options.nop" showname="TCP Option - No-Operation (NOP)" size="1" pos="54" show="01" value="01">
        <field name="tcp.option_kind" showname="Kind: No-Operation (1)" size="1" pos="54" show="1" value="01"/>
      </field>
      <field name="tcp.options.nop" showname="TCP Option - No-Operation (NOP)" size="1" pos="55" show="01" value="01">
        <field name="tcp.option_kind" showname="Kind: No-Operation (1)" size="1" pos="55" show="1" value="01"/>
      </field>
      <field name="tcp.options.timestamp" showname="TCP Option - Timestamps: TSval 1329951771, TSecr 199654592" size="10" pos="56" show="08:0a:4f:45:74:1b:0b:e6:7c:c0" value="080a4f45741b0be67cc0">
        <field name="tcp.option_kind" showname="Kind: Time Stamp Option (8)" size="1" pos="56" show="8" value="08"/>
        <field name="tcp.option_len" showname="Length: 10" size="1" pos="57" show="10" value="0a"/>
        <field name="tcp.options.timestamp.tsval" showname="Timestamp value: 1329951771" size="4" pos="58" show="1329951771" value="4f45741b"/>
        <field name="tcp.options.timestamp.tsecr" showname="Timestamp echo reply: 199654592" size="4" pos="62" show="199654592" value="0be67cc0"/>
      </field>
    </field>
    <field name="" show="Timestamps" size="0" pos="34">
      <field name="tcp.time_relative" showname="Time since first frame in this TCP stream: 0.000000000 seconds" size="0" pos="34" show="0.000000000"/>
      <field name="tcp.time_delta" showname="Time since previous frame in this TCP stream: 0.000000000 seconds" size="0" pos="34" show="0.000000000"/>
    </field>
    <field name="tcp.payload" showname="TCP payload (66 bytes)" size="66" pos="66" show="00:00:39:01:04:00:00:05:e9:c1:04:ad:62:aa:ac:95:6a:a5:a5:8e:e1:62:a9:56:35:48:48:ea:21:50:c3:72:00:92:3f:2b:cb:4a:fb:e5:59:a0:96:45:9f:20:de:59:f9:4a:f1:42:db:2c:80:32:7f:86:c4:c0:c2:0f:0d:02:37:32" value="0000390104000005e9c104ad62aaac956aa5a58ee162a956354848ea2150c37200923f2bcb4afbe559a096459f20de59f94af142db2c80327f86c4c0c20f0d023732"/>
    <field name="tcp.pdu.size" showname="PDU Size: 66" size="66" pos="66" show="66" value="0000390104000005e9c104ad62aaac956aa5a58ee162a956354848ea2150c37200923f2bcb4afbe559a096459f20de59f94af142db2c80327f86c4c0c20f0d023732"/>
  </proto>
  <proto name="http2" showname="HyperText Transfer Protocol 2" size="66" pos="66">
    <field name="http2.stream" showname="Stream: HEADERS, Stream ID: 1513, Length 57" size="66" pos="66" show="" value="">
      <field name="http2.length" showname="Length: 57" size="3" pos="66" show="57" value="000039"/>
      <field name="http2.type" showname="Type: HEADERS (1)" size="1" pos="69" show="1" value="01"/>
      <field name="http2.flags" showname="Flags: 0x04" size="1" pos="70" show="0x00000004" value="04">
        <field name="http2.flags.end_stream" showname=".... ...0 = End Stream: False" size="1" pos="70" show="0" value="0" unmaskedvalue="04"/>
        <field name="http2.flags.eh" showname=".... .1.. = End Headers: True" size="1" pos="70" show="1" value="1" unmaskedvalue="04"/>
        <field name="http2.flags.padded" showname=".... 0... = Padded: False" size="1" pos="70" show="0" value="0" unmaskedvalue="04"/>
        <field name="http2.flags.priority" showname="..0. .... = Priority: False" size="1" pos="70" show="0" value="0" unmaskedvalue="04"/>
        <field name="http2.flags.unused_headers" showname="00.0 ..0. = Unused: 0x00" size="1" pos="70" show="0x00000000" value="0" unmaskedvalue="04"/>
      </field>
      <field name="http2.r" showname="0... .... .... .... .... .... .... .... = Reserved: 0x0" size="4" pos="71" show="0x00000000" value="0" unmaskedvalue="000005e9"/>
      <field name="http2.streamid" showname=".000 0000 0000 0000 0000 0101 1110 1001 = Stream Identifier: 1513" size="4" pos="71" show="1513" value="5E9" unmaskedvalue="000005e9"/>
      <field name="http2.pad_length" showname="Pad Length: 0" size="0" pos="75" show="0"/>
      <field name="http2.headers" showname="Header Block Fragment: c104ad62aaac956aa5a58ee162a956354848ea2150c37200\xe2\x80\xa6" size="57" pos="75" show="c1:04:ad:62:aa:ac:95:6a:a5:a5:8e:e1:62:a9:56:35:48:48:ea:21:50:c3:72:00:92:3f:2b:cb:4a:fb:e5:59:a0:96:45:9f:20:de:59:f9:4a:f1:42:db:2c:80:32:7f:86:c4:c0:c2:0f:0d:02:37:32" value="c104ad62aaac956aa5a58ee162a956354848ea2150c37200923f2bcb4afbe559a096459f20de59f94af142db2c80327f86c4c0c20f0d023732"/>
    </field>
  </proto>
</packet>


<packet>
  <proto name="geninfo" pos="0" showname="General information" size="147">
    <field name="num" pos="0" show="2" showname="Number" value="2" size="147"/>
    <field name="len" pos="0" show="147" showname="Frame Length" value="93" size="147"/>
    <field name="caplen" pos="0" show="147" showname="Captured Length" value="93" size="147"/>
    <field name="timestamp" pos="0" show="May 23, 2023 23:39:05.456139766 CEST" showname="Captured Time" value="1684877945.456139766" size="147"/>
  </proto>
  <proto name="frame" showname="Frame 2: 147 bytes on wire (1176 bits), 147 bytes captured (1176 bits) on interface veth_pcf, id 0" size="147" pos="0">
    <field name="filtered" value="frame" />
  </proto>
  <proto name="eth" showname="Ethernet II, Src: 8a:0b:87:b7:1e:40, Dst: 52:d4:2e:8b:e5:24" size="14" pos="0">
    <field name="filtered" value="eth" />
  </proto>
  <proto name="ip" showname="Internet Protocol Version 4, Src: 10.0.10.1, Dst: 10.0.8.1" size="20" pos="14">
    <field name="filtered" value="ip" />
  </proto>
  <proto name="tcp" showname="Transmission Control Protocol, Src Port: 46984, Dst Port: 7777, Seq: 3602932443, Ack: 1422993677, Len: 81" size="32" pos="34">
    <field name="tcp.srcport" showname="Source Port: 46984" size="2" pos="34" show="46984" value="b788"/>
    <field name="tcp.dstport" showname="Destination Port: 7777" size="2" pos="36" show="7777" value="1e61"/>
    <field name="tcp.port" showname="Source or Destination Port: 46984" hide="yes" size="2" pos="34" show="46984" value="b788"/>
    <field name="tcp.port" showname="Source or Destination Port: 7777" hide="yes" size="2" pos="36" show="7777" value="1e61"/>
    <field name="tcp.stream" showname="Stream index: 0" size="0" pos="34" show="0"/>
    <field name="tcp.len" showname="TCP Segment Len: 81" size="1" pos="46" show="81" value="80"/>
    <field name="tcp.seq" showname="Sequence number: 3602932443" size="4" pos="38" show="3602932443" value="d6c062db"/>
    <field name="tcp.seq_raw" showname="Sequence number (raw): 3602932443" hide="yes" size="4" pos="38" show="3602932443" value="d6c062db"/>
    <field name="tcp.nxtseq" showname="Next sequence number: 3602932524" size="0" pos="34" show="3602932524"/>
    <field name="tcp.ack" showname="Acknowledgment number: 1422993677" size="4" pos="42" show="1422993677" value="54d1290d"/>
    <field name="tcp.ack_raw" showname="Acknowledgment number (raw): 1422993677" hide="yes" size="4" pos="42" show="1422993677" value="54d1290d"/>
    <field name="tcp.hdr_len" showname="1000 .... = Header Length: 32 bytes (8)" size="1" pos="46" show="32" value="80"/>
    <field name="tcp.flags" showname="Flags: 0x018 (PSH, ACK)" size="2" pos="46" show="0x00000018" value="18" unmaskedvalue="8018">
      <field name="tcp.flags.res" showname="000. .... .... = Reserved: Not set" size="1" pos="46" show="0" value="0" unmaskedvalue="80"/>
      <field name="tcp.flags.ns" showname="...0 .... .... = Nonce: Not set" size="1" pos="46" show="0" value="0" unmaskedvalue="80"/>
      <field name="tcp.flags.cwr" showname=".... 0... .... = Congestion Window Reduced (CWR): Not set" size="1" pos="47" show="0" value="0" unmaskedvalue="18"/>
      <field name="tcp.flags.ecn" showname=".... .0.. .... = ECN-Echo: Not set" size="1" pos="47" show="0" value="0" unmaskedvalue="18"/>
      <field name="tcp.flags.urg" showname=".... ..0. .... = Urgent: Not set" size="1" pos="47" show="0" value="0" unmaskedvalue="18"/>
      <field name="tcp.flags.ack" showname=".... ...1 .... = Acknowledgment: Set" size="1" pos="47" show="1" value="1" unmaskedvalue="18"/>
      <field name="tcp.flags.push" showname=".... .... 1... = Push: Set" size="1" pos="47" show="1" value="1" unmaskedvalue="18"/>
      <field name="tcp.flags.reset" showname=".... .... .0.. = Reset: Not set" size="1" pos="47" show="0" value="0" unmaskedvalue="18"/>
      <field name="tcp.flags.syn" showname=".... .... ..0. = Syn: Not set" size="1" pos="47" show="0" value="0" unmaskedvalue="18"/>
      <field name="tcp.flags.fin" showname=".... .... ...0 = Fin: Not set" size="1" pos="47" show="0" value="0" unmaskedvalue="18"/>
      <field name="tcp.flags.str" showname="TCP Flags: \xc2\xb7\xc2\xb7\xc2\xb7\xc2\xb7\xc2\xb7\xc2\xb7\xc2\xb7AP\xc2\xb7\xc2\xb7\xc2\xb7" size="2" pos="46" show="\xc2\xb7\xc2\xb7\xc2\xb7\xc2\xb7\xc2\xb7\xc2\xb7\xc2\xb7AP\xc2\xb7\xc2\xb7\xc2\xb7" value="8018"/>
    </field>
    <field name="tcp.window_size_value" showname="Window size value: 501" size="2" pos="48" show="501" value="01f5"/>
    <field name="tcp.window_size" showname="Calculated window size: 501" size="2" pos="48" show="501" value="01f5"/>
    <field name="tcp.window_size_scalefactor" showname="Window size scaling factor: -1 (unknown)" size="2" pos="48" show="-1" value="01f5"/>
    <field name="tcp.checksum" showname="Checksum: 0x2679 [unverified]" size="2" pos="50" show="0x00002679" value="2679"/>
    <field name="tcp.checksum.status" showname="Checksum Status: Unverified" size="0" pos="50" show="2"/>
    <field name="tcp.urgent_pointer" showname="Urgent pointer: 0" size="2" pos="52" show="0" value="0000"/>
    <field name="tcp.options" showname="Options: (12 bytes), No-Operation (NOP), No-Operation (NOP), Timestamps" size="12" pos="54" show="01:01:08:0a:4f:45:74:1b:0b:e6:7c:c0" value="0101080a4f45741b0be67cc0">
      <field name="tcp.options.nop" showname="TCP Option - No-Operation (NOP)" size="1" pos="54" show="01" value="01">
        <field name="tcp.option_kind" showname="Kind: No-Operation (1)" size="1" pos="54" show="1" value="01"/>
      </field>
      <field name="tcp.options.nop" showname="TCP Option - No-Operation (NOP)" size="1" pos="55" show="01" value="01">
        <field name="tcp.option_kind" showname="Kind: No-Operation (1)" size="1" pos="55" show="1" value="01"/>
      </field>
      <field name="tcp.options.timestamp" showname="TCP Option - Timestamps: TSval 1329951771, TSecr 199654592" size="10" pos="56" show="08:0a:4f:45:74:1b:0b:e6:7c:c0" value="080a4f45741b0be67cc0">
        <field name="tcp.option_kind" showname="Kind: Time Stamp Option (8)" size="1" pos="56" show="8" value="08"/>
        <field name="tcp.option_len" showname="Length: 10" size="1" pos="57" show="10" value="0a"/>
        <field name="tcp.options.timestamp.tsval" showname="Timestamp value: 1329951771" size="4" pos="58" show="1329951771" value="4f45741b"/>
        <field name="tcp.options.timestamp.tsecr" showname="Timestamp echo reply: 199654592" size="4" pos="62" show="199654592" value="0be67cc0"/>
      </field>
    </field>
    <field name="" show="Timestamps" size="0" pos="34">
      <field name="tcp.time_relative" showname="Time since first frame in this TCP stream: 0.000017120 seconds" size="0" pos="34" show="0.000017120"/>
      <field name="tcp.time_delta" showname="Time since previous frame in this TCP stream: 0.000017120 seconds" size="0" pos="34" show="0.000017120"/>
    </field>
    <field name="tcp.payload" showname="TCP payload (81 bytes)" size="81" pos="66" show="00:00:48:00:01:00:00:05:e9:5b:7b:0a:09:09:22:6f:70:22:3a:09:22:72:65:70:6c:61:63:65:22:2c:0a:09:09:22:70:61:74:68:22:3a:09:22:2f:6e:66:53:74:61:74:75:73:22:2c:0a:09:09:22:76:61:6c:75:65:22:3a:09:22:52:45:47:49:53:54:45:52:45:44:22:0a:09:7d:5d" value="0000480001000005e95b7b0a0909226f70223a09227265706c616365222c0a09092270617468223a09222f6e66537461747573222c0a09092276616c7565223a092252454749535445524544220a097d5d"/>
    <field name="tcp.pdu.size" showname="PDU Size: 81" size="81" pos="66" show="81" value="0000480001000005e95b7b0a0909226f70223a09227265706c616365222c0a09092270617468223a09222f6e66537461747573222c0a09092276616c7565223a092252454749535445524544220a097d5d"/>
  </proto>
  <proto name="http2" showname="HyperText Transfer Protocol 2" size="81" pos="66">
    <field name="http2.stream" showname="Stream: DATA, Stream ID: 1513, Length 72" size="81" pos="66" show="" value="">
      <field name="http2.length" showname="Length: 72" size="3" pos="66" show="72" value="000048"/>
      <field name="http2.type" showname="Type: DATA (0)" size="1" pos="69" show="0" value="00"/>
      <field name="http2.flags" showname="Flags: 0x01" size="1" pos="70" show="0x00000001" value="01">
        <field name="http2.flags.end_stream" showname=".... ...1 = End Stream: True" size="1" pos="70" show="1" value="1" unmaskedvalue="01"/>
        <field name="http2.flags.padded" showname=".... 0... = Padded: False" size="1" pos="70" show="0" value="0" unmaskedvalue="01"/>
        <field name="http2.flags.unused_data" showname="0000 .00. = Unused: 0x00" size="1" pos="70" show="0x00000000" value="0" unmaskedvalue="01"/>
      </field>
      <field name="http2.r" showname="0... .... .... .... .... .... .... .... = Reserved: 0x0" size="4" pos="71" show="0x00000000" value="0" unmaskedvalue="000005e9"/>
      <field name="http2.streamid" showname=".000 0000 0000 0000 0000 0101 1110 1001 = Stream Identifier: 1513" size="4" pos="71" show="1513" value="5E9" unmaskedvalue="000005e9"/>
      <field name="http2.pad_length" showname="Pad Length: 0" size="0" pos="75" show="0"/>
      <field name="http2.data.data" showname="Data: 5b7b0a0909226f70223a09227265706c616365222c0a0909\xe2\x80\xa6" size="72" pos="75" show="5b:7b:0a:09:09:22:6f:70:22:3a:09:22:72:65:70:6c:61:63:65:22:2c:0a:09:09:22:70:61:74:68:22:3a:09:22:2f:6e:66:53:74:61:74:75:73:22:2c:0a:09:09:22:76:61:6c:75:65:22:3a:09:22:52:45:47:49:53:54:45:52:45:44:22:0a:09:7d:5d" value="5b7b0a0909226f70223a09227265706c616365222c0a09092270617468223a09222f6e66537461747573222c0a09092276616c7565223a092252454749535445524544220a097d5d"/>
    </field>
  </proto>
</packet>


<packet>
  <proto name="geninfo" pos="0" showname="General information" size="101">
    <field name="num" pos="0" show="4" showname="Number" value="4" size="101"/>
    <field name="len" pos="0" show="101" showname="Frame Length" value="65" size="101"/>
    <field name="caplen" pos="0" show="101" showname="Captured Length" value="65" size="101"/>
    <field name="timestamp" pos="0" show="May 23, 2023 23:39:05.456538183 CEST" showname="Captured Time" value="1684877945.456538183" size="101"/>
  </proto>
  <proto name="frame" showname="Frame 4: 101 bytes on wire (808 bits), 101 bytes captured (808 bits) on interface veth_pcf, id 0" size="101" pos="0">
    <field name="filtered" value="frame" />
  </proto>
  <proto name="eth" showname="Ethernet II, Src: 52:d4:2e:8b:e5:24, Dst: 8a:0b:87:b7:1e:40" size="14" pos="0">
    <field name="filtered" value="eth" />
  </proto>
  <proto name="ip" showname="Internet Protocol Version 4, Src: 10.0.8.1, Dst: 10.0.10.1" size="20" pos="14">
    <field name="filtered" value="ip" />
  </proto>
  <proto name="tcp" showname="Transmission Control Protocol, Src Port: 7777, Dst Port: 46984, Seq: 1422993677, Ack: 3602932524, Len: 35" size="32" pos="34">
    <field name="tcp.srcport" showname="Source Port: 7777" size="2" pos="34" show="7777" value="1e61"/>
    <field name="tcp.dstport" showname="Destination Port: 46984" size="2" pos="36" show="46984" value="b788"/>
    <field name="tcp.port" showname="Source or Destination Port: 7777" hide="yes" size="2" pos="34" show="7777" value="1e61"/>
    <field name="tcp.port" showname="Source or Destination Port: 46984" hide="yes" size="2" pos="36" show="46984" value="b788"/>
    <field name="tcp.stream" showname="Stream index: 0" size="0" pos="34" show="0"/>
    <field name="tcp.len" showname="TCP Segment Len: 35" size="1" pos="46" show="35" value="80"/>
    <field name="tcp.seq" showname="Sequence number: 1422993677" size="4" pos="38" show="1422993677" value="54d1290d"/>
    <field name="tcp.seq_raw" showname="Sequence number (raw): 1422993677" hide="yes" size="4" pos="38" show="1422993677" value="54d1290d"/>
    <field name="tcp.nxtseq" showname="Next sequence number: 1422993712" size="0" pos="34" show="1422993712"/>
    <field name="tcp.ack" showname="Acknowledgment number: 3602932524" size="4" pos="42" show="3602932524" value="d6c0632c"/>
    <field name="tcp.ack_raw" showname="Acknowledgment number (raw): 3602932524" hide="yes" size="4" pos="42" show="3602932524" value="d6c0632c"/>
    <field name="tcp.hdr_len" showname="1000 .... = Header Length: 32 bytes (8)" size="1" pos="46" show="32" value="80"/>
    <field name="tcp.flags" showname="Flags: 0x018 (PSH, ACK)" size="2" pos="46" show="0x00000018" value="18" unmaskedvalue="8018">
      <field name="tcp.flags.res" showname="000. .... .... = Reserved: Not set" size="1" pos="46" show="0" value="0" unmaskedvalue="80"/>
      <field name="tcp.flags.ns" showname="...0 .... .... = Nonce: Not set" size="1" pos="46" show="0" value="0" unmaskedvalue="80"/>
      <field name="tcp.flags.cwr" showname=".... 0... .... = Congestion Window Reduced (CWR): Not set" size="1" pos="47" show="0" value="0" unmaskedvalue="18"/>
      <field name="tcp.flags.ecn" showname=".... .0.. .... = ECN-Echo: Not set" size="1" pos="47" show="0" value="0" unmaskedvalue="18"/>
      <field name="tcp.flags.urg" showname=".... ..0. .... = Urgent: Not set" size="1" pos="47" show="0" value="0" unmaskedvalue="18"/>
      <field name="tcp.flags.ack" showname=".... ...1 .... = Acknowledgment: Set" size="1" pos="47" show="1" value="1" unmaskedvalue="18"/>
      <field name="tcp.flags.push" showname=".... .... 1... = Push: Set" size="1" pos="47" show="1" value="1" unmaskedvalue="18"/>
      <field name="tcp.flags.reset" showname=".... .... .0.. = Reset: Not set" size="1" pos="47" show="0" value="0" unmaskedvalue="18"/>
      <field name="tcp.flags.syn" showname=".... .... ..0. = Syn: Not set" size="1" pos="47" show="0" value="0" unmaskedvalue="18"/>
      <field name="tcp.flags.fin" showname=".... .... ...0 = Fin: Not set" size="1" pos="47" show="0" value="0" unmaskedvalue="18"/>
      <field name="tcp.flags.str" showname="TCP Flags: \xc2\xb7\xc2\xb7\xc2\xb7\xc2\xb7\xc2\xb7\xc2\xb7\xc2\xb7AP\xc2\xb7\xc2\xb7\xc2\xb7" size="2" pos="46" show="\xc2\xb7\xc2\xb7\xc2\xb7\xc2\xb7\xc2\xb7\xc2\xb7\xc2\xb7AP\xc2\xb7\xc2\xb7\xc2\xb7" value="8018"/>
    </field>
    <field name="tcp.window_size_value" showname="Window size value: 716" size="2" pos="48" show="716" value="02cc"/>
    <field name="tcp.window_size" showname="Calculated window size: 716" size="2" pos="48" show="716" value="02cc"/>
    <field name="tcp.window_size_scalefactor" showname="Window size scaling factor: -1 (unknown)" size="2" pos="48" show="-1" value="02cc"/>
    <field name="tcp.checksum" showname="Checksum: 0x264b [unverified]" size="2" pos="50" show="0x0000264b" value="264b"/>
    <field name="tcp.checksum.status" showname="Checksum Status: Unverified" size="0" pos="50" show="2"/>
    <field name="tcp.urgent_pointer" showname="Urgent pointer: 0" size="2" pos="52" show="0" value="0000"/>
    <field name="tcp.options" showname="Options: (12 bytes), No-Operation (NOP), No-Operation (NOP), Timestamps" size="12" pos="54" show="01:01:08:0a:0b:e6:a3:da:4f:45:74:1b" value="0101080a0be6a3da4f45741b">
      <field name="tcp.options.nop" showname="TCP Option - No-Operation (NOP)" size="1" pos="54" show="01" value="01">
        <field name="tcp.option_kind" showname="Kind: No-Operation (1)" size="1" pos="54" show="1" value="01"/>
      </field>
      <field name="tcp.options.nop" showname="TCP Option - No-Operation (NOP)" size="1" pos="55" show="01" value="01">
        <field name="tcp.option_kind" showname="Kind: No-Operation (1)" size="1" pos="55" show="1" value="01"/>
      </field>
      <field name="tcp.options.timestamp" showname="TCP Option - Timestamps: TSval 199664602, TSecr 1329951771" size="10" pos="56" show="08:0a:0b:e6:a3:da:4f:45:74:1b" value="080a0be6a3da4f45741b">
        <field name="tcp.option_kind" showname="Kind: Time Stamp Option (8)" size="1" pos="56" show="8" value="08"/>
        <field name="tcp.option_len" showname="Length: 10" size="1" pos="57" show="10" value="0a"/>
        <field name="tcp.options.timestamp.tsval" showname="Timestamp value: 199664602" size="4" pos="58" show="199664602" value="0be6a3da"/>
        <field name="tcp.options.timestamp.tsecr" showname="Timestamp echo reply: 1329951771" size="4" pos="62" show="1329951771" value="4f45741b"/>
      </field>
    </field>
    <field name="" show="Timestamps" size="0" pos="34">
      <field name="tcp.time_relative" showname="Time since first frame in this TCP stream: 0.000415537 seconds" size="0" pos="34" show="0.000415537"/>
      <field name="tcp.time_delta" showname="Time since previous frame in this TCP stream: 0.000265565 seconds" size="0" pos="34" show="0.000265565"/>
    </field>
    <field name="tcp.payload" showname="TCP payload (35 bytes)" size="35" pos="66" show="00:00:1a:01:05:00:00:05:e9:89:e9:61:96:df:69:7e:94:13:2a:68:1f:a5:04:01:32:a0:83:71:97:ee:01:b5:31:68:df" value="00001a0105000005e989e96196df697e94132a681fa5040132a0837197ee01b53168df"/>
    <field name="tcp.pdu.size" showname="PDU Size: 35" size="35" pos="66" show="35" value="00001a0105000005e989e96196df697e94132a681fa5040132a0837197ee01b53168df"/>
  </proto>
  <proto name="http2" showname="HyperText Transfer Protocol 2" size="35" pos="66">
    <field name="http2.stream" showname="Stream: HEADERS, Stream ID: 1513, Length 26, 204 No Content" size="35" pos="66" show="" value="">
      <field name="http2.length" showname="Length: 26" size="3" pos="66" show="26" value="00001a"/>
      <field name="http2.type" showname="Type: HEADERS (1)" size="1" pos="69" show="1" value="01"/>
      <field name="http2.flags" showname="Flags: 0x05" size="1" pos="70" show="0x00000005" value="05">
        <field name="http2.flags.end_stream" showname=".... ...1 = End Stream: True" size="1" pos="70" show="1" value="1" unmaskedvalue="05"/>
        <field name="http2.flags.eh" showname=".... .1.. = End Headers: True" size="1" pos="70" show="1" value="1" unmaskedvalue="05"/>
        <field name="http2.flags.padded" showname=".... 0... = Padded: False" size="1" pos="70" show="0" value="0" unmaskedvalue="05"/>
        <field name="http2.flags.priority" showname="..0. .... = Priority: False" size="1" pos="70" show="0" value="0" unmaskedvalue="05"/>
        <field name="http2.flags.unused_headers" showname="00.0 ..0. = Unused: 0x00" size="1" pos="70" show="0x00000000" value="0" unmaskedvalue="05"/>
      </field>
      <field name="http2.r" showname="0... .... .... .... .... .... .... .... = Reserved: 0x0" size="4" pos="71" show="0x00000000" value="0" unmaskedvalue="000005e9"/>
      <field name="http2.streamid" showname=".000 0000 0000 0000 0000 0101 1110 1001 = Stream Identifier: 1513" size="4" pos="71" show="1513" value="5E9" unmaskedvalue="000005e9"/>
      <field name="http2.pad_length" showname="Pad Length: 0" size="0" pos="75" show="0"/>
      <field name="http2.headers" showname="Header Block Fragment: 89e96196df697e94132a681fa5040132a0837197ee01b531\xe2\x80\xa6" size="26" pos="75" show="89:e9:61:96:df:69:7e:94:13:2a:68:1f:a5:04:01:32:a0:83:71:97:ee:01:b5:31:68:df" value="89e96196df697e94132a681fa5040132a0837197ee01b53168df"/>
      <field name="http2.header.length" showname="Header Length: 18" size="1" pos="66" show="18" value="00"/>
      <field name="http2.header.count" showname="Header Count: 1" size="1" pos="66" show="1" value="00"/>
      <field name="http2.header" showname="Header: :status: 204 No Content" size="1" pos="75" show="" value="">
        <field name="http2.header.name.length" showname="Name Length: 7" size="4" pos="75" show="7" value="00000007"/>
        <field name="http2.header.name" showname="Name: :status" size="7" pos="79" show=":status" value="3a737461747573"/>
        <field name="http2.header.value.length" showname="Value Length: 3" size="4" pos="86" show="3" value="00000003"/>
        <field name="http2.header.value" showname="Value: 204" size="3" pos="90" show="204" value="323034"/>
        <field name="http2.headers.status" showname=":status: 204" size="3" pos="90" show="204" value="323034"/>
        <field name="http2.header.unescaped" showname="Unescaped: 204" size="3" pos="90" show="204" value="323034"/>
        <field name="http2.header.repr" showname="Representation: Indexed Header Field" size="1" pos="75" show="Indexed Header Field" value="89"/>
        <field name="http2.header.index" showname="Index: 9" size="1" pos="75" show="9" value="89"/>
      </field>
    </field>
  </proto>
</packet>


<packet>
  <proto name="geninfo" pos="0" showname="General information" size="1119">
    <field name="num" pos="0" show="11" showname="Number" value="b" size="1119"/>
    <field name="len" pos="0" show="1119" showname="Frame Length" value="45f" size="1119"/>
    <field name="caplen" pos="0" show="1119" showname="Captured Length" value="45f" size="1119"/>
    <field name="timestamp" pos="0" show="May 23, 2023 23:39:12.075996410 CEST" showname="Captured Time" value="1684877952.075996410" size="1119"/>
  </proto>
  <proto name="frame" showname="Frame 11: 1119 bytes on wire (8952 bits), 1119 bytes captured (8952 bits) on interface veth_pcf, id 0" size="1119" pos="0">
    <field name="filtered" value="frame" />
  </proto>
  <proto name="eth" showname="Ethernet II, Src: 52:d4:2e:8b:e5:24, Dst: 8a:0b:87:b7:1e:40" size="14" pos="0">
    <field name="filtered" value="eth" />
  </proto>
  <proto name="ip" showname="Internet Protocol Version 4, Src: 10.0.10.2, Dst: 10.0.10.1" size="20" pos="14">
    <field name="filtered" value="ip" />
  </proto>
  <proto name="tcp" showname="Transmission Control Protocol, Src Port: 36456, Dst Port: 7777, Seq: 2772082166, Ack: 916575729, Len: 1053" size="32" pos="34">
    <field name="tcp.srcport" showname="Source Port: 36456" size="2" pos="34" show="36456" value="8e68"/>
    <field name="tcp.dstport" showname="Destination Port: 7777" size="2" pos="36" show="7777" value="1e61"/>
    <field name="tcp.port" showname="Source or Destination Port: 36456" hide="yes" size="2" pos="34" show="36456" value="8e68"/>
    <field name="tcp.port" showname="Source or Destination Port: 7777" hide="yes" size="2" pos="36" show="7777" value="1e61"/>
    <field name="tcp.stream" showname="Stream index: 1" size="0" pos="34" show="1"/>
    <field name="tcp.len" showname="TCP Segment Len: 1053" size="1" pos="46" show="1053" value="80"/>
    <field name="tcp.seq" showname="Sequence number: 2772082166" size="4" pos="38" show="2772082166" value="a53a9df6"/>
    <field name="tcp.seq_raw" showname="Sequence number (raw): 2772082166" hide="yes" size="4" pos="38" show="2772082166" value="a53a9df6"/>
    <field name="tcp.nxtseq" showname="Next sequence number: 2772083219" size="0" pos="34" show="2772083219"/>
    <field name="tcp.ack" showname="Acknowledgment number: 916575729" size="4" pos="42" show="916575729" value="36a1d5f1"/>
    <field name="tcp.ack_raw" showname="Acknowledgment number (raw): 916575729" hide="yes" size="4" pos="42" show="916575729" value="36a1d5f1"/>
    <field name="tcp.hdr_len" showname="1000 .... = Header Length: 32 bytes (8)" size="1" pos="46" show="32" value="80"/>
    <field name="tcp.flags" showname="Flags: 0x018 (PSH, ACK)" size="2" pos="46" show="0x00000018" value="18" unmaskedvalue="8018">
      <field name="tcp.flags.res" showname="000. .... .... = Reserved: Not set" size="1" pos="46" show="0" value="0" unmaskedvalue="80"/>
      <field name="tcp.flags.ns" showname="...0 .... .... = Nonce: Not set" size="1" pos="46" show="0" value="0" unmaskedvalue="80"/>
      <field name="tcp.flags.cwr" showname=".... 0... .... = Congestion Window Reduced (CWR): Not set" size="1" pos="47" show="0" value="0" unmaskedvalue="18"/>
      <field name="tcp.flags.ecn" showname=".... .0.. .... = ECN-Echo: Not set" size="1" pos="47" show="0" value="0" unmaskedvalue="18"/>
      <field name="tcp.flags.urg" showname=".... ..0. .... = Urgent: Not set" size="1" pos="47" show="0" value="0" unmaskedvalue="18"/>
      <field name="tcp.flags.ack" showname=".... ...1 .... = Acknowledgment: Set" size="1" pos="47" show="1" value="1" unmaskedvalue="18"/>
      <field name="tcp.flags.push" showname=".... .... 1... = Push: Set" size="1" pos="47" show="1" value="1" unmaskedvalue="18"/>
      <field name="tcp.flags.reset" showname=".... .... .0.. = Reset: Not set" size="1" pos="47" show="0" value="0" unmaskedvalue="18"/>
      <field name="tcp.flags.syn" showname=".... .... ..0. = Syn: Not set" size="1" pos="47" show="0" value="0" unmaskedvalue="18"/>
      <field name="tcp.flags.fin" showname=".... .... ...0 = Fin: Not set" size="1" pos="47" show="0" value="0" unmaskedvalue="18"/>
      <field name="tcp.flags.str" showname="TCP Flags: \xc2\xb7\xc2\xb7\xc2\xb7\xc2\xb7\xc2\xb7\xc2\xb7\xc2\xb7AP\xc2\xb7\xc2\xb7\xc2\xb7" size="2" pos="46" show="\xc2\xb7\xc2\xb7\xc2\xb7\xc2\xb7\xc2\xb7\xc2\xb7\xc2\xb7AP\xc2\xb7\xc2\xb7\xc2\xb7" value="8018"/>
    </field>
    <field name="tcp.window_size_value" showname="Window size value: 502" size="2" pos="48" show="502" value="01f6"/>
    <field name="tcp.window_size" showname="Calculated window size: 64256" size="2" pos="48" show="64256" value="01f6"/>
    <field name="tcp.window_size_scalefactor" showname="Window size scaling factor: 128" size="2" pos="48" show="128" value="01f6"/>
    <field name="tcp.checksum" showname="Checksum: 0x2c46 [unverified]" size="2" pos="50" show="0x00002c46" value="2c46"/>
    <field name="tcp.checksum.status" showname="Checksum Status: Unverified" size="0" pos="50" show="2"/>
    <field name="tcp.urgent_pointer" showname="Urgent pointer: 0" size="2" pos="52" show="0" value="0000"/>
    <field name="tcp.options" showname="Options: (12 bytes), No-Operation (NOP), No-Operation (NOP), Timestamps" size="12" pos="54" show="01:01:08:0a:66:93:61:17:4a:0e:46:5b" value="0101080a669361174a0e465b">
      <field name="tcp.options.nop" showname="TCP Option - No-Operation (NOP)" size="1" pos="54" show="01" value="01">
        <field name="tcp.option_kind" showname="Kind: No-Operation (1)" size="1" pos="54" show="1" value="01"/>
      </field>
      <field name="tcp.options.nop" showname="TCP Option - No-Operation (NOP)" size="1" pos="55" show="01" value="01">
        <field name="tcp.option_kind" showname="Kind: No-Operation (1)" size="1" pos="55" show="1" value="01"/>
      </field>
      <field name="tcp.options.timestamp" showname="TCP Option - Timestamps: TSval 1720934679, TSecr 1242449499" size="10" pos="56" show="08:0a:66:93:61:17:4a:0e:46:5b" value="080a669361174a0e465b">
        <field name="tcp.option_kind" showname="Kind: Time Stamp Option (8)" size="1" pos="56" show="8" value="08"/>
        <field name="tcp.option_len" showname="Length: 10" size="1" pos="57" show="10" value="0a"/>
        <field name="tcp.options.timestamp.tsval" showname="Timestamp value: 1720934679" size="4" pos="58" show="1720934679" value="66936117"/>
        <field name="tcp.options.timestamp.tsecr" showname="Timestamp echo reply: 1242449499" size="4" pos="62" show="1242449499" value="4a0e465b"/>
      </field>
    </field>
    <field name="" show="Timestamps" size="0" pos="34">
      <field name="tcp.time_relative" showname="Time since first frame in this TCP stream: 0.000264828 seconds" size="0" pos="34" show="0.000264828"/>
      <field name="tcp.time_delta" showname="Time since previous frame in this TCP stream: 0.000117052 seconds" size="0" pos="34" show="0.000117052"/>
    </field>
    <field name="tcp.payload" showname="TCP payload (1053 bytes)" size="1053" pos="66" show="50:52:49:20:2a:20:48:54:54:50:2f:32:2e:30:0d:0a:0d:0a:53:4d:0d:0a:0d:0a:00:00:0c:04:00:00:00:00:00:00:03:00:00:00:64:00:04:00:00:ff:ff:00:00:00:04:01:00:00:00:00:00:00:05:02:00:00:00:00:03:00:00:00:00:c8:00:00:05:02:00:00:00:00:05:00:00:00:00:64:00:00:05:02:00:00:00:00:07:00:00:00:00:00:00:00:05:02:00:00:00:00:09:00:00:00:07:00:00:00:05:02:00:00:00:00:0b:00:00:00:03:00:00:00:53:01:24:00:00:00:0d:00:00:00:0b:0f:83:04:99:62:aa:c9:2a:c3:a5:6a:cf:41:89:e9:62:1e:a4:d8:7a:18:ee:16:2b:3d:06:21:8a:8f:86:41:8a:08:17:02:e1:02:e1:b8:eb:ae:bb:53:03:2a:2f:2a:90:7a:8a:aa:69:d2:9a:c4:c0:57:68:0b:83:0f:0d:03:38:32:38:5f:8b:1d:75:d0:62:0d:26:3d:4c:74:41:ea:00:03:3c:00:01:00:00:00:0d:7b:0a:09:22:6e:6f:74:69:66:69:63:61:74:69:6f:6e:55:72:69:22:3a:09:22:68:74:74:70:3a:2f:2f:31:30:2e:30:2e:33:2e:31:3a:37:37:37:37:2f:6e:61:6d:66:2d:63:61:6c:6c:62:61:63:6b:2f:76:31:2f:69:6d:73:69:2d:39:30:31:37:30:30:30:30:30:30:30:30:30:30:31:2f:61:6d:2d:70:6f:6c:69:63:79:2d:6e:6f:74:69:66:79:22:2c:0a:09:22:73:75:70:69:22:3a:09:22:69:6d:73:69:2d:39:30:31:37:30:30:30:30:30:30:30:30:30:30:34:22:2c:0a:09:22:61:63:63:65:73:73:54:79:70:65:22:3a:09:22:33:47:50:50:5f:41:43:43:45:53:53:22:2c:0a:09:22:75:73:65:72:4c:6f:63:22:3a:09:7b:0a:09:09:22:6e:72:4c:6f:63:61:74:69:6f:6e:22:3a:09:7b:0a:09:09:09:22:74:61:69:22:3a:09:7b:0a:09:09:09:09:22:70:6c:6d:6e:49:64:22:3a:09:7b:0a:09:09:09:09:09:22:6d:63:63:22:3a:09:22:39:30:31:22:2c:0a:09:09:09:09:09:22:6d:6e:63:22:3a:09:22:37:30:22:0a:09:09:09:09:7d:2c:0a:09:09:09:09:22:74:61:63:22:3a:09:22:30:30:30:30:30:31:22:0a:09:09:09:7d:2c:0a:09:09:09:22:6e:63:67:69:22:3a:09:7b:0a:09:09:09:09:22:70:6c:6d:6e:49:64:22:3a:09:7b:0a:09:09:09:09:09:22:6d:63:63:22:3a:09:22:39:30:31:22:2c:0a:09:09:09:09:09:22:6d:6e:63:22:3a:09:22:37:30:22:0a:09:09:09:09:7d:2c:0a:09:09:09:09:22:6e:72:43:65:6c:6c:49:64:22:3a:09:22:30:30:30:30:30:30:30:31:30:22:0a:09:09:09:7d:2c:0a:09:09:09:22:75:65:4c:6f:63:61:74:69:6f:6e:54:69:6d:65:73:74:61:6d:70:22:3a:09:22:32:30:32:33:2d:30:35:2d:32:33:54:32:30:3a:32:34:3a:30:34:2e:37:39:37:32:38:35:5a:22:0a:09:09:7d:0a:09:7d:2c:0a:09:22:74:69:6d:65:5a:6f:6e:65:22:3a:09:22:2b:30:32:3a:30:30:22:2c:0a:09:22:73:65:72:76:69:6e:67:50:6c:6d:6e:22:3a:09:7b:0a:09:09:22:6d:63:63:22:3a:09:22:39:30:31:22:2c:0a:09:09:22:6d:6e:63:22:3a:09:22:37:30:22:0a:09:7d:2c:0a:09:22:72:61:74:54:79:70:65:22:3a:09:22:4e:52:22:2c:0a:09:22:75:65:41:6d:62:72:22:3a:09:7b:0a:09:09:22:75:70:6c:69:6e:6b:22:3a:09:22:31:30:34:38:35:37:36:20:4b:62:70:73:22:2c:0a:09:09:22:64:6f:77:6e:6c:69:6e:6b:22:3a:09:22:31:30:34:38:35:37:36:20:4b:62:70:73:22:0a:09:7d:2c:0a:09:22:61:6c:6c:6f:77:65:64:53:6e:73:73:61:69:73:22:3a:09:5b:7b:0a:09:09:09:22:73:73:74:22:3a:09:31:2c:0a:09:09:09:22:73:64:22:3a:09:22:30:30:30:30:30:31:22:0a:09:09:7d:5d:2c:0a:09:22:67:75:61:6d:69:22:3a:09:7b:0a:09:09:22:70:6c:6d:6e:49:64:22:3a:09:7b:0a:09:09:09:22:6d:63:63:22:3a:09:22:39:30:31:22:2c:0a:09:09:09:22:6d:6e:63:22:3a:09:22:37:30:22:0a:09:09:7d:2c:0a:09:09:22:61:6d:66:49:64:22:3a:09:22:30:32:30:30:34:30:22:0a:09:7d:2c:0a:09:22:73:65:72:76:69:63:65:4e:61:6d:65:22:3a:09:22:6e:61:6d:66:2d:63:61:6c:6c:62:61:63:6b:22:2c:0a:09:22:73:75:70:70:46:65:61:74:22:3a:09:22:34:22:0a:7d:0a" value="505249202a20485454502f322e300d0a0d0a534d0d0a0d0a00000c04000000000000030000006400040000ffff00000004010000000000000502000000000300000000c800000502000000000500000000640000050200000000070000000000000005020000000009000000070000000502000000000b000000030000005301240000000d0000000b0f83049962aac92ac3a56acf4189e9621ea4d87a18ee162b3d06218a8f86418a081702e102e1b8ebaebb53032a2f2a907a8aaa69d29ac4c057680b830f0d033832385f8b1d75d0620d263d4c7441ea00033c00010000000d7b0a09226e6f74696669636174696f6e557269223a0922687474703a2f2f31302e302e332e313a373737372f6e616d662d63616c6c6261636b2f76312f696d73692d3930313730303030303030303030312f616d2d706f6c6963792d6e6f74696679222c0a092273757069223a0922696d73692d393031373030303030303030303034222c0a092261636365737354797065223a0922334750505f414343455353222c0a0922757365724c6f63223a097b0a0909226e724c6f636174696f6e223a097b0a09090922746169223a097b0a0909090922706c6d6e4964223a097b0a0909090909226d6363223a0922393031222c0a0909090909226d6e63223a09223730220a090909097d2c0a0909090922746163223a0922303030303031220a0909097d2c0a090909226e636769223a097b0a0909090922706c6d6e4964223a097b0a0909090909226d6363223a0922393031222c0a0909090909226d6e63223a09223730220a090909097d2c0a09090909226e7243656c6c4964223a0922303030303030303130220a0909097d2c0a0909092275654c6f636174696f6e54696d657374616d70223a0922323032332d30352d32335432303a32343a30342e3739373238355a220a09097d0a097d2c0a092274696d655a6f6e65223a09222b30323a3030222c0a092273657276696e67506c6d6e223a097b0a0909226d6363223a0922393031222c0a0909226d6e63223a09223730220a097d2c0a092272617454797065223a09224e52222c0a09227565416d6272223a097b0a09092275706c696e6b223a092231303438353736204b627073222c0a090922646f776e6c696e6b223a092231303438353736204b627073220a097d2c0a0922616c6c6f776564536e7373616973223a095b7b0a09090922737374223a09312c0a090909227364223a0922303030303031220a09097d5d2c0a09226775616d69223a097b0a090922706c6d6e4964223a097b0a090909226d6363223a0922393031222c0a090909226d6e63223a09223730220a09097d2c0a090922616d664964223a0922303230303430220a097d2c0a0922736572766963654e616d65223a09226e616d662d63616c6c6261636b222c0a09227375707046656174223a092234220a7d0a"/>
    <field name="tcp.pdu.size" showname="PDU Size: 24" size="24" pos="66" show="24" value="505249202a20485454502f322e300d0a0d0a534d0d0a0d0a"/>
    <field name="tcp.pdu.size" showname="PDU Size: 21" size="21" pos="90" show="21" value="00000c04000000000000030000006400040000ffff"/>
    <field name="tcp.pdu.size" showname="PDU Size: 9" size="9" pos="111" show="9" value="000000040100000000"/>
    <field name="tcp.pdu.size" showname="PDU Size: 14" size="14" pos="120" show="14" value="00000502000000000300000000c8"/>
    <field name="tcp.pdu.size" showname="PDU Size: 14" size="14" pos="134" show="14" value="0000050200000000050000000064"/>
    <field name="tcp.pdu.size" showname="PDU Size: 14" size="14" pos="148" show="14" value="0000050200000000070000000000"/>
    <field name="tcp.pdu.size" showname="PDU Size: 14" size="14" pos="162" show="14" value="0000050200000000090000000700"/>
    <field name="tcp.pdu.size" showname="PDU Size: 14" size="14" pos="176" show="14" value="00000502000000000b0000000300"/>
    <field name="tcp.pdu.size" showname="PDU Size: 92" size="92" pos="190" show="92" value="00005301240000000d0000000b0f83049962aac92ac3a56acf4189e9621ea4d87a18ee162b3d06218a8f86418a081702e102e1b8ebaebb53032a2f2a907a8aaa69d29ac4c057680b830f0d033832385f8b1d75d0620d263d4c7441ea"/>
    <field name="tcp.pdu.size" showname="PDU Size: 837" size="837" pos="282" show="837" value="00033c00010000000d7b0a09226e6f74696669636174696f6e557269223a0922687474703a2f2f31302e302e332e313a373737372f6e616d662d63616c6c6261636b2f76312f696d73692d3930313730303030303030303030312f616d2d706f6c6963792d6e6f74696679222c0a092273757069223a0922696d73692d393031373030303030303030303034222c0a092261636365737354797065223a0922334750505f414343455353222c0a0922757365724c6f63223a097b0a0909226e724c6f636174696f6e223a097b0a09090922746169223a097b0a0909090922706c6d6e4964223a097b0a0909090909226d6363223a0922393031222c0a0909090909226d6e63223a09223730220a090909097d2c0a0909090922746163223a0922303030303031220a0909097d2c0a090909226e636769223a097b0a0909090922706c6d6e4964223a097b0a0909090909226d6363223a0922393031222c0a0909090909226d6e63223a09223730220a090909097d2c0a09090909226e7243656c6c4964223a0922303030303030303130220a0909097d2c0a0909092275654c6f636174696f6e54696d657374616d70223a0922323032332d30352d32335432303a32343a30342e3739373238355a220a09097d0a097d2c0a092274696d655a6f6e65223a09222b30323a3030222c0a092273657276696e67506c6d6e223a097b0a0909226d6363223a0922393031222c0a0909226d6e63223a09223730220a097d2c0a092272617454797065223a09224e52222c0a09227565416d6272223a097b0a09092275706c696e6b223a092231303438353736204b627073222c0a090922646f776e6c696e6b223a092231303438353736204b627073220a097d2c0a0922616c6c6f776564536e7373616973223a095b7b0a09090922737374223a09312c0a090909227364223a0922303030303031220a09097d5d2c0a09226775616d69223a097b0a090922706c6d6e4964223a097b0a090909226d6363223a0922393031222c0a090909226d6e63223a09223730220a09097d2c0a090922616d664964223a0922303230303430220a097d2c0a0922736572766963654e616d65223a09226e616d662d63616c6c6261636b222c0a09227375707046656174223a092234220a7d0a"/>
  </proto>
  <proto name="http2" showname="HyperText Transfer Protocol 2" size="1053" pos="66">
    <field name="http2.stream" showname="Stream: Magic" size="24" pos="66" show="" value="">
      <field name="http2.magic" showname="Magic: PRI * HTTP/2.0\r\n\r\nSM\r\n\r\n" size="24" pos="66" show="PRI * HTTP/2.0\xd\xa\xd\xaSM\xd\xa\xd\xa" value="505249202a20485454502f322e300d0a0d0a534d0d0a0d0a"/>
    </field>
    <field name="http2.stream" showname="Stream: SETTINGS, Stream ID: 0, Length 12" size="21" pos="90" show="" value="">
      <field name="http2.length" showname="Length: 12" size="3" pos="90" show="12" value="00000c"/>
      <field name="http2.type" showname="Type: SETTINGS (4)" size="1" pos="93" show="4" value="04"/>
      <field name="http2.flags" showname="Flags: 0x00" size="1" pos="94" show="0x00000000" value="00">
        <field name="http2.flags.ack.settings" showname=".... ...0 = ACK: False" size="1" pos="94" show="0" value="0" unmaskedvalue="00"/>
        <field name="http2.flags.unused_settings" showname="0000 000. = Unused: 0x00" size="1" pos="94" show="0x00000000" value="0" unmaskedvalue="00"/>
      </field>
      <field name="http2.r" showname="0... .... .... .... .... .... .... .... = Reserved: 0x0" size="4" pos="95" show="0x00000000" value="0" unmaskedvalue="00000000"/>
      <field name="http2.streamid" showname=".000 0000 0000 0000 0000 0000 0000 0000 = Stream Identifier: 0" size="4" pos="95" show="0" value="0" unmaskedvalue="00000000"/>
      <field name="http2.settings" showname="Settings - Max concurrent streams : 100" size="6" pos="99" show="" value="">
        <field name="http2.settings.id" showname="Settings Identifier: Max concurrent streams (3)" size="2" pos="99" show="3" value="0003"/>
        <field name="http2.settings.max_concurrent_streams" showname="Max concurrent streams: 100" size="4" pos="101" show="100" value="00000064"/>
      </field>
      <field name="http2.settings" showname="Settings - Initial Windows size : 65535" size="6" pos="105" show="" value="">
        <field name="http2.settings.id" showname="Settings Identifier: Initial Windows size (4)" size="2" pos="105" show="4" value="0004"/>
        <field name="http2.settings.initial_window_size" showname="Initial Windows Size: 65535" size="4" pos="107" show="65535" value="0000ffff"/>
      </field>
    </field>
    <field name="http2.stream" showname="Stream: SETTINGS, Stream ID: 0, Length 0" size="9" pos="111" show="" value="">
      <field name="http2.length" showname="Length: 0" size="3" pos="111" show="0" value="000000"/>
      <field name="http2.type" showname="Type: SETTINGS (4)" size="1" pos="114" show="4" value="04"/>
      <field name="http2.flags" showname="Flags: 0x01" size="1" pos="115" show="0x00000001" value="01">
        <field name="http2.flags.ack.settings" showname=".... ...1 = ACK: True" size="1" pos="115" show="1" value="1" unmaskedvalue="01"/>
        <field name="http2.flags.unused_settings" showname="0000 000. = Unused: 0x00" size="1" pos="115" show="0x00000000" value="0" unmaskedvalue="01"/>
      </field>
      <field name="http2.r" showname="0... .... .... .... .... .... .... .... = Reserved: 0x0" size="4" pos="116" show="0x00000000" value="0" unmaskedvalue="00000000"/>
      <field name="http2.streamid" showname=".000 0000 0000 0000 0000 0000 0000 0000 = Stream Identifier: 0" size="4" pos="116" show="0" value="0" unmaskedvalue="00000000"/>
    </field>
    <field name="http2.stream" showname="Stream: PRIORITY, Stream ID: 3, Length 5" size="14" pos="120" show="" value="">
      <field name="http2.length" showname="Length: 5" size="3" pos="120" show="5" value="000005"/>
      <field name="http2.type" showname="Type: PRIORITY (2)" size="1" pos="123" show="2" value="02"/>
      <field name="http2.flags" showname="Flags: 0x00" size="1" pos="124" show="0x00000000" value="00">
        <field name="http2.flags.unused" showname="0000 0000 = Unused: 0x00" size="1" pos="124" show="0x00000000" value="0" unmaskedvalue="00"/>
      </field>
      <field name="http2.r" showname="0... .... .... .... .... .... .... .... = Reserved: 0x0" size="4" pos="125" show="0x00000000" value="0" unmaskedvalue="00000003"/>
      <field name="http2.streamid" showname=".000 0000 0000 0000 0000 0000 0000 0011 = Stream Identifier: 3" size="4" pos="125" show="3" value="3" unmaskedvalue="00000003"/>
      <field name="http2.exclusive" showname="0... .... .... .... .... .... .... .... = Exclusive: False" size="4" pos="129" show="0" value="0" unmaskedvalue="00000000"/>
      <field name="http2.stream_dependency" showname=".000 0000 0000 0000 0000 0000 0000 0000 = Stream Dependency: 0" size="4" pos="129" show="0" value="0" unmaskedvalue="00000000"/>
      <field name="http2.headers.weight" showname="Weight: 200" size="1" pos="133" show="200" value="c8"/>
      <field name="http2.headers.weight_real" showname="Weight real: 201" size="1" pos="133" show="201" value="c8"/>
    </field>
    <field name="http2.stream" showname="Stream: PRIORITY, Stream ID: 5, Length 5" size="14" pos="134" show="" value="">
      <field name="http2.length" showname="Length: 5" size="3" pos="134" show="5" value="000005"/>
      <field name="http2.type" showname="Type: PRIORITY (2)" size="1" pos="137" show="2" value="02"/>
      <field name="http2.flags" showname="Flags: 0x00" size="1" pos="138" show="0x00000000" value="00">
        <field name="http2.flags.unused" showname="0000 0000 = Unused: 0x00" size="1" pos="138" show="0x00000000" value="0" unmaskedvalue="00"/>
      </field>
      <field name="http2.r" showname="0... .... .... .... .... .... .... .... = Reserved: 0x0" size="4" pos="139" show="0x00000000" value="0" unmaskedvalue="00000005"/>
      <field name="http2.streamid" showname=".000 0000 0000 0000 0000 0000 0000 0101 = Stream Identifier: 5" size="4" pos="139" show="5" value="5" unmaskedvalue="00000005"/>
      <field name="http2.exclusive" showname="0... .... .... .... .... .... .... .... = Exclusive: False" size="4" pos="143" show="0" value="0" unmaskedvalue="00000000"/>
      <field name="http2.stream_dependency" showname=".000 0000 0000 0000 0000 0000 0000 0000 = Stream Dependency: 0" size="4" pos="143" show="0" value="0" unmaskedvalue="00000000"/>
      <field name="http2.headers.weight" showname="Weight: 100" size="1" pos="147" show="100" value="64"/>
      <field name="http2.headers.weight_real" showname="Weight real: 101" size="1" pos="147" show="101" value="64"/>
    </field>
    <field name="http2.stream" showname="Stream: PRIORITY, Stream ID: 7, Length 5" size="14" pos="148" show="" value="">
      <field name="http2.length" showname="Length: 5" size="3" pos="148" show="5" value="000005"/>
      <field name="http2.type" showname="Type: PRIORITY (2)" size="1" pos="151" show="2" value="02"/>
      <field name="http2.flags" showname="Flags: 0x00" size="1" pos="152" show="0x00000000" value="00">
        <field name="http2.flags.unused" showname="0000 0000 = Unused: 0x00" size="1" pos="152" show="0x00000000" value="0" unmaskedvalue="00"/>
      </field>
      <field name="http2.r" showname="0... .... .... .... .... .... .... .... = Reserved: 0x0" size="4" pos="153" show="0x00000000" value="0" unmaskedvalue="00000007"/>
      <field name="http2.streamid" showname=".000 0000 0000 0000 0000 0000 0000 0111 = Stream Identifier: 7" size="4" pos="153" show="7" value="7" unmaskedvalue="00000007"/>
      <field name="http2.exclusive" showname="0... .... .... .... .... .... .... .... = Exclusive: False" size="4" pos="157" show="0" value="0" unmaskedvalue="00000000"/>
      <field name="http2.stream_dependency" showname=".000 0000 0000 0000 0000 0000 0000 0000 = Stream Dependency: 0" size="4" pos="157" show="0" value="0" unmaskedvalue="00000000"/>
      <field name="http2.headers.weight" showname="Weight: 0" size="1" pos="161" show="0" value="00"/>
      <field name="http2.headers.weight_real" showname="Weight real: 1" size="1" pos="161" show="1" value="00"/>
    </field>
    <field name="http2.stream" showname="Stream: PRIORITY, Stream ID: 9, Length 5" size="14" pos="162" show="" value="">
      <field name="http2.length" showname="Length: 5" size="3" pos="162" show="5" value="000005"/>
      <field name="http2.type" showname="Type: PRIORITY (2)" size="1" pos="165" show="2" value="02"/>
      <field name="http2.flags" showname="Flags: 0x00" size="1" pos="166" show="0x00000000" value="00">
        <field name="http2.flags.unused" showname="0000 0000 = Unused: 0x00" size="1" pos="166" show="0x00000000" value="0" unmaskedvalue="00"/>
      </field>
      <field name="http2.r" showname="0... .... .... .... .... .... .... .... = Reserved: 0x0" size="4" pos="167" show="0x00000000" value="0" unmaskedvalue="00000009"/>
      <field name="http2.streamid" showname=".000 0000 0000 0000 0000 0000 0000 1001 = Stream Identifier: 9" size="4" pos="167" show="9" value="9" unmaskedvalue="00000009"/>
      <field name="http2.exclusive" showname="0... .... .... .... .... .... .... .... = Exclusive: False" size="4" pos="171" show="0" value="0" unmaskedvalue="00000007"/>
      <field name="http2.stream_dependency" showname=".000 0000 0000 0000 0000 0000 0000 0111 = Stream Dependency: 7" size="4" pos="171" show="7" value="7" unmaskedvalue="00000007"/>
      <field name="http2.headers.weight" showname="Weight: 0" size="1" pos="175" show="0" value="00"/>
      <field name="http2.headers.weight_real" showname="Weight real: 1" size="1" pos="175" show="1" value="00"/>
    </field>
    <field name="http2.stream" showname="Stream: PRIORITY, Stream ID: 11, Length 5" size="14" pos="176" show="" value="">
      <field name="http2.length" showname="Length: 5" size="3" pos="176" show="5" value="000005"/>
      <field name="http2.type" showname="Type: PRIORITY (2)" size="1" pos="179" show="2" value="02"/>
      <field name="http2.flags" showname="Flags: 0x00" size="1" pos="180" show="0x00000000" value="00">
        <field name="http2.flags.unused" showname="0000 0000 = Unused: 0x00" size="1" pos="180" show="0x00000000" value="0" unmaskedvalue="00"/>
      </field>
      <field name="http2.r" showname="0... .... .... .... .... .... .... .... = Reserved: 0x0" size="4" pos="181" show="0x00000000" value="0" unmaskedvalue="0000000b"/>
      <field name="http2.streamid" showname=".000 0000 0000 0000 0000 0000 0000 1011 = Stream Identifier: 11" size="4" pos="181" show="11" value="B" unmaskedvalue="0000000b"/>
      <field name="http2.exclusive" showname="0... .... .... .... .... .... .... .... = Exclusive: False" size="4" pos="185" show="0" value="0" unmaskedvalue="00000003"/>
      <field name="http2.stream_dependency" showname=".000 0000 0000 0000 0000 0000 0000 0011 = Stream Dependency: 3" size="4" pos="185" show="3" value="3" unmaskedvalue="00000003"/>
      <field name="http2.headers.weight" showname="Weight: 0" size="1" pos="189" show="0" value="00"/>
      <field name="http2.headers.weight_real" showname="Weight real: 1" size="1" pos="189" show="1" value="00"/>
    </field>
    <field name="http2.stream" showname="Stream: HEADERS, Stream ID: 13, Length 83, POST /npcf-am-policy-control/v1/policies" size="92" pos="190" show="" value="">
      <field name="http2.length" showname="Length: 83" size="3" pos="190" show="83" value="000053"/>
      <field name="http2.type" showname="Type: HEADERS (1)" size="1" pos="193" show="1" value="01"/>
      <field name="http2.flags" showname="Flags: 0x24" size="1" pos="194" show="0x00000024" value="24">
        <field name="http2.flags.end_stream" showname=".... ...0 = End Stream: False" size="1" pos="194" show="0" value="0" unmaskedvalue="24"/>
        <field name="http2.flags.eh" showname=".... .1.. = End Headers: True" size="1" pos="194" show="1" value="1" unmaskedvalue="24"/>
        <field name="http2.flags.padded" showname=".... 0... = Padded: False" size="1" pos="194" show="0" value="0" unmaskedvalue="24"/>
        <field name="http2.flags.priority" showname="..1. .... = Priority: True" size="1" pos="194" show="1" value="1" unmaskedvalue="24"/>
        <field name="http2.flags.unused_headers" showname="00.0 ..0. = Unused: 0x00" size="1" pos="194" show="0x00000000" value="0" unmaskedvalue="24"/>
      </field>
      <field name="http2.r" showname="0... .... .... .... .... .... .... .... = Reserved: 0x0" size="4" pos="195" show="0x00000000" value="0" unmaskedvalue="0000000d"/>
      <field name="http2.streamid" showname=".000 0000 0000 0000 0000 0000 0000 1101 = Stream Identifier: 13" size="4" pos="195" show="13" value="D" unmaskedvalue="0000000d"/>
      <field name="http2.pad_length" showname="Pad Length: 0" size="0" pos="199" show="0"/>
      <field name="http2.exclusive" showname="0... .... .... .... .... .... .... .... = Exclusive: False" size="4" pos="199" show="0" value="0" unmaskedvalue="0000000b"/>
      <field name="http2.stream_dependency" showname=".000 0000 0000 0000 0000 0000 0000 1011 = Stream Dependency: 11" size="4" pos="199" show="11" value="B" unmaskedvalue="0000000b"/>
      <field name="http2.headers.weight" showname="Weight: 15" size="1" pos="203" show="15" value="0f"/>
      <field name="http2.headers.weight_real" showname="Weight real: 16" size="1" pos="203" show="16" value="0f"/>
      <field name="http2.headers" showname="Header Block Fragment: 83049962aac92ac3a56acf4189e9621ea4d87a18ee162b3d\xe2\x80\xa6" size="78" pos="204" show="83:04:99:62:aa:c9:2a:c3:a5:6a:cf:41:89:e9:62:1e:a4:d8:7a:18:ee:16:2b:3d:06:21:8a:8f:86:41:8a:08:17:02:e1:02:e1:b8:eb:ae:bb:53:03:2a:2f:2a:90:7a:8a:aa:69:d2:9a:c4:c0:57:68:0b:83:0f:0d:03:38:32:38:5f:8b:1d:75:d0:62:0d:26:3d:4c:74:41:ea" value="83049962aac92ac3a56acf4189e9621ea4d87a18ee162b3d06218a8f86418a081702e102e1b8ebaebb53032a2f2a907a8aaa69d29ac4c057680b830f0d033832385f8b1d75d0620d263d4c7441ea"/>
      <field name="http2.header.length" showname="Header Length: 264" size="1" pos="190" show="264" value="00"/>
      <field name="http2.header.count" showname="Header Count: 9" size="1" pos="190" show="9" value="00"/>
      <field name="http2.header" showname="Header: :method: POST" size="1" pos="204" show="" value="">
        <field name="http2.header.name.length" showname="Name Length: 7" size="4" pos="204" show="7" value="00000007"/>
        <field name="http2.header.name" showname="Name: :method" size="7" pos="208" show=":method" value="3a6d6574686f64"/>
        <field name="http2.header.value.length" showname="Value Length: 4" size="4" pos="215" show="4" value="00000004"/>
        <field name="http2.header.value" showname="Value: POST" size="4" pos="219" show="POST" value="504f5354"/>
        <field name="http2.headers.method" showname=":method: POST" size="4" pos="219" show="POST" value="504f5354"/>
        <field name="http2.header.unescaped" showname="Unescaped: POST" size="4" pos="219" show="POST" value="504f5354"/>
        <field name="http2.header.repr" showname="Representation: Indexed Header Field" size="1" pos="204" show="Indexed Header Field" value="83"/>
        <field name="http2.header.index" showname="Index: 3" size="1" pos="204" show="3" value="83"/>
      </field>
      <field name="http2.header" showname="Header: :path: /npcf-am-policy-control/v1/policies" size="27" pos="205" show="" value="">
        <field name="http2.header.name.length" showname="Name Length: 5" size="4" pos="224" show="5" value="00000005"/>
        <field name="http2.header.name" showname="Name: :path" size="5" pos="228" show=":path" value="3a70617468"/>
        <field name="http2.header.value.length" showname="Value Length: 35" size="4" pos="233" show="35" value="00000023"/>
        <field name="http2.header.value" showname="Value: /npcf-am-policy-control/v1/policies" size="35" pos="237" show="/npcf-am-policy-control/v1/policies" value="2f6e7063662d616d2d706f6c6963792d636f6e74726f6c2f76312f706f6c6963696573"/>
        <field name="http2.headers.path" showname=":path: /npcf-am-policy-control/v1/policies" size="35" pos="237" show="/npcf-am-policy-control/v1/policies" value="2f6e7063662d616d2d706f6c6963792d636f6e74726f6c2f76312f706f6c6963696573"/>
        <field name="http2.header.unescaped" showname="Unescaped: /npcf-am-policy-control/v1/policies" size="35" pos="237" show="/npcf-am-policy-control/v1/policies" value="2f6e7063662d616d2d706f6c6963792d636f6e74726f6c2f76312f706f6c6963696573"/>
        <field name="http2.header.repr" showname="Representation: Literal Header Field without Indexing - Indexed Name" size="1" pos="205" show="Literal Header Field without Indexing - Indexed Name" value="04"/>
        <field name="http2.header.index" showname="Index: 4" size="1" pos="205" show="4" value="04"/>
      </field>
      <field name="http2.header" showname="Header: :scheme: http" size="1" pos="232" show="" value="">
        <field name="http2.header.name.length" showname="Name Length: 7" size="4" pos="299" show="7" value="00000007"/>
        <field name="http2.header.name" showname="Name: :scheme" size="7" pos="303" show=":scheme" value="3a736368656d65"/>
        <field name="http2.header.value.length" showname="Value Length: 4" size="4" pos="310" show="4" value="00000004"/>
        <field name="http2.header.value" showname="Value: http" size="4" pos="314" show="http" value="68747470"/>
        <field name="http2.headers.scheme" showname=":scheme: http" size="4" pos="314" show="http" value="68747470"/>
        <field name="http2.header.unescaped" showname="Unescaped: http" size="4" pos="314" show="http" value="68747470"/>
        <field name="http2.header.repr" showname="Representation: Indexed Header Field" size="1" pos="232" show="Indexed Header Field" value="86"/>
        <field name="http2.header.index" showname="Index: 6" size="1" pos="232" show="6" value="86"/>
      </field>
      <field name="http2.header" showname="Header: :authority: 10.0.10.1:7777" size="12" pos="233" show="" value="">
        <field name="http2.header.name.length" showname="Name Length: 10" size="4" pos="319" show="10" value="0000000a"/>
        <field name="http2.header.name" showname="Name: :authority" size="10" pos="323" show=":authority" value="3a617574686f72697479"/>
        <field name="http2.header.value.length" showname="Value Length: 14" size="4" pos="333" show="14" value="0000000e"/>
        <field name="http2.header.value" showname="Value: 10.0.10.1:7777" size="14" pos="337" show="10.0.10.1:7777" value="31302e302e31302e313a37373737"/>
        <field name="http2.headers.authority" showname=":authority: 10.0.10.1:7777" size="14" pos="337" show="10.0.10.1:7777" value="31302e302e31302e313a37373737"/>
        <field name="http2.header.unescaped" showname="Unescaped: 10.0.10.1:7777" size="14" pos="337" show="10.0.10.1:7777" value="31302e302e31302e313a37373737"/>
        <field name="http2.header.repr" showname="Representation: Literal Header Field with Incremental Indexing - Indexed Name" size="1" pos="233" show="Literal Header Field with Incremental Indexing - Indexed Name" value="41"/>
        <field name="http2.header.index" showname="Index: 1" size="1" pos="233" show="1" value="41"/>
      </field>
      <field name="http2.header" showname="Header: accept: */*" size="5" pos="245" show="" value="">
        <field name="http2.header.name.length" showname="Name Length: 6" size="4" pos="363" show="6" value="00000006"/>
        <field name="http2.header.name" showname="Name: accept" size="6" pos="367" show="accept" value="616363657074"/>
        <field name="http2.header.value.length" showname="Value Length: 3" size="4" pos="373" show="3" value="00000003"/>
        <field name="http2.header.value" showname="Value: */*" size="3" pos="377" show="*/*" value="2a2f2a"/>
        <field name="http2.headers.accept" showname="accept: */*" size="3" pos="377" show="*/*" value="2a2f2a"/>
        <field name="http2.header.unescaped" showname="Unescaped: */*" size="3" pos="377" show="*/*" value="2a2f2a"/>
        <field name="http2.header.repr" showname="Representation: Literal Header Field with Incremental Indexing - Indexed Name" size="1" pos="245" show="Literal Header Field with Incremental Indexing - Indexed Name" value="53"/>
        <field name="http2.header.index" showname="Index: 19" size="1" pos="245" show="19" value="53"/>
      </field>
      <field name="http2.header" showname="Header: accept-encoding: gzip, deflate" size="1" pos="250" show="" value="">
        <field name="http2.header.name.length" showname="Name Length: 15" size="4" pos="385" show="15" value="0000000f"/>
        <field name="http2.header.name" showname="Name: accept-encoding" size="15" pos="389" show="accept-encoding" value="6163636570742d656e636f64696e67"/>
        <field name="http2.header.value.length" showname="Value Length: 13" size="4" pos="404" show="13" value="0000000d"/>
        <field name="http2.header.value" showname="Value: gzip, deflate" size="13" pos="408" show="gzip, deflate" value="677a69702c206465666c617465"/>
        <field name="http2.headers.accept_encoding" showname="accept-encoding: gzip, deflate" size="13" pos="408" show="gzip, deflate" value="677a69702c206465666c617465"/>
        <field name="http2.header.unescaped" showname="Unescaped: gzip, deflate" size="13" pos="408" show="gzip, deflate" value="677a69702c206465666c617465"/>
        <field name="http2.header.repr" showname="Representation: Indexed Header Field" size="1" pos="250" show="Indexed Header Field" value="90"/>
        <field name="http2.header.index" showname="Index: 16" size="1" pos="250" show="16" value="90"/>
      </field>
      <field name="http2.header" showname="Header: user-agent: nghttp2/1.40.0" size="12" pos="251" show="" value="">
        <field name="http2.header.name.length" showname="Name Length: 10" size="4" pos="422" show="10" value="0000000a"/>
        <field name="http2.header.name" showname="Name: user-agent" size="10" pos="426" show="user-agent" value="757365722d6167656e74"/>
        <field name="http2.header.value.length" showname="Value Length: 14" size="4" pos="436" show="14" value="0000000e"/>
        <field name="http2.header.value" showname="Value: nghttp2/1.40.0" size="14" pos="440" show="nghttp2/1.40.0" value="6e6768747470322f312e34302e30"/>
        <field name="http2.headers.user_agent" showname="user-agent: nghttp2/1.40.0" size="14" pos="440" show="nghttp2/1.40.0" value="6e6768747470322f312e34302e30"/>
        <field name="http2.header.unescaped" showname="Unescaped: nghttp2/1.40.0" size="14" pos="440" show="nghttp2/1.40.0" value="6e6768747470322f312e34302e30"/>
        <field name="http2.header.repr" showname="Representation: Literal Header Field with Incremental Indexing - Indexed Name" size="1" pos="251" show="Literal Header Field with Incremental Indexing - Indexed Name" value="7a"/>
        <field name="http2.header.index" showname="Index: 58" size="1" pos="251" show="58" value="7a"/>
      </field>
      <field name="http2.header" showname="Header: content-length: 828" size="6" pos="263" show="" value="">
        <field name="http2.header.name.length" showname="Name Length: 14" size="4" pos="466" show="14" value="0000000e"/>
        <field name="http2.header.name" showname="Name: content-length" size="14" pos="470" show="content-length" value="636f6e74656e742d6c656e677468"/>
        <field name="http2.header.value.length" showname="Value Length: 3" size="4" pos="484" show="3" value="00000003"/>
        <field name="http2.header.value" showname="Value: 828" size="3" pos="488" show="828" value="383238"/>
        <field name="http2.headers.content_length" showname="content-length: 828" size="3" pos="488" show="828" value="383238"/>
        <field name="http2.header.unescaped" showname="Unescaped: 828" size="3" pos="488" show="828" value="383238"/>
        <field name="http2.header.repr" showname="Representation: Literal Header Field without Indexing - Indexed Name" size="1" pos="263" show="Literal Header Field without Indexing - Indexed Name" value="0f"/>
        <field name="http2.header.index" showname="Index: 28" size="1" pos="263" show="28" value="0f"/>
      </field>
      <field name="http2.header" showname="Header: content-type: application/json" size="13" pos="269" show="" value="">
        <field name="http2.header.name.length" showname="Name Length: 12" size="4" pos="497" show="12" value="0000000c"/>
        <field name="http2.header.name" showname="Name: content-type" size="12" pos="501" show="content-type" value="636f6e74656e742d74797065"/>
        <field name="http2.header.value.length" showname="Value Length: 16" size="4" pos="513" show="16" value="00000010"/>
        <field name="http2.header.value" showname="Value: application/json" size="16" pos="517" show="application/json" value="6170706c69636174696f6e2f6a736f6e"/>
        <field name="http2.headers.content_type" showname="content-type: application/json" size="16" pos="517" show="application/json" value="6170706c69636174696f6e2f6a736f6e"/>
        <field name="http2.header.unescaped" showname="Unescaped: application/json" size="16" pos="517" show="application/json" value="6170706c69636174696f6e2f6a736f6e"/>
        <field name="http2.header.repr" showname="Representation: Literal Header Field with Incremental Indexing - Indexed Name" size="1" pos="269" show="Literal Header Field with Incremental Indexing - Indexed Name" value="5f"/>
        <field name="http2.header.index" showname="Index: 31" size="1" pos="269" show="31" value="5f"/>
      </field>
    </field>
    <field name="http2.stream" showname="Stream: DATA, Stream ID: 13, Length 828" size="837" pos="282" show="" value="">
      <field name="http2.length" showname="Length: 828" size="3" pos="282" show="828" value="00033c"/>
      <field name="http2.type" showname="Type: DATA (0)" size="1" pos="285" show="0" value="00"/>
      <field name="http2.flags" showname="Flags: 0x01" size="1" pos="286" show="0x00000001" value="01">
        <field name="http2.flags.end_stream" showname=".... ...1 = End Stream: True" size="1" pos="286" show="1" value="1" unmaskedvalue="01"/>
        <field name="http2.flags.padded" showname=".... 0... = Padded: False" size="1" pos="286" show="0" value="0" unmaskedvalue="01"/>
        <field name="http2.flags.unused_data" showname="0000 .00. = Unused: 0x00" size="1" pos="286" show="0x00000000" value="0" unmaskedvalue="01"/>
      </field>
      <field name="http2.r" showname="0... .... .... .... .... .... .... .... = Reserved: 0x0" size="4" pos="287" show="0x00000000" value="0" unmaskedvalue="0000000d"/>
      <field name="http2.streamid" showname=".000 0000 0000 0000 0000 0000 0000 1101 = Stream Identifier: 13" size="4" pos="287" show="13" value="D" unmaskedvalue="0000000d"/>
      <field name="http2.pad_length" showname="Pad Length: 0" size="0" pos="291" show="0"/>
      <field name="http2.data.data" showname="Data: 7b0a09226e6f74696669636174696f6e557269223a092268\xe2\x80\xa6" size="828" pos="291" show="7b:0a:09:22:6e:6f:74:69:66:69:63:61:74:69:6f:6e:55:72:69:22:3a:09:22:68:74:74:70:3a:2f:2f:31:30:2e:30:2e:33:2e:31:3a:37:37:37:37:2f:6e:61:6d:66:2d:63:61:6c:6c:62:61:63:6b:2f:76:31:2f:69:6d:73:69:2d:39:30:31:37:30:30:30:30:30:30:30:30:30:30:31:2f:61:6d:2d:70:6f:6c:69:63:79:2d:6e:6f:74:69:66:79:22:2c:0a:09:22:73:75:70:69:22:3a:09:22:69:6d:73:69:2d:39:30:31:37:30:30:30:30:30:30:30:30:30:30:34:22:2c:0a:09:22:61:63:63:65:73:73:54:79:70:65:22:3a:09:22:33:47:50:50:5f:41:43:43:45:53:53:22:2c:0a:09:22:75:73:65:72:4c:6f:63:22:3a:09:7b:0a:09:09:22:6e:72:4c:6f:63:61:74:69:6f:6e:22:3a:09:7b:0a:09:09:09:22:74:61:69:22:3a:09:7b:0a:09:09:09:09:22:70:6c:6d:6e:49:64:22:3a:09:7b:0a:09:09:09:09:09:22:6d:63:63:22:3a:09:22:39:30:31:22:2c:0a:09:09:09:09:09:22:6d:6e:63:22:3a:09:22:37:30:22:0a:09:09:09:09:7d:2c:0a:09:09:09:09:22:74:61:63:22:3a:09:22:30:30:30:30:30:31:22:0a:09:09:09:7d:2c:0a:09:09:09:22:6e:63:67:69:22:3a:09:7b:0a:09:09:09:09:22:70:6c:6d:6e:49:64:22:3a:09:7b:0a:09:09:09:09:09:22:6d:63:63:22:3a:09:22:39:30:31:22:2c:0a:09:09:09:09:09:22:6d:6e:63:22:3a:09:22:37:30:22:0a:09:09:09:09:7d:2c:0a:09:09:09:09:22:6e:72:43:65:6c:6c:49:64:22:3a:09:22:30:30:30:30:30:30:30:31:30:22:0a:09:09:09:7d:2c:0a:09:09:09:22:75:65:4c:6f:63:61:74:69:6f:6e:54:69:6d:65:73:74:61:6d:70:22:3a:09:22:32:30:32:33:2d:30:35:2d:32:33:54:32:30:3a:32:34:3a:30:34:2e:37:39:37:32:38:35:5a:22:0a:09:09:7d:0a:09:7d:2c:0a:09:22:74:69:6d:65:5a:6f:6e:65:22:3a:09:22:2b:30:32:3a:30:30:22:2c:0a:09:22:73:65:72:76:69:6e:67:50:6c:6d:6e:22:3a:09:7b:0a:09:09:22:6d:63:63:22:3a:09:22:39:30:31:22:2c:0a:09:09:22:6d:6e:63:22:3a:09:22:37:30:22:0a:09:7d:2c:0a:09:22:72:61:74:54:79:70:65:22:3a:09:22:4e:52:22:2c:0a:09:22:75:65:41:6d:62:72:22:3a:09:7b:0a:09:09:22:75:70:6c:69:6e:6b:22:3a:09:22:31:30:34:38:35:37:36:20:4b:62:70:73:22:2c:0a:09:09:22:64:6f:77:6e:6c:69:6e:6b:22:3a:09:22:31:30:34:38:35:37:36:20:4b:62:70:73:22:0a:09:7d:2c:0a:09:22:61:6c:6c:6f:77:65:64:53:6e:73:73:61:69:73:22:3a:09:5b:7b:0a:09:09:09:22:73:73:74:22:3a:09:31:2c:0a:09:09:09:22:73:64:22:3a:09:22:30:30:30:30:30:31:22:0a:09:09:7d:5d:2c:0a:09:22:67:75:61:6d:69:22:3a:09:7b:0a:09:09:22:70:6c:6d:6e:49:64:22:3a:09:7b:0a:09:09:09:22:6d:63:63:22:3a:09:22:39:30:31:22:2c:0a:09:09:09:22:6d:6e:63:22:3a:09:22:37:30:22:0a:09:09:7d:2c:0a:09:09:22:61:6d:66:49:64:22:3a:09:22:30:32:30:30:34:30:22:0a:09:7d:2c:0a:09:22:73:65:72:76:69:63:65:4e:61:6d:65:22:3a:09:22:6e:61:6d:66:2d:63:61:6c:6c:62:61:63:6b:22:2c:0a:09:22:73:75:70:70:46:65:61:74:22:3a:09:22:34:22:0a:7d:0a" value="7b0a09226e6f74696669636174696f6e557269223a0922687474703a2f2f31302e302e332e313a373737372f6e616d662d63616c6c6261636b2f76312f696d73692d3930313730303030303030303030312f616d2d706f6c6963792d6e6f74696679222c0a092273757069223a0922696d73692d393031373030303030303030303034222c0a092261636365737354797065223a0922334750505f414343455353222c0a0922757365724c6f63223a097b0a0909226e724c6f636174696f6e223a097b0a09090922746169223a097b0a0909090922706c6d6e4964223a097b0a0909090909226d6363223a0922393031222c0a0909090909226d6e63223a09223730220a090909097d2c0a0909090922746163223a0922303030303031220a0909097d2c0a090909226e636769223a097b0a0909090922706c6d6e4964223a097b0a0909090909226d6363223a0922393031222c0a0909090909226d6e63223a09223730220a090909097d2c0a09090909226e7243656c6c4964223a0922303030303030303130220a0909097d2c0a0909092275654c6f636174696f6e54696d657374616d70223a0922323032332d30352d32335432303a32343a30342e3739373238355a220a09097d0a097d2c0a092274696d655a6f6e65223a09222b30323a3030222c0a092273657276696e67506c6d6e223a097b0a0909226d6363223a0922393031222c0a0909226d6e63223a09223730220a097d2c0a092272617454797065223a09224e52222c0a09227565416d6272223a097b0a09092275706c696e6b223a092231303438353736204b627073222c0a090922646f776e6c696e6b223a092231303438353736204b627073220a097d2c0a0922616c6c6f776564536e7373616973223a095b7b0a09090922737374223a09312c0a090909227364223a0922303030303031220a09097d5d2c0a09226775616d69223a097b0a090922706c6d6e4964223a097b0a090909226d6363223a0922393031222c0a090909226d6e63223a09223730220a09097d2c0a090922616d664964223a0922303230303430220a097d2c0a0922736572766963654e616d65223a09226e616d662d63616c6c6261636b222c0a09227375707046656174223a092234220a7d0a"/>
    </field>
    <proto name="json" showname="JavaScript Object Notation: application/json" size="828" pos="291">
      <field name="json.object" showname="Object" size="827" pos="291" show="" value="">
        <field name="json.member" showname="Member Key: notificationUri" size="96" pos="294" show="" value="">
          <field name="json.value.string" showname="String value: http://10.0.3.1:7777/namf-callback/v1/imsi-901700000000001/am-policy-notify" size="77" pos="313" show="http://10.0.3.1:7777/namf-callback/v1/imsi-901700000000001/am-policy-notify" value="22687474703a2f2f31302e302e332e313a373737372f6e616d662d63616c6c6261636b2f76312f696d73692d3930313730303030303030303030312f616d2d706f6c6963792d6e6f7469667922"/>
          <field name="json.key" showname="Key: notificationUri" size="17" pos="294" show="notificationUri" value="226e6f74696669636174696f6e55726922"/>
        </field>
        <field name="json.member" showname="Member Key: supi" size="30" pos="393" show="" value="">
          <field name="json.value.string" showname="String value: imsi-901700000000004" size="22" pos="401" show="imsi-901700000000004" value="22696d73692d39303137303030303030303030303422"/>
          <field name="json.key" showname="Key: supi" size="6" pos="393" show="supi" value="227375706922"/>
        </field>
        <field name="json.member" showname="Member Key: accessType" size="27" pos="426" show="" value="">
          <field name="json.value.string" showname="String value: 3GPP_ACCESS" size="13" pos="440" show="3GPP_ACCESS" value="22334750505f41434345535322"/>
          <field name="json.key" showname="Key: accessType" size="12" pos="426" show="accessType" value="226163636573735479706522"/>
        </field>
        <field name="json.member" showname="Member Key: userLoc" size="296" pos="456" show="" value="">
          <field name="json.object" showname="Object" size="285" pos="467" show="" value="">
            <field name="json.member" showname="Member Key: nrLocation" size="278" pos="471" show="" value="">
              <field name="json.object" showname="Object" size="264" pos="485" show="" value="">
                <field name="json.member" showname="Member Key: tai" size="92" pos="490" show="" value="">
                  <field name="json.object" showname="Object" size="85" pos="497" show="" value="">
                    <field name="json.member" showname="Member Key: plmnId" size="53" pos="503" show="" value="">
                      <field name="json.object" showname="Object" size="43" pos="513" show="" value="">
                        <field name="json.member" showname="Member Key: mcc" size="12" pos="520" show="" value="">
                          <field name="json.value.string" showname="String value: 901" size="5" pos="527" show="901" value="2239303122"/>
                          <field name="json.key" showname="Key: mcc" size="5" pos="520" show="mcc" value="226d636322"/>
                        </field>
                        <field name="json.member" showname="Member Key: mnc" size="11" pos="539" show="" value="">
                          <field name="json.value.string" showname="String value: 70" size="4" pos="546" show="70" value="22373022"/>
                          <field name="json.key" showname="Key: mnc" size="5" pos="539" show="mnc" value="226d6e6322"/>
                        </field>
                      </field>
                      <field name="json.key" showname="Key: plmnId" size="8" pos="503" show="plmnId" value="22706c6d6e496422"/>
                    </field>
                    <field name="json.member" showname="Member Key: tac" size="15" pos="562" show="" value="">
                      <field name="json.value.string" showname="String value: 000001" size="8" pos="569" show="000001" value="2230303030303122"/>
                      <field name="json.key" showname="Key: tac" size="5" pos="562" show="tac" value="2274616322"/>
                    </field>
                  </field>
                  <field name="json.key" showname="Key: tai" size="5" pos="490" show="tai" value="2274616922"/>
                </field>
                <field name="json.member" showname="Member Key: ncgi" size="101" pos="587" show="" value="">
                  <field name="json.object" showname="Object" size="93" pos="595" show="" value="">
                    <field name="json.member" showname="Member Key: plmnId" size="53" pos="601" show="" value="">
                      <field name="json.object" showname="Object" size="43" pos="611" show="" value="">
                        <field name="json.member" showname="Member Key: mcc" size="12" pos="618" show="" value="">
                          <field name="json.value.string" showname="String value: 901" size="5" pos="625" show="901" value="2239303122"/>
                          <field name="json.key" showname="Key: mcc" size="5" pos="618" show="mcc" value="226d636322"/>
                        </field>
                        <field name="json.member" showname="Member Key: mnc" size="11" pos="637" show="" value="">
                          <field name="json.value.string" showname="String value: 70" size="4" pos="644" show="70" value="22373022"/>
                          <field name="json.key" showname="Key: mnc" size="5" pos="637" show="mnc" value="226d6e6322"/>
                        </field>
                      </field>
                      <field name="json.key" showname="Key: plmnId" size="8" pos="601" show="plmnId" value="22706c6d6e496422"/>
                    </field>
                    <field name="json.member" showname="Member Key: nrCellId" size="23" pos="660" show="" value="">
                      <field name="json.value.string" showname="String value: 000000010" size="11" pos="672" show="000000010" value="2230303030303030313022"/>
                      <field name="json.key" showname="Key: nrCellId" size="10" pos="660" show="nrCellId" value="226e7243656c6c496422"/>
                    </field>
                  </field>
                  <field name="json.key" showname="Key: ncgi" size="6" pos="587" show="ncgi" value="226e63676922"/>
                </field>
                <field name="json.member" showname="Member Key: ueLocationTimestamp" size="52" pos="693" show="" value="">
                  <field name="json.value.string" showname="String value: 2023-05-23T20:24:04.797285Z" size="29" pos="716" show="2023-05-23T20:24:04.797285Z" value="22323032332d30352d32335432303a32343a30342e3739373238355a22"/>
                  <field name="json.key" showname="Key: ueLocationTimestamp" size="21" pos="693" show="ueLocationTimestamp" value="2275654c6f636174696f6e54696d657374616d7022"/>
                </field>
              </field>
              <field name="json.key" showname="Key: nrLocation" size="12" pos="471" show="nrLocation" value="226e724c6f636174696f6e22"/>
            </field>
          </field>
          <field name="json.key" showname="Key: userLoc" size="9" pos="456" show="userLoc" value="22757365724c6f6322"/>
        </field>
        <field name="json.member" showname="Member Key: timeZone" size="20" pos="755" show="" value="">
          <field name="json.value.string" showname="String value: +02:00" size="8" pos="767" show="+02:00" value="222b30323a303022"/>
          <field name="json.key" showname="Key: timeZone" size="10" pos="755" show="timeZone" value="2274696d655a6f6e6522"/>
        </field>
        <field name="json.member" showname="Member Key: servingPlmn" size="49" pos="778" show="" value="">
          <field name="json.object" showname="Object" size="34" pos="793" show="" value="">
            <field name="json.member" showname="Member Key: mcc" size="12" pos="797" show="" value="">
              <field name="json.value.string" showname="String value: 901" size="5" pos="804" show="901" value="2239303122"/>
              <field name="json.key" showname="Key: mcc" size="5" pos="797" show="mcc" value="226d636322"/>
            </field>
            <field name="json.member" showname="Member Key: mnc" size="11" pos="813" show="" value="">
              <field name="json.value.string" showname="String value: 70" size="4" pos="820" show="70" value="22373022"/>
              <field name="json.key" showname="Key: mnc" size="5" pos="813" show="mnc" value="226d6e6322"/>
            </field>
          </field>
          <field name="json.key" showname="Key: servingPlmn" size="13" pos="778" show="servingPlmn" value="2273657276696e67506c6d6e22"/>
        </field>
        <field name="json.member" showname="Member Key: ratType" size="15" pos="830" show="" value="">
          <field name="json.value.string" showname="String value: NR" size="4" pos="841" show="NR" value="224e5222"/>
          <field name="json.key" showname="Key: ratType" size="9" pos="830" show="ratType" value="227261745479706522"/>
        </field>
        <field name="json.member" showname="Member Key: ueAmbr" size="71" pos="848" show="" value="">
          <field name="json.object" showname="Object" size="61" pos="858" show="" value="">
            <field name="json.member" showname="Member Key: uplink" size="24" pos="862" show="" value="">
              <field name="json.value.string" showname="String value: 1048576 Kbps" size="14" pos="872" show="1048576 Kbps" value="2231303438353736204b62707322"/>
              <field name="json.key" showname="Key: uplink" size="8" pos="862" show="uplink" value="2275706c696e6b22"/>
            </field>
            <field name="json.member" showname="Member Key: downlink" size="26" pos="890" show="" value="">
              <field name="json.value.string" showname="String value: 1048576 Kbps" size="14" pos="902" show="1048576 Kbps" value="2231303438353736204b62707322"/>
              <field name="json.key" showname="Key: downlink" size="10" pos="890" show="downlink" value="22646f776e6c696e6b22"/>
            </field>
          </field>
          <field name="json.key" showname="Key: ueAmbr" size="8" pos="848" show="ueAmbr" value="227565416d627222"/>
        </field>
        <field name="json.member" showname="Member Key: allowedSnssais" size="56" pos="922" show="" value="">
          <field name="json.array" showname="Array" size="38" pos="940" show="" value="">
            <field name="json.object" showname="Object" size="36" pos="941" show="" value="">
              <field name="json.member" showname="Member Key: sst" size="8" pos="946" show="" value="">
                <field name="json.value.number" showname="Number value: 1" size="1" pos="953" show="1" value="31"/>
                <field name="json.key" showname="Key: sst" size="5" pos="946" show="sst" value="2273737422"/>
              </field>
              <field name="json.member" showname="Member Key: sd" size="14" pos="959" show="" value="">
                <field name="json.value.string" showname="String value: 000001" size="8" pos="965" show="000001" value="2230303030303122"/>
                <field name="json.key" showname="Key: sd" size="4" pos="959" show="sd" value="22736422"/>
              </field>
            </field>
          </field>
          <field name="json.key" showname="Key: allowedSnssais" size="16" pos="922" show="allowedSnssais" value="22616c6c6f776564536e737361697322"/>
        </field>
        <field name="json.member" showname="Member Key: guami" size="84" pos="981" show="" value="">
          <field name="json.object" showname="Object" size="75" pos="990" show="" value="">
            <field name="json.member" showname="Member Key: plmnId" size="47" pos="994" show="" value="">
              <field name="json.object" showname="Object" size="37" pos="1004" show="" value="">
                <field name="json.member" showname="Member Key: mcc" size="12" pos="1009" show="" value="">
                  <field name="json.value.string" showname="String value: 901" size="5" pos="1016" show="901" value="2239303122"/>
                  <field name="json.key" showname="Key: mcc" size="5" pos="1009" show="mcc" value="226d636322"/>
                </field>
                <field name="json.member" showname="Member Key: mnc" size="11" pos="1026" show="" value="">
                  <field name="json.value.string" showname="String value: 70" size="4" pos="1033" show="70" value="22373022"/>
                  <field name="json.key" showname="Key: mnc" size="5" pos="1026" show="mnc" value="226d6e6322"/>
                </field>
              </field>
              <field name="json.key" showname="Key: plmnId" size="8" pos="994" show="plmnId" value="22706c6d6e496422"/>
            </field>
            <field name="json.member" showname="Member Key: amfId" size="17" pos="1045" show="" value="">
              <field name="json.value.string" showname="String value: 020040" size="8" pos="1054" show="020040" value="2230323030343022"/>
              <field name="json.key" showname="Key: amfId" size="7" pos="1045" show="amfId" value="22616d66496422"/>
            </field>
          </field>
          <field name="json.key" showname="Key: guami" size="7" pos="981" show="guami" value="226775616d6922"/>
        </field>
        <field name="json.member" showname="Member Key: serviceName" size="30" pos="1068" show="" value="">
          <field name="json.value.string" showname="String value: namf-callback" size="15" pos="1083" show="namf-callback" value="226e616d662d63616c6c6261636b22"/>
          <field name="json.key" showname="Key: serviceName" size="13" pos="1068" show="serviceName" value="22736572766963654e616d6522"/>
        </field>
        <field name="json.member" showname="Member Key: suppFeat" size="15" pos="1101" show="" value="">
          <field name="json.value.string" showname="String value: 4" size="3" pos="1113" show="4" value="223422"/>
          <field name="json.key" showname="Key: suppFeat" size="10" pos="1101" show="suppFeat" value="22737570704665617422"/>
        </field>
      </field>
    </proto>
  </proto>
</packet>


<packet>
  <proto name="geninfo" pos="0" showname="General information" size="120">
    <field name="num" pos="0" show="13" showname="Number" value="d" size="120"/>
    <field name="len" pos="0" show="120" showname="Frame Length" value="78" size="120"/>
    <field name="caplen" pos="0" show="120" showname="Captured Length" value="78" size="120"/>
    <field name="timestamp" pos="0" show="May 23, 2023 23:39:12.076329257 CEST" showname="Captured Time" value="1684877952.076329257" size="120"/>
  </proto>
  <proto name="frame" showname="Frame 13: 120 bytes on wire (960 bits), 120 bytes captured (960 bits) on interface veth_pcf, id 0" size="120" pos="0">
    <field name="filtered" value="frame" />
  </proto>
  <proto name="eth" showname="Ethernet II, Src: 8a:0b:87:b7:1e:40, Dst: 52:d4:2e:8b:e5:24" size="14" pos="0">
    <field name="filtered" value="eth" />
  </proto>
  <proto name="ip" showname="Internet Protocol Version 4, Src: 10.0.10.1, Dst: 10.0.16.1" size="20" pos="14">
    <field name="filtered" value="ip" />
  </proto>
  <proto name="tcp" showname="Transmission Control Protocol, Src Port: 52326, Dst Port: 7777, Seq: 376995344, Ack: 2858130051, Len: 54" size="32" pos="34">
    <field name="tcp.srcport" showname="Source Port: 52326" size="2" pos="34" show="52326" value="cc66"/>
    <field name="tcp.dstport" showname="Destination Port: 7777" size="2" pos="36" show="7777" value="1e61"/>
    <field name="tcp.port" showname="Source or Destination Port: 52326" hide="yes" size="2" pos="34" show="52326" value="cc66"/>
    <field name="tcp.port" showname="Source or Destination Port: 7777" hide="yes" size="2" pos="36" show="7777" value="1e61"/>
    <field name="tcp.stream" showname="Stream index: 2" size="0" pos="34" show="2"/>
    <field name="tcp.len" showname="TCP Segment Len: 54" size="1" pos="46" show="54" value="80"/>
    <field name="tcp.seq" showname="Sequence number: 376995344" size="4" pos="38" show="376995344" value="16787e10"/>
    <field name="tcp.seq_raw" showname="Sequence number (raw): 376995344" hide="yes" size="4" pos="38" show="376995344" value="16787e10"/>
    <field name="tcp.nxtseq" showname="Next sequence number: 376995398" size="0" pos="34" show="376995398"/>
    <field name="tcp.ack" showname="Acknowledgment number: 2858130051" size="4" pos="42" show="2858130051" value="aa5b9a83"/>
    <field name="tcp.ack_raw" showname="Acknowledgment number (raw): 2858130051" hide="yes" size="4" pos="42" show="2858130051" value="aa5b9a83"/>
    <field name="tcp.hdr_len" showname="1000 .... = Header Length: 32 bytes (8)" size="1" pos="46" show="32" value="80"/>
    <field name="tcp.flags" showname="Flags: 0x018 (PSH, ACK)" size="2" pos="46" show="0x00000018" value="18" unmaskedvalue="8018">
      <field name="tcp.flags.res" showname="000. .... .... = Reserved: Not set" size="1" pos="46" show="0" value="0" unmaskedvalue="80"/>
      <field name="tcp.flags.ns" showname="...0 .... .... = Nonce: Not set" size="1" pos="46" show="0" value="0" unmaskedvalue="80"/>
      <field name="tcp.flags.cwr" showname=".... 0... .... = Congestion Window Reduced (CWR): Not set" size="1" pos="47" show="0" value="0" unmaskedvalue="18"/>
      <field name="tcp.flags.ecn" showname=".... .0.. .... = ECN-Echo: Not set" size="1" pos="47" show="0" value="0" unmaskedvalue="18"/>
      <field name="tcp.flags.urg" showname=".... ..0. .... = Urgent: Not set" size="1" pos="47" show="0" value="0" unmaskedvalue="18"/>
      <field name="tcp.flags.ack" showname=".... ...1 .... = Acknowledgment: Set" size="1" pos="47" show="1" value="1" unmaskedvalue="18"/>
      <field name="tcp.flags.push" showname=".... .... 1... = Push: Set" size="1" pos="47" show="1" value="1" unmaskedvalue="18"/>
      <field name="tcp.flags.reset" showname=".... .... .0.. = Reset: Not set" size="1" pos="47" show="0" value="0" unmaskedvalue="18"/>
      <field name="tcp.flags.syn" showname=".... .... ..0. = Syn: Not set" size="1" pos="47" show="0" value="0" unmaskedvalue="18"/>
      <field name="tcp.flags.fin" showname=".... .... ...0 = Fin: Not set" size="1" pos="47" show="0" value="0" unmaskedvalue="18"/>
      <field name="tcp.flags.str" showname="TCP Flags: \xc2\xb7\xc2\xb7\xc2\xb7\xc2\xb7\xc2\xb7\xc2\xb7\xc2\xb7AP\xc2\xb7\xc2\xb7\xc2\xb7" size="2" pos="46" show="\xc2\xb7\xc2\xb7\xc2\xb7\xc2\xb7\xc2\xb7\xc2\xb7\xc2\xb7AP\xc2\xb7\xc2\xb7\xc2\xb7" value="8018"/>
    </field>
    <field name="tcp.window_size_value" showname="Window size value: 502" size="2" pos="48" show="502" value="01f6"/>
    <field name="tcp.window_size" showname="Calculated window size: 502" size="2" pos="48" show="502" value="01f6"/>
    <field name="tcp.window_size_scalefactor" showname="Window size scaling factor: -1 (unknown)" size="2" pos="48" show="-1" value="01f6"/>
    <field name="tcp.checksum" showname="Checksum: 0x2e5e [unverified]" size="2" pos="50" show="0x00002e5e" value="2e5e"/>
    <field name="tcp.checksum.status" showname="Checksum Status: Unverified" size="0" pos="50" show="2"/>
    <field name="tcp.urgent_pointer" showname="Urgent pointer: 0" size="2" pos="52" show="0" value="0000"/>
    <field name="tcp.options" showname="Options: (12 bytes), No-Operation (NOP), No-Operation (NOP), Timestamps" size="12" pos="54" show="01:01:08:0a:02:16:ed:70:1d:cb:4f:d8" value="0101080a0216ed701dcb4fd8">
      <field name="tcp.options.nop" showname="TCP Option - No-Operation (NOP)" size="1" pos="54" show="01" value="01">
        <field name="tcp.option_kind" showname="Kind: No-Operation (1)" size="1" pos="54" show="1" value="01"/>
      </field>
      <field name="tcp.options.nop" showname="TCP Option - No-Operation (NOP)" size="1" pos="55" show="01" value="01">
        <field name="tcp.option_kind" showname="Kind: No-Operation (1)" size="1" pos="55" show="1" value="01"/>
      </field>
      <field name="tcp.options.timestamp" showname="TCP Option - Timestamps: TSval 35057008, TSecr 499863512" size="10" pos="56" show="08:0a:02:16:ed:70:1d:cb:4f:d8" value="080a0216ed701dcb4fd8">
        <field name="tcp.option_kind" showname="Kind: Time Stamp Option (8)" size="1" pos="56" show="8" value="08"/>
        <field name="tcp.option_len" showname="Length: 10" size="1" pos="57" show="10" value="0a"/>
        <field name="tcp.options.timestamp.tsval" showname="Timestamp value: 35057008" size="4" pos="58" show="35057008" value="0216ed70"/>
        <field name="tcp.options.timestamp.tsecr" showname="Timestamp echo reply: 499863512" size="4" pos="62" show="499863512" value="1dcb4fd8"/>
      </field>
    </field>
    <field name="" show="Timestamps" size="0" pos="34">
      <field name="tcp.time_relative" showname="Time since first frame in this TCP stream: 0.000000000 seconds" size="0" pos="34" show="0.000000000"/>
      <field name="tcp.time_delta" showname="Time since previous frame in this TCP stream: 0.000000000 seconds" size="0" pos="34" show="0.000000000"/>
    </field>
    <field name="tcp.payload" showname="TCP payload (54 bytes)" size="54" pos="66" show="00:00:2d:01:05:00:00:00:03:82:04:a7:62:ab:64:b1:69:2c:63:b8:58:ac:f4:18:9e:96:90:69:1b:16:95:0c:1a:94:19:67:c0:17:40:00:00:00:00:00:06:98:1d:2b:48:34:8f:86:bf:be" value="00002d0105000000038204a762ab64b1692c63b858acf4189e9690691b16950c1a941967c01740000000000006981d2b48348f86bfbe"/>
    <field name="tcp.pdu.size" showname="PDU Size: 54" size="54" pos="66" show="54" value="00002d0105000000038204a762ab64b1692c63b858acf4189e9690691b16950c1a941967c01740000000000006981d2b48348f86bfbe"/>
  </proto>
  <proto name="http2" showname="HyperText Transfer Protocol 2" size="54" pos="66">
    <field name="http2.stream" showname="Stream: HEADERS, Stream ID: 3, Length 45, GET /nudr-dr/v1/policy-data/ues/imsi-901700000000004/am-data" size="54" pos="66" show="" value="">
      <field name="http2.length" showname="Length: 45" size="3" pos="66" show="45" value="00002d"/>
      <field name="http2.type" showname="Type: HEADERS (1)" size="1" pos="69" show="1" value="01"/>
      <field name="http2.flags" showname="Flags: 0x05" size="1" pos="70" show="0x00000005" value="05">
        <field name="http2.flags.end_stream" showname=".... ...1 = End Stream: True" size="1" pos="70" show="1" value="1" unmaskedvalue="05"/>
        <field name="http2.flags.eh" showname=".... .1.. = End Headers: True" size="1" pos="70" show="1" value="1" unmaskedvalue="05"/>
        <field name="http2.flags.padded" showname=".... 0... = Padded: False" size="1" pos="70" show="0" value="0" unmaskedvalue="05"/>
        <field name="http2.flags.priority" showname="..0. .... = Priority: False" size="1" pos="70" show="0" value="0" unmaskedvalue="05"/>
        <field name="http2.flags.unused_headers" showname="00.0 ..0. = Unused: 0x00" size="1" pos="70" show="0x00000000" value="0" unmaskedvalue="05"/>
      </field>
      <field name="http2.r" showname="0... .... .... .... .... .... .... .... = Reserved: 0x0" size="4" pos="71" show="0x00000000" value="0" unmaskedvalue="00000003"/>
      <field name="http2.streamid" showname=".000 0000 0000 0000 0000 0000 0000 0011 = Stream Identifier: 3" size="4" pos="71" show="3" value="3" unmaskedvalue="00000003"/>
      <field name="http2.pad_length" showname="Pad Length: 0" size="0" pos="75" show="0"/>
      <field name="http2.headers" showname="Header Block Fragment: 8204a762ab64b1692c63b858acf4189e9690691b16950c1a\xe2\x80\xa6" size="45" pos="75" show="82:04:a7:62:ab:64:b1:69:2c:63:b8:58:ac:f4:18:9e:96:90:69:1b:16:95:0c:1a:94:19:67:c0:17:40:00:00:00:00:00:06:98:1d:2b:48:34:8f:86:bf:be" value="8204a762ab64b1692c63b858acf4189e9690691b16950c1a941967c01740000000000006981d2b48348f86bfbe"/>
      <field name="http2.header.length" showname="Header Length: 106" size="1" pos="66" show="106" value="00"/>
      <field name="http2.header.count" showname="Header Count: 3" size="1" pos="66" show="3" value="00"/>
      <field name="http2.header" showname="Header: :method: GET" size="1" pos="75" show="" value="">
        <field name="http2.header.name.length" showname="Name Length: 7" size="4" pos="75" show="7" value="00000007"/>
        <field name="http2.header.name" showname="Name: :method" size="7" pos="79" show=":method" value="3a6d6574686f64"/>
        <field name="http2.header.value.length" showname="Value Length: 3" size="4" pos="86" show="3" value="00000003"/>
        <field name="http2.header.value" showname="Value: GET" size="3" pos="90" show="GET" value="474554"/>
        <field name="http2.headers.method" showname=":method: GET" size="3" pos="90" show="GET" value="474554"/>
        <field name="http2.header.unescaped" showname="Unescaped: GET" size="3" pos="90" show="GET" value="474554"/>
        <field name="http2.header.repr" showname="Representation: Indexed Header Field" size="1" pos="75" show="Indexed Header Field" value="82"/>
        <field name="http2.header.index" showname="Index: 2" size="1" pos="75" show="2" value="82"/>
      </field>
      <field name="http2.header" showname="Header: :path: /nudr-dr/v1/policy-data/ues/imsi-901700000000004/am-data" size="41" pos="76" show="" value="">
        <field name="http2.header.name.length" showname="Name Length: 5" size="4" pos="94" show="5" value="00000005"/>
        <field name="http2.header.name" showname="Name: :path" size="5" pos="98" show=":path" value="3a70617468"/>
        <field name="http2.header.value.length" showname="Value Length: 56" size="4" pos="103" show="56" value="00000038"/>
        <field name="http2.header.value" showname="Value: /nudr-dr/v1/policy-data/ues/imsi-901700000000004/am-data" size="56" pos="107" show="/nudr-dr/v1/policy-data/ues/imsi-901700000000004/am-data" value="2f6e7564722d64722f76312f706f6c6963792d646174612f7565732f696d73692d3930313730303030303030303030342f616d2d64617461"/>
        <field name="http2.headers.path" showname=":path: /nudr-dr/v1/policy-data/ues/imsi-901700000000004/am-data" size="56" pos="107" show="/nudr-dr/v1/policy-data/ues/imsi-901700000000004/am-data" value="2f6e7564722d64722f76312f706f6c6963792d646174612f7565732f696d73692d3930313730303030303030303030342f616d2d64617461"/>
        <field name="http2.header.unescaped" showname="Unescaped: /nudr-dr/v1/policy-data/ues/imsi-901700000000004/am-data" size="56" pos="107" show="/nudr-dr/v1/policy-data/ues/imsi-901700000000004/am-data" value="2f6e7564722d64722f76312f706f6c6963792d646174612f7565732f696d73692d3930313730303030303030303030342f616d2d64617461"/>
        <field name="http2.header.repr" showname="Representation: Literal Header Field without Indexing - Indexed Name" size="1" pos="76" show="Literal Header Field without Indexing - Indexed Name" value="04"/>
        <field name="http2.header.index" showname="Index: 4" size="1" pos="76" show="4" value="04"/>
      </field>
      <field name="http2.header" showname="Header: :scheme: http" size="1" pos="117" show="" value="">
        <field name="http2.header.name.length" showname="Name Length: 7" size="4" pos="204" show="7" value="00000007"/>
        <field name="http2.header.name" showname="Name: :scheme" size="7" pos="208" show=":scheme" value="3a736368656d65"/>
        <field name="http2.header.value.length" showname="Value Length: 4" size="4" pos="215" show="4" value="00000004"/>
        <field name="http2.header.value" showname="Value: http" size="4" pos="219" show="http" value="68747470"/>
        <field name="http2.headers.scheme" showname=":scheme: http" size="4" pos="219" show="http" value="68747470"/>
        <field name="http2.header.unescaped" showname="Unescaped: http" size="4" pos="219" show="http" value="68747470"/>
        <field name="http2.header.repr" showname="Representation: Indexed Header Field" size="1" pos="117" show="Indexed Header Field" value="86"/>
        <field name="http2.header.index" showname="Index: 6" size="1" pos="117" show="6" value="86"/>
      </field>
    </field>
  </proto>
</packet>


<packet>
  <proto name="geninfo" pos="0" showname="General information" size="106">
    <field name="num" pos="0" show="14" showname="Number" value="e" size="106"/>
    <field name="len" pos="0" show="106" showname="Frame Length" value="6a" size="106"/>
    <field name="caplen" pos="0" show="106" showname="Captured Length" value="6a" size="106"/>
    <field name="timestamp" pos="0" show="May 23, 2023 23:39:12.089239016 CEST" showname="Captured Time" value="1684877952.089239016" size="106"/>
  </proto>
  <proto name="frame" showname="Frame 14: 106 bytes on wire (848 bits), 106 bytes captured (848 bits) on interface veth_pcf, id 0" size="106" pos="0">
    <field name="filtered" value="frame" />
  </proto>
  <proto name="eth" showname="Ethernet II, Src: 52:d4:2e:8b:e5:24, Dst: 8a:0b:87:b7:1e:40" size="14" pos="0">
    <field name="filtered" value="eth" />
  </proto>
  <proto name="ip" showname="Internet Protocol Version 4, Src: 10.0.16.1, Dst: 10.0.10.1" size="20" pos="14">
    <field name="filtered" value="ip" />
  </proto>
  <proto name="tcp" showname="Transmission Control Protocol, Src Port: 7777, Dst Port: 52326, Seq: 2858130051, Ack: 376995398, Len: 40" size="32" pos="34">
    <field name="tcp.srcport" showname="Source Port: 7777" size="2" pos="34" show="7777" value="1e61"/>
    <field name="tcp.dstport" showname="Destination Port: 52326" size="2" pos="36" show="52326" value="cc66"/>
    <field name="tcp.port" showname="Source or Destination Port: 7777" hide="yes" size="2" pos="34" show="7777" value="1e61"/>
    <field name="tcp.port" showname="Source or Destination Port: 52326" hide="yes" size="2" pos="36" show="52326" value="cc66"/>
    <field name="tcp.stream" showname="Stream index: 2" size="0" pos="34" show="2"/>
    <field name="tcp.len" showname="TCP Segment Len: 40" size="1" pos="46" show="40" value="80"/>
    <field name="tcp.seq" showname="Sequence number: 2858130051" size="4" pos="38" show="2858130051" value="aa5b9a83"/>
    <field name="tcp.seq_raw" showname="Sequence number (raw): 2858130051" hide="yes" size="4" pos="38" show="2858130051" value="aa5b9a83"/>
    <field name="tcp.nxtseq" showname="Next sequence number: 2858130091" size="0" pos="34" show="2858130091"/>
    <field name="tcp.ack" showname="Acknowledgment number: 376995398" size="4" pos="42" show="376995398" value="16787e46"/>
    <field name="tcp.ack_raw" showname="Acknowledgment number (raw): 376995398" hide="yes" size="4" pos="42" show="376995398" value="16787e46"/>
    <field name="tcp.hdr_len" showname="1000 .... = Header Length: 32 bytes (8)" size="1" pos="46" show="32" value="80"/>
    <field name="tcp.flags" showname="Flags: 0x018 (PSH, ACK)" size="2" pos="46" show="0x00000018" value="18" unmaskedvalue="8018">
      <field name="tcp.flags.res" showname="000. .... .... = Reserved: Not set" size="1" pos="46" show="0" value="0" unmaskedvalue="80"/>
      <field name="tcp.flags.ns" showname="...0 .... .... = Nonce: Not set" size="1" pos="46" show="0" value="0" unmaskedvalue="80"/>
      <field name="tcp.flags.cwr" showname=".... 0... .... = Congestion Window Reduced (CWR): Not set" size="1" pos="47" show="0" value="0" unmaskedvalue="18"/>
      <field name="tcp.flags.ecn" showname=".... .0.. .... = ECN-Echo: Not set" size="1" pos="47" show="0" value="0" unmaskedvalue="18"/>
      <field name="tcp.flags.urg" showname=".... ..0. .... = Urgent: Not set" size="1" pos="47" show="0" value="0" unmaskedvalue="18"/>
      <field name="tcp.flags.ack" showname=".... ...1 .... = Acknowledgment: Set" size="1" pos="47" show="1" value="1" unmaskedvalue="18"/>
      <field name="tcp.flags.push" showname=".... .... 1... = Push: Set" size="1" pos="47" show="1" value="1" unmaskedvalue="18"/>
      <field name="tcp.flags.reset" showname=".... .... .0.. = Reset: Not set" size="1" pos="47" show="0" value="0" unmaskedvalue="18"/>
      <field name="tcp.flags.syn" showname=".... .... ..0. = Syn: Not set" size="1" pos="47" show="0" value="0" unmaskedvalue="18"/>
      <field name="tcp.flags.fin" showname=".... .... ...0 = Fin: Not set" size="1" pos="47" show="0" value="0" unmaskedvalue="18"/>
      <field name="tcp.flags.str" showname="TCP Flags: \xc2\xb7\xc2\xb7\xc2\xb7\xc2\xb7\xc2\xb7\xc2\xb7\xc2\xb7AP\xc2\xb7\xc2\xb7\xc2\xb7" size="2" pos="46" show="\xc2\xb7\xc2\xb7\xc2\xb7\xc2\xb7\xc2\xb7\xc2\xb7\xc2\xb7AP\xc2\xb7\xc2\xb7\xc2\xb7" value="8018"/>
    </field>
    <field name="tcp.window_size_value" showname="Window size value: 509" size="2" pos="48" show="509" value="01fd"/>
    <field name="tcp.window_size" showname="Calculated window size: 509" size="2" pos="48" show="509" value="01fd"/>
    <field name="tcp.window_size_scalefactor" showname="Window size scaling factor: -1 (unknown)" size="2" pos="48" show="-1" value="01fd"/>
    <field name="tcp.checksum" showname="Checksum: 0x2e50 [unverified]" size="2" pos="50" show="0x00002e50" value="2e50"/>
    <field name="tcp.checksum.status" showname="Checksum Status: Unverified" size="0" pos="50" show="2"/>
    <field name="tcp.urgent_pointer" showname="Urgent pointer: 0" size="2" pos="52" show="0" value="0000"/>
    <field name="tcp.options" showname="Options: (12 bytes), No-Operation (NOP), No-Operation (NOP), Timestamps" size="12" pos="54" show="01:01:08:0a:1d:cc:4a:c3:02:16:ed:70" value="0101080a1dcc4ac30216ed70">
      <field name="tcp.options.nop" showname="TCP Option - No-Operation (NOP)" size="1" pos="54" show="01" value="01">
        <field name="tcp.option_kind" showname="Kind: No-Operation (1)" size="1" pos="54" show="1" value="01"/>
      </field>
      <field name="tcp.options.nop" showname="TCP Option - No-Operation (NOP)" size="1" pos="55" show="01" value="01">
        <field name="tcp.option_kind" showname="Kind: No-Operation (1)" size="1" pos="55" show="1" value="01"/>
      </field>
      <field name="tcp.options.timestamp" showname="TCP Option - Timestamps: TSval 499927747, TSecr 35057008" size="10" pos="56" show="08:0a:1d:cc:4a:c3:02:16:ed:70" value="080a1dcc4ac30216ed70">
        <field name="tcp.option_kind" showname="Kind: Time Stamp Option (8)" size="1" pos="56" show="8" value="08"/>
        <field name="tcp.option_len" showname="Length: 10" size="1" pos="57" show="10" value="0a"/>
        <field name="tcp.options.timestamp.tsval" showname="Timestamp value: 499927747" size="4" pos="58" show="499927747" value="1dcc4ac3"/>
        <field name="tcp.options.timestamp.tsecr" showname="Timestamp echo reply: 35057008" size="4" pos="62" show="35057008" value="0216ed70"/>
      </field>
    </field>
    <field name="" show="Timestamps" size="0" pos="34">
      <field name="tcp.time_relative" showname="Time since first frame in this TCP stream: 0.012909759 seconds" size="0" pos="34" show="0.012909759"/>
      <field name="tcp.time_delta" showname="Time since previous frame in this TCP stream: 0.012909759 seconds" size="0" pos="34" show="0.012909759"/>
    </field>
    <field name="tcp.payload" showname="TCP payload (40 bytes)" size="40" pos="66" show="00:00:1f:01:04:00:00:00:03:88:c0:61:96:df:69:7e:94:13:2a:68:1f:a5:04:01:32:a0:83:71:97:ee:04:4a:62:d1:bf:0f:0d:01:33:bf" value="00001f01040000000388c06196df697e94132a681fa5040132a0837197ee044a62d1bf0f0d0133bf"/>
    <field name="tcp.pdu.size" showname="PDU Size: 40" size="40" pos="66" show="40" value="00001f01040000000388c06196df697e94132a681fa5040132a0837197ee044a62d1bf0f0d0133bf"/>
  </proto>
  <proto name="http2" showname="HyperText Transfer Protocol 2" size="40" pos="66">
    <field name="http2.stream" showname="Stream: HEADERS, Stream ID: 3, Length 31, 200 OK" size="40" pos="66" show="" value="">
      <field name="http2.length" showname="Length: 31" size="3" pos="66" show="31" value="00001f"/>
      <field name="http2.type" showname="Type: HEADERS (1)" size="1" pos="69" show="1" value="01"/>
      <field name="http2.flags" showname="Flags: 0x04" size="1" pos="70" show="0x00000004" value="04">
        <field name="http2.flags.end_stream" showname=".... ...0 = End Stream: False" size="1" pos="70" show="0" value="0" unmaskedvalue="04"/>
        <field name="http2.flags.eh" showname=".... .1.. = End Headers: True" size="1" pos="70" show="1" value="1" unmaskedvalue="04"/>
        <field name="http2.flags.padded" showname=".... 0... = Padded: False" size="1" pos="70" show="0" value="0" unmaskedvalue="04"/>
        <field name="http2.flags.priority" showname="..0. .... = Priority: False" size="1" pos="70" show="0" value="0" unmaskedvalue="04"/>
        <field name="http2.flags.unused_headers" showname="00.0 ..0. = Unused: 0x00" size="1" pos="70" show="0x00000000" value="0" unmaskedvalue="04"/>
      </field>
      <field name="http2.r" showname="0... .... .... .... .... .... .... .... = Reserved: 0x0" size="4" pos="71" show="0x00000000" value="0" unmaskedvalue="00000003"/>
      <field name="http2.streamid" showname=".000 0000 0000 0000 0000 0000 0000 0011 = Stream Identifier: 3" size="4" pos="71" show="3" value="3" unmaskedvalue="00000003"/>
      <field name="http2.pad_length" showname="Pad Length: 0" size="0" pos="75" show="0"/>
      <field name="http2.headers" showname="Header Block Fragment: 88c06196df697e94132a681fa5040132a0837197ee044a62\xe2\x80\xa6" size="31" pos="75" show="88:c0:61:96:df:69:7e:94:13:2a:68:1f:a5:04:01:32:a0:83:71:97:ee:04:4a:62:d1:bf:0f:0d:01:33:bf" value="88c06196df697e94132a681fa5040132a0837197ee044a62d1bf0f0d0133bf"/>
      <field name="http2.header.length" showname="Header Length: 18" size="1" pos="66" show="18" value="00"/>
      <field name="http2.header.count" showname="Header Count: 1" size="1" pos="66" show="1" value="00"/>
      <field name="http2.header" showname="Header: :status: 200 OK" size="1" pos="75" show="" value="">
        <field name="http2.header.name.length" showname="Name Length: 7" size="4" pos="75" show="7" value="00000007"/>
        <field name="http2.header.name" showname="Name: :status" size="7" pos="79" show=":status" value="3a737461747573"/>
        <field name="http2.header.value.length" showname="Value Length: 3" size="4" pos="86" show="3" value="00000003"/>
        <field name="http2.header.value" showname="Value: 200" size="3" pos="90" show="200" value="323030"/>
        <field name="http2.headers.status" showname=":status: 200" size="3" pos="90" show="200" value="323030"/>
        <field name="http2.header.unescaped" showname="Unescaped: 200" size="3" pos="90" show="200" value="323030"/>
        <field name="http2.header.repr" showname="Representation: Indexed Header Field" size="1" pos="75" show="Indexed Header Field" value="88"/>
        <field name="http2.header.index" showname="Index: 8" size="1" pos="75" show="8" value="88"/>
      </field>
    </field>
  </proto>
</packet>


<packet>
  <proto name="geninfo" pos="0" showname="General information" size="78">
    <field name="num" pos="0" show="16" showname="Number" value="10" size="78"/>
    <field name="len" pos="0" show="78" showname="Frame Length" value="4e" size="78"/>
    <field name="caplen" pos="0" show="78" showname="Captured Length" value="4e" size="78"/>
    <field name="timestamp" pos="0" show="May 23, 2023 23:39:12.089297261 CEST" showname="Captured Time" value="1684877952.089297261" size="78"/>
  </proto>
  <proto name="frame" showname="Frame 16: 78 bytes on wire (624 bits), 78 bytes captured (624 bits) on interface veth_pcf, id 0" size="78" pos="0">
    <field name="filtered" value="frame" />
  </proto>
  <proto name="eth" showname="Ethernet II, Src: 52:d4:2e:8b:e5:24, Dst: 8a:0b:87:b7:1e:40" size="14" pos="0">
    <field name="filtered" value="eth" />
  </proto>
  <proto name="ip" showname="Internet Protocol Version 4, Src: 10.0.16.1, Dst: 10.0.10.1" size="20" pos="14">
    <field name="filtered" value="ip" />
  </proto>
  <proto name="tcp" showname="Transmission Control Protocol, Src Port: 7777, Dst Port: 52326, Seq: 2858130091, Ack: 376995398, Len: 12" size="32" pos="34">
    <field name="tcp.srcport" showname="Source Port: 7777" size="2" pos="34" show="7777" value="1e61"/>
    <field name="tcp.dstport" showname="Destination Port: 52326" size="2" pos="36" show="52326" value="cc66"/>
    <field name="tcp.port" showname="Source or Destination Port: 7777" hide="yes" size="2" pos="34" show="7777" value="1e61"/>
    <field name="tcp.port" showname="Source or Destination Port: 52326" hide="yes" size="2" pos="36" show="52326" value="cc66"/>
    <field name="tcp.stream" showname="Stream index: 2" size="0" pos="34" show="2"/>
    <field name="tcp.len" showname="TCP Segment Len: 12" size="1" pos="46" show="12" value="80"/>
    <field name="tcp.seq" showname="Sequence number: 2858130091" size="4" pos="38" show="2858130091" value="aa5b9aab"/>
    <field name="tcp.seq_raw" showname="Sequence number (raw): 2858130091" hide="yes" size="4" pos="38" show="2858130091" value="aa5b9aab"/>
    <field name="tcp.nxtseq" showname="Next sequence number: 2858130103" size="0" pos="34" show="2858130103"/>
    <field name="tcp.ack" showname="Acknowledgment number: 376995398" size="4" pos="42" show="376995398" value="16787e46"/>
    <field name="tcp.ack_raw" showname="Acknowledgment number (raw): 376995398" hide="yes" size="4" pos="42" show="376995398" value="16787e46"/>
    <field name="tcp.hdr_len" showname="1000 .... = Header Length: 32 bytes (8)" size="1" pos="46" show="32" value="80"/>
    <field name="tcp.flags" showname="Flags: 0x018 (PSH, ACK)" size="2" pos="46" show="0x00000018" value="18" unmaskedvalue="8018">
      <field name="tcp.flags.res" showname="000. .... .... = Reserved: Not set" size="1" pos="46" show="0" value="0" unmaskedvalue="80"/>
      <field name="tcp.flags.ns" showname="...0 .... .... = Nonce: Not set" size="1" pos="46" show="0" value="0" unmaskedvalue="80"/>
      <field name="tcp.flags.cwr" showname=".... 0... .... = Congestion Window Reduced (CWR): Not set" size="1" pos="47" show="0" value="0" unmaskedvalue="18"/>
      <field name="tcp.flags.ecn" showname=".... .0.. .... = ECN-Echo: Not set" size="1" pos="47" show="0" value="0" unmaskedvalue="18"/>
      <field name="tcp.flags.urg" showname=".... ..0. .... = Urgent: Not set" size="1" pos="47" show="0" value="0" unmaskedvalue="18"/>
      <field name="tcp.flags.ack" showname=".... ...1 .... = Acknowledgment: Set" size="1" pos="47" show="1" value="1" unmaskedvalue="18"/>
      <field name="tcp.flags.push" showname=".... .... 1... = Push: Set" size="1" pos="47" show="1" value="1" unmaskedvalue="18"/>
      <field name="tcp.flags.reset" showname=".... .... .0.. = Reset: Not set" size="1" pos="47" show="0" value="0" unmaskedvalue="18"/>
      <field name="tcp.flags.syn" showname=".... .... ..0. = Syn: Not set" size="1" pos="47" show="0" value="0" unmaskedvalue="18"/>
      <field name="tcp.flags.fin" showname=".... .... ...0 = Fin: Not set" size="1" pos="47" show="0" value="0" unmaskedvalue="18"/>
      <field name="tcp.flags.str" showname="TCP Flags: \xc2\xb7\xc2\xb7\xc2\xb7\xc2\xb7\xc2\xb7\xc2\xb7\xc2\xb7AP\xc2\xb7\xc2\xb7\xc2\xb7" size="2" pos="46" show="\xc2\xb7\xc2\xb7\xc2\xb7\xc2\xb7\xc2\xb7\xc2\xb7\xc2\xb7AP\xc2\xb7\xc2\xb7\xc2\xb7" value="8018"/>
    </field>
    <field name="tcp.window_size_value" showname="Window size value: 509" size="2" pos="48" show="509" value="01fd"/>
    <field name="tcp.window_size" showname="Calculated window size: 509" size="2" pos="48" show="509" value="01fd"/>
    <field name="tcp.window_size_scalefactor" showname="Window size scaling factor: -1 (unknown)" size="2" pos="48" show="-1" value="01fd"/>
    <field name="tcp.checksum" showname="Checksum: 0x2e34 [unverified]" size="2" pos="50" show="0x00002e34" value="2e34"/>
    <field name="tcp.checksum.status" showname="Checksum Status: Unverified" size="0" pos="50" show="2"/>
    <field name="tcp.urgent_pointer" showname="Urgent pointer: 0" size="2" pos="52" show="0" value="0000"/>
    <field name="tcp.options" showname="Options: (12 bytes), No-Operation (NOP), No-Operation (NOP), Timestamps" size="12" pos="54" show="01:01:08:0a:1d:cc:4a:c3:02:16:ed:7d" value="0101080a1dcc4ac30216ed7d">
      <field name="tcp.options.nop" showname="TCP Option - No-Operation (NOP)" size="1" pos="54" show="01" value="01">
        <field name="tcp.option_kind" showname="Kind: No-Operation (1)" size="1" pos="54" show="1" value="01"/>
      </field>
      <field name="tcp.options.nop" showname="TCP Option - No-Operation (NOP)" size="1" pos="55" show="01" value="01">
        <field name="tcp.option_kind" showname="Kind: No-Operation (1)" size="1" pos="55" show="1" value="01"/>
      </field>
      <field name="tcp.options.timestamp" showname="TCP Option - Timestamps: TSval 499927747, TSecr 35057021" size="10" pos="56" show="08:0a:1d:cc:4a:c3:02:16:ed:7d" value="080a1dcc4ac30216ed7d">
        <field name="tcp.option_kind" showname="Kind: Time Stamp Option (8)" size="1" pos="56" show="8" value="08"/>
        <field name="tcp.option_len" showname="Length: 10" size="1" pos="57" show="10" value="0a"/>
        <field name="tcp.options.timestamp.tsval" showname="Timestamp value: 499927747" size="4" pos="58" show="499927747" value="1dcc4ac3"/>
        <field name="tcp.options.timestamp.tsecr" showname="Timestamp echo reply: 35057021" size="4" pos="62" show="35057021" value="0216ed7d"/>
      </field>
    </field>
    <field name="" show="Timestamps" size="0" pos="34">
      <field name="tcp.time_relative" showname="Time since first frame in this TCP stream: 0.012968004 seconds" size="0" pos="34" show="0.012968004"/>
      <field name="tcp.time_delta" showname="Time since previous frame in this TCP stream: 0.000044966 seconds" size="0" pos="34" show="0.000044966"/>
    </field>
    <field name="tcp.payload" showname="TCP payload (12 bytes)" size="12" pos="66" show="00:00:03:00:01:00:00:00:03:7b:0a:7d" value="0000030001000000037b0a7d"/>
    <field name="tcp.pdu.size" showname="PDU Size: 12" size="12" pos="66" show="12" value="0000030001000000037b0a7d"/>
  </proto>
  <proto name="http2" showname="HyperText Transfer Protocol 2" size="12" pos="66">
    <field name="http2.stream" showname="Stream: DATA, Stream ID: 3, Length 3" size="12" pos="66" show="" value="">
      <field name="http2.length" showname="Length: 3" size="3" pos="66" show="3" value="000003"/>
      <field name="http2.type" showname="Type: DATA (0)" size="1" pos="69" show="0" value="00"/>
      <field name="http2.flags" showname="Flags: 0x01" size="1" pos="70" show="0x00000001" value="01">
        <field name="http2.flags.end_stream" showname=".... ...1 = End Stream: True" size="1" pos="70" show="1" value="1" unmaskedvalue="01"/>
        <field name="http2.flags.padded" showname=".... 0... = Padded: False" size="1" pos="70" show="0" value="0" unmaskedvalue="01"/>
        <field name="http2.flags.unused_data" showname="0000 .00. = Unused: 0x00" size="1" pos="70" show="0x00000000" value="0" unmaskedvalue="01"/>
      </field>
      <field name="http2.r" showname="0... .... .... .... .... .... .... .... = Reserved: 0x0" size="4" pos="71" show="0x00000000" value="0" unmaskedvalue="00000003"/>
      <field name="http2.streamid" showname=".000 0000 0000 0000 0000 0000 0000 0011 = Stream Identifier: 3" size="4" pos="71" show="3" value="3" unmaskedvalue="00000003"/>
      <field name="http2.pad_length" showname="Pad Length: 0" size="0" pos="75" show="0"/>
      <field name="http2.data.data" showname="Data: 7b0a7d" size="3" pos="75" show="7b:0a:7d" value="7b0a7d"/>
    </field>
  </proto>
</packet>


<packet>
  <proto name="geninfo" pos="0" showname="General information" size="180">
    <field name="num" pos="0" show="24" showname="Number" value="18" size="180"/>
    <field name="len" pos="0" show="180" showname="Frame Length" value="b4" size="180"/>
    <field name="caplen" pos="0" show="180" showname="Captured Length" value="b4" size="180"/>
    <field name="timestamp" pos="0" show="May 23, 2023 23:39:12.099714013 CEST" showname="Captured Time" value="1684877952.099714013" size="180"/>
  </proto>
  <proto name="frame" showname="Frame 24: 180 bytes on wire (1440 bits), 180 bytes captured (1440 bits) on interface veth_pcf, id 0" size="180" pos="0">
    <field name="filtered" value="frame" />
  </proto>
  <proto name="eth" showname="Ethernet II, Src: 8a:0b:87:b7:1e:40, Dst: 52:d4:2e:8b:e5:24" size="14" pos="0">
    <field name="filtered" value="eth" />
  </proto>
  <proto name="ip" showname="Internet Protocol Version 4, Src: 10.0.10.1, Dst: 10.0.10.2" size="20" pos="14">
    <field name="filtered" value="ip" />
  </proto>
  <proto name="tcp" showname="Transmission Control Protocol, Src Port: 7777, Dst Port: 36456, Seq: 916575738, Ack: 2772083219, Len: 114" size="32" pos="34">
    <field name="tcp.srcport" showname="Source Port: 7777" size="2" pos="34" show="7777" value="1e61"/>
    <field name="tcp.dstport" showname="Destination Port: 36456" size="2" pos="36" show="36456" value="8e68"/>
    <field name="tcp.port" showname="Source or Destination Port: 7777" hide="yes" size="2" pos="34" show="7777" value="1e61"/>
    <field name="tcp.port" showname="Source or Destination Port: 36456" hide="yes" size="2" pos="36" show="36456" value="8e68"/>
    <field name="tcp.stream" showname="Stream index: 1" size="0" pos="34" show="1"/>
    <field name="tcp.len" showname="TCP Segment Len: 114" size="1" pos="46" show="114" value="80"/>
    <field name="tcp.seq" showname="Sequence number: 916575738" size="4" pos="38" show="916575738" value="36a1d5fa"/>
    <field name="tcp.seq_raw" showname="Sequence number (raw): 916575738" hide="yes" size="4" pos="38" show="916575738" value="36a1d5fa"/>
    <field name="tcp.nxtseq" showname="Next sequence number: 916575852" size="0" pos="34" show="916575852"/>
    <field name="tcp.ack" showname="Acknowledgment number: 2772083219" size="4" pos="42" show="2772083219" value="a53aa213"/>
    <field name="tcp.ack_raw" showname="Acknowledgment number (raw): 2772083219" hide="yes" size="4" pos="42" show="2772083219" value="a53aa213"/>
    <field name="tcp.hdr_len" showname="1000 .... = Header Length: 32 bytes (8)" size="1" pos="46" show="32" value="80"/>
    <field name="tcp.flags" showname="Flags: 0x018 (PSH, ACK)" size="2" pos="46" show="0x00000018" value="18" unmaskedvalue="8018">
      <field name="tcp.flags.res" showname="000. .... .... = Reserved: Not set" size="1" pos="46" show="0" value="0" unmaskedvalue="80"/>
      <field name="tcp.flags.ns" showname="...0 .... .... = Nonce: Not set" size="1" pos="46" show="0" value="0" unmaskedvalue="80"/>
      <field name="tcp.flags.cwr" showname=".... 0... .... = Congestion Window Reduced (CWR): Not set" size="1" pos="47" show="0" value="0" unmaskedvalue="18"/>
      <field name="tcp.flags.ecn" showname=".... .0.. .... = ECN-Echo: Not set" size="1" pos="47" show="0" value="0" unmaskedvalue="18"/>
      <field name="tcp.flags.urg" showname=".... ..0. .... = Urgent: Not set" size="1" pos="47" show="0" value="0" unmaskedvalue="18"/>
      <field name="tcp.flags.ack" showname=".... ...1 .... = Acknowledgment: Set" size="1" pos="47" show="1" value="1" unmaskedvalue="18"/>
      <field name="tcp.flags.push" showname=".... .... 1... = Push: Set" size="1" pos="47" show="1" value="1" unmaskedvalue="18"/>
      <field name="tcp.flags.reset" showname=".... .... .0.. = Reset: Not set" size="1" pos="47" show="0" value="0" unmaskedvalue="18"/>
      <field name="tcp.flags.syn" showname=".... .... ..0. = Syn: Not set" size="1" pos="47" show="0" value="0" unmaskedvalue="18"/>
      <field name="tcp.flags.fin" showname=".... .... ...0 = Fin: Not set" size="1" pos="47" show="0" value="0" unmaskedvalue="18"/>
      <field name="tcp.flags.str" showname="TCP Flags: \xc2\xb7\xc2\xb7\xc2\xb7\xc2\xb7\xc2\xb7\xc2\xb7\xc2\xb7AP\xc2\xb7\xc2\xb7\xc2\xb7" size="2" pos="46" show="\xc2\xb7\xc2\xb7\xc2\xb7\xc2\xb7\xc2\xb7\xc2\xb7\xc2\xb7AP\xc2\xb7\xc2\xb7\xc2\xb7" value="8018"/>
    </field>
    <field name="tcp.window_size_value" showname="Window size value: 502" size="2" pos="48" show="502" value="01f6"/>
    <field name="tcp.window_size" showname="Calculated window size: 64256" size="2" pos="48" show="64256" value="01f6"/>
    <field name="tcp.window_size_scalefactor" showname="Window size scaling factor: 128" size="2" pos="48" show="128" value="01f6"/>
    <field name="tcp.checksum" showname="Checksum: 0x289b [unverified]" size="2" pos="50" show="0x0000289b" value="289b"/>
    <field name="tcp.checksum.status" showname="Checksum Status: Unverified" size="0" pos="50" show="2"/>
    <field name="tcp.urgent_pointer" showname="Urgent pointer: 0" size="2" pos="52" show="0" value="0000"/>
    <field name="tcp.options" showname="Options: (12 bytes), No-Operation (NOP), No-Operation (NOP), Timestamps" size="12" pos="54" show="01:01:08:0a:4a:0e:46:73:66:93:61:17" value="0101080a4a0e467366936117">
      <field name="tcp.options.nop" showname="TCP Option - No-Operation (NOP)" size="1" pos="54" show="01" value="01">
        <field name="tcp.option_kind" showname="Kind: No-Operation (1)" size="1" pos="54" show="1" value="01"/>
      </field>
      <field name="tcp.options.nop" showname="TCP Option - No-Operation (NOP)" size="1" pos="55" show="01" value="01">
        <field name="tcp.option_kind" showname="Kind: No-Operation (1)" size="1" pos="55" show="1" value="01"/>
      </field>
      <field name="tcp.options.timestamp" showname="TCP Option - Timestamps: TSval 1242449523, TSecr 1720934679" size="10" pos="56" show="08:0a:4a:0e:46:73:66:93:61:17" value="080a4a0e467366936117">
        <field name="tcp.option_kind" showname="Kind: Time Stamp Option (8)" size="1" pos="56" show="8" value="08"/>
        <field name="tcp.option_len" showname="Length: 10" size="1" pos="57" show="10" value="0a"/>
        <field name="tcp.options.timestamp.tsval" showname="Timestamp value: 1242449523" size="4" pos="58" show="1242449523" value="4a0e4673"/>
        <field name="tcp.options.timestamp.tsecr" showname="Timestamp echo reply: 1720934679" size="4" pos="62" show="1720934679" value="66936117"/>
      </field>
    </field>
    <field name="" show="Timestamps" size="0" pos="34">
      <field name="tcp.time_relative" showname="Time since first frame in this TCP stream: 0.023982431 seconds" size="0" pos="34" show="0.023982431"/>
      <field name="tcp.time_delta" showname="Time since previous frame in this TCP stream: 0.000292169 seconds" size="0" pos="34" show="0.000292169"/>
    </field>
    <field name="tcp.payload" showname="TCP payload (114 bytes)" size="114" pos="66" show="00:00:69:01:04:00:00:00:0d:48:82:10:03:76:8c:d5:59:6a:6f:16:e5:3b:89:76:97:08:3f:61:96:df:69:7e:94:13:2a:68:1f:a5:04:01:32:a0:83:71:97:ee:04:4a:62:d1:bf:0f:0d:03:39:38:31:0f:1f:a9:9d:29:ae:e3:0c:04:0b:81:70:81:70:dc:75:d7:5d:62:aa:c9:2a:c3:a5:6a:cf:41:89:e9:62:1e:a4:d8:7a:18:ee:16:2b:3d:06:21:8a:86:03:5f:8b:1d:75:d0:62:0d:26:3d:4c:74:41:ea" value="00006901040000000d48821003768cd5596a6f16e53b897697083f6196df697e94132a681fa5040132a0837197ee044a62d1bf0f0d033938310f1fa99d29aee30c040b81708170dc75d75d62aac92ac3a56acf4189e9621ea4d87a18ee162b3d06218a86035f8b1d75d0620d263d4c7441ea"/>
    <field name="tcp.pdu.size" showname="PDU Size: 114" size="114" pos="66" show="114" value="00006901040000000d48821003768cd5596a6f16e53b897697083f6196df697e94132a681fa5040132a0837197ee044a62d1bf0f0d033938310f1fa99d29aee30c040b81708170dc75d75d62aac92ac3a56acf4189e9621ea4d87a18ee162b3d06218a86035f8b1d75d0620d263d4c7441ea"/>
  </proto>
  <proto name="http2" showname="HyperText Transfer Protocol 2" size="114" pos="66">
    <field name="http2.stream" showname="Stream: HEADERS, Stream ID: 13, Length 105, 201 Created" size="114" pos="66" show="" value="">
      <field name="http2.length" showname="Length: 105" size="3" pos="66" show="105" value="000069"/>
      <field name="http2.type" showname="Type: HEADERS (1)" size="1" pos="69" show="1" value="01"/>
      <field name="http2.flags" showname="Flags: 0x04" size="1" pos="70" show="0x00000004" value="04">
        <field name="http2.flags.end_stream" showname=".... ...0 = End Stream: False" size="1" pos="70" show="0" value="0" unmaskedvalue="04"/>
        <field name="http2.flags.eh" showname=".... .1.. = End Headers: True" size="1" pos="70" show="1" value="1" unmaskedvalue="04"/>
        <field name="http2.flags.padded" showname=".... 0... = Padded: False" size="1" pos="70" show="0" value="0" unmaskedvalue="04"/>
        <field name="http2.flags.priority" showname="..0. .... = Priority: False" size="1" pos="70" show="0" value="0" unmaskedvalue="04"/>
        <field name="http2.flags.unused_headers" showname="00.0 ..0. = Unused: 0x00" size="1" pos="70" show="0x00000000" value="0" unmaskedvalue="04"/>
      </field>
      <field name="http2.r" showname="0... .... .... .... .... .... .... .... = Reserved: 0x0" size="4" pos="71" show="0x00000000" value="0" unmaskedvalue="0000000d"/>
      <field name="http2.streamid" showname=".000 0000 0000 0000 0000 0000 0000 1101 = Stream Identifier: 13" size="4" pos="71" show="13" value="D" unmaskedvalue="0000000d"/>
      <field name="http2.pad_length" showname="Pad Length: 0" size="0" pos="75" show="0"/>
      <field name="http2.headers" showname="Header Block Fragment: 48821003768cd5596a6f16e53b897697083f6196df697e94\xe2\x80\xa6" size="105" pos="75" show="48:82:10:03:76:8c:d5:59:6a:6f:16:e5:3b:89:76:97:08:3f:61:96:df:69:7e:94:13:2a:68:1f:a5:04:01:32:a0:83:71:97:ee:04:4a:62:d1:bf:0f:0d:03:39:38:31:0f:1f:a9:9d:29:ae:e3:0c:04:0b:81:70:81:70:dc:75:d7:5d:62:aa:c9:2a:c3:a5:6a:cf:41:89:e9:62:1e:a4:d8:7a:18:ee:16:2b:3d:06:21:8a:86:03:5f:8b:1d:75:d0:62:0d:26:3d:4c:74:41:ea" value="48821003768cd5596a6f16e53b897697083f6196df697e94132a681fa5040132a0837197ee044a62d1bf0f0d033938310f1fa99d29aee30c040b81708170dc75d75d62aac92ac3a56acf4189e9621ea4d87a18ee162b3d06218a86035f8b1d75d0620d263d4c7441ea"/>
      <field name="http2.header.length" showname="Header Length: 223" size="1" pos="66" show="223" value="00"/>
      <field name="http2.header.count" showname="Header Count: 6" size="1" pos="66" show="6" value="00"/>
      <field name="http2.header" showname="Header: :status: 201 Created" size="4" pos="75" show="" value="">
        <field name="http2.header.name.length" showname="Name Length: 7" size="4" pos="75" show="7" value="00000007"/>
        <field name="http2.header.name" showname="Name: :status" size="7" pos="79" show=":status" value="3a737461747573"/>
        <field name="http2.header.value.length" showname="Value Length: 3" size="4" pos="86" show="3" value="00000003"/>
        <field name="http2.header.value" showname="Value: 201" size="3" pos="90" show="201" value="323031"/>
        <field name="http2.headers.status" showname=":status: 201" size="3" pos="90" show="201" value="323031"/>
        <field name="http2.header.unescaped" showname="Unescaped: 201" size="3" pos="90" show="201" value="323031"/>
        <field name="http2.header.repr" showname="Representation: Literal Header Field with Incremental Indexing - Indexed Name" size="1" pos="75" show="Literal Header Field with Incremental Indexing - Indexed Name" value="48"/>
        <field name="http2.header.index" showname="Index: 8" size="1" pos="75" show="8" value="48"/>
      </field>
      <field name="http2.header" showname="Header: server: Open5GS v2.4.10" size="14" pos="79" show="" value="">
        <field name="http2.header.name.length" showname="Name Length: 6" size="4" pos="97" show="6" value="00000006"/>
        <field name="http2.header.name" showname="Name: server" size="6" pos="101" show="server" value="736572766572"/>
        <field name="http2.header.value.length" showname="Value Length: 15" size="4" pos="107" show="15" value="0000000f"/>
        <field name="http2.header.value" showname="Value: Open5GS v2.4.10" size="15" pos="111" show="Open5GS v2.4.10" value="4f70656e3547532076322e342e3130"/>
        <field name="http2.headers.server" showname="server: Open5GS v2.4.10" size="15" pos="111" show="Open5GS v2.4.10" value="4f70656e3547532076322e342e3130"/>
        <field name="http2.header.unescaped" showname="Unescaped: Open5GS v2.4.10" size="15" pos="111" show="Open5GS v2.4.10" value="4f70656e3547532076322e342e3130"/>
        <field name="http2.header.repr" showname="Representation: Literal Header Field with Incremental Indexing - Indexed Name" size="1" pos="79" show="Literal Header Field with Incremental Indexing - Indexed Name" value="76"/>
        <field name="http2.header.index" showname="Index: 54" size="1" pos="79" show="54" value="76"/>
      </field>
      <field name="http2.header" showname="Header: date: Tue, 23 May 2023 21:39:12 GMT" size="24" pos="93" show="" value="">
        <field name="http2.header.name.length" showname="Name Length: 4" size="4" pos="140" show="4" value="00000004"/>
        <field name="http2.header.name" showname="Name: date" size="4" pos="144" show="date" value="64617465"/>
        <field name="http2.header.value.length" showname="Value Length: 29" size="4" pos="148" show="29" value="0000001d"/>
        <field name="http2.header.value" showname="Value: Tue, 23 May 2023 21:39:12 GMT" size="29" pos="152" show="Tue, 23 May 2023 21:39:12 GMT" value="5475652c203233204d617920323032332032313a33393a313220474d54"/>
        <field name="http2.headers.date" showname="date: Tue, 23 May 2023 21:39:12 GMT" size="29" pos="152" show="Tue, 23 May 2023 21:39:12 GMT" value="5475652c203233204d617920323032332032313a33393a313220474d54"/>
        <field name="http2.header.unescaped" showname="Unescaped: Tue, 23 May 2023 21:39:12 GMT" size="29" pos="152" show="Tue, 23 May 2023 21:39:12 GMT" value="5475652c203233204d617920323032332032313a33393a313220474d54"/>
        <field name="http2.header.repr" showname="Representation: Literal Header Field with Incremental Indexing - Indexed Name" size="1" pos="93" show="Literal Header Field with Incremental Indexing - Indexed Name" value="61"/>
        <field name="http2.header.index" showname="Index: 33" size="1" pos="93" show="33" value="61"/>
      </field>
      <field name="http2.header" showname="Header: content-length: 981" size="6" pos="117" show="" value="">
        <field name="http2.header.name.length" showname="Name Length: 14" size="4" pos="205" show="14" value="0000000e"/>
        <field name="http2.header.name" showname="Name: content-length" size="14" pos="209" show="content-length" value="636f6e74656e742d6c656e677468"/>
        <field name="http2.header.value.length" showname="Value Length: 3" size="4" pos="223" show="3" value="00000003"/>
        <field name="http2.header.value" showname="Value: 981" size="3" pos="227" show="981" value="393831"/>
        <field name="http2.headers.content_length" showname="content-length: 981" size="3" pos="227" show="981" value="393831"/>
        <field name="http2.header.unescaped" showname="Unescaped: 981" size="3" pos="227" show="981" value="393831"/>
        <field name="http2.header.repr" showname="Representation: Literal Header Field without Indexing - Indexed Name" size="1" pos="117" show="Literal Header Field without Indexing - Indexed Name" value="0f"/>
        <field name="http2.header.index" showname="Index: 28" size="1" pos="117" show="28" value="0f"/>
      </field>
      <field name="http2.header" showname="Header: location: http://10.0.10.1:7777/npcf-am-policy-control/v1/policies/1" size="44" pos="123" show="" value="">
        <field name="http2.header.name.length" showname="Name Length: 8" size="4" pos="236" show="8" value="00000008"/>
        <field name="http2.header.name" showname="Name: location" size="8" pos="240" show="location" value="6c6f636174696f6e"/>
        <field name="http2.header.value.length" showname="Value Length: 58" size="4" pos="125" show="58" value="0000003a"/>
        <field name="http2.header.value" showname="Value: http://10.0.10.1:7777/npcf-am-policy-control/v1/policies/1" size="58" pos="129" show="http://10.0.10.1:7777/npcf-am-policy-control/v1/policies/1" value="687474703a2f2f31302e302e31302e313a373737372f6e7063662d616d2d706f6c6963792d636f6e74726f6c2f76312f706f6c69636965732f31"/>
        <field name="http2.headers.location" showname="location: http://10.0.10.1:7777/npcf-am-policy-control/v1/policies/1" size="58" pos="129" show="http://10.0.10.1:7777/npcf-am-policy-control/v1/policies/1" value="687474703a2f2f31302e302e31302e313a373737372f6e7063662d616d2d706f6c6963792d636f6e74726f6c2f76312f706f6c69636965732f31"/>
        <field name="http2.header.unescaped" showname="Unescaped: http://10.0.10.1:7777/npcf-am-policy-control/v1/policies/1" size="58" pos="129" show="http://10.0.10.1:7777/npcf-am-policy-control/v1/policies/1" value="687474703a2f2f31302e302e31302e313a373737372f6e7063662d616d2d706f6c6963792d636f6e74726f6c2f76312f706f6c69636965732f31"/>
        <field name="http2.header.repr" showname="Representation: Literal Header Field without Indexing - Indexed Name" size="1" pos="123" show="Literal Header Field without Indexing - Indexed Name" value="0f"/>
        <field name="http2.header.index" showname="Index: 46" size="1" pos="123" show="46" value="0f"/>
      </field>
      <field name="http2.header" showname="Header: content-type: application/json" size="13" pos="167" show="" value="">
        <field name="http2.header.name.length" showname="Name Length: 12" size="4" pos="187" show="12" value="0000000c"/>
        <field name="http2.header.name" showname="Name: content-type" size="12" pos="191" show="content-type" value="636f6e74656e742d74797065"/>
        <field name="http2.header.value.length" showname="Value Length: 16" size="4" pos="203" show="16" value="00000010"/>
        <field name="http2.header.value" showname="Value: application/json" size="16" pos="207" show="application/json" value="6170706c69636174696f6e2f6a736f6e"/>
        <field name="http2.headers.content_type" showname="content-type: application/json" size="16" pos="207" show="application/json" value="6170706c69636174696f6e2f6a736f6e"/>
        <field name="http2.header.unescaped" showname="Unescaped: application/json" size="16" pos="207" show="application/json" value="6170706c69636174696f6e2f6a736f6e"/>
        <field name="http2.header.repr" showname="Representation: Literal Header Field with Incremental Indexing - Indexed Name" size="1" pos="167" show="Literal Header Field with Incremental Indexing - Indexed Name" value="5f"/>
        <field name="http2.header.index" showname="Index: 31" size="1" pos="167" show="31" value="5f"/>
      </field>
    </field>
  </proto>
</packet>


<packet>
  <proto name="geninfo" pos="0" showname="General information" size="1056">
    <field name="num" pos="0" show="25" showname="Number" value="19" size="1056"/>
    <field name="len" pos="0" show="1056" showname="Frame Length" value="420" size="1056"/>
    <field name="caplen" pos="0" show="1056" showname="Captured Length" value="420" size="1056"/>
    <field name="timestamp" pos="0" show="May 23, 2023 23:39:12.099760815 CEST" showname="Captured Time" value="1684877952.099760815" size="1056"/>
  </proto>
  <proto name="frame" showname="Frame 25: 1056 bytes on wire (8448 bits), 1056 bytes captured (8448 bits) on interface veth_pcf, id 0" size="1056" pos="0">
    <field name="filtered" value="frame" />
  </proto>
  <proto name="eth" showname="Ethernet II, Src: 8a:0b:87:b7:1e:40, Dst: 52:d4:2e:8b:e5:24" size="14" pos="0">
    <field name="filtered" value="eth" />
  </proto>
  <proto name="ip" showname="Internet Protocol Version 4, Src: 10.0.10.1, Dst: 10.0.10.2" size="20" pos="14">
    <field name="filtered" value="ip" />
  </proto>
  <proto name="tcp" showname="Transmission Control Protocol, Src Port: 7777, Dst Port: 36456, Seq: 916575852, Ack: 2772083219, Len: 990" size="32" pos="34">
    <field name="tcp.srcport" showname="Source Port: 7777" size="2" pos="34" show="7777" value="1e61"/>
    <field name="tcp.dstport" showname="Destination Port: 36456" size="2" pos="36" show="36456" value="8e68"/>
    <field name="tcp.port" showname="Source or Destination Port: 7777" hide="yes" size="2" pos="34" show="7777" value="1e61"/>
    <field name="tcp.port" showname="Source or Destination Port: 36456" hide="yes" size="2" pos="36" show="36456" value="8e68"/>
    <field name="tcp.stream" showname="Stream index: 1" size="0" pos="34" show="1"/>
    <field name="tcp.len" showname="TCP Segment Len: 990" size="1" pos="46" show="990" value="80"/>
    <field name="tcp.seq" showname="Sequence number: 916575852" size="4" pos="38" show="916575852" value="36a1d66c"/>
    <field name="tcp.seq_raw" showname="Sequence number (raw): 916575852" hide="yes" size="4" pos="38" show="916575852" value="36a1d66c"/>
    <field name="tcp.nxtseq" showname="Next sequence number: 916576842" size="0" pos="34" show="916576842"/>
    <field name="tcp.ack" showname="Acknowledgment number: 2772083219" size="4" pos="42" show="2772083219" value="a53aa213"/>
    <field name="tcp.ack_raw" showname="Acknowledgment number (raw): 2772083219" hide="yes" size="4" pos="42" show="2772083219" value="a53aa213"/>
    <field name="tcp.hdr_len" showname="1000 .... = Header Length: 32 bytes (8)" size="1" pos="46" show="32" value="80"/>
    <field name="tcp.flags" showname="Flags: 0x018 (PSH, ACK)" size="2" pos="46" show="0x00000018" value="18" unmaskedvalue="8018">
      <field name="tcp.flags.res" showname="000. .... .... = Reserved: Not set" size="1" pos="46" show="0" value="0" unmaskedvalue="80"/>
      <field name="tcp.flags.ns" showname="...0 .... .... = Nonce: Not set" size="1" pos="46" show="0" value="0" unmaskedvalue="80"/>
      <field name="tcp.flags.cwr" showname=".... 0... .... = Congestion Window Reduced (CWR): Not set" size="1" pos="47" show="0" value="0" unmaskedvalue="18"/>
      <field name="tcp.flags.ecn" showname=".... .0.. .... = ECN-Echo: Not set" size="1" pos="47" show="0" value="0" unmaskedvalue="18"/>
      <field name="tcp.flags.urg" showname=".... ..0. .... = Urgent: Not set" size="1" pos="47" show="0" value="0" unmaskedvalue="18"/>
      <field name="tcp.flags.ack" showname=".... ...1 .... = Acknowledgment: Set" size="1" pos="47" show="1" value="1" unmaskedvalue="18"/>
      <field name="tcp.flags.push" showname=".... .... 1... = Push: Set" size="1" pos="47" show="1" value="1" unmaskedvalue="18"/>
      <field name="tcp.flags.reset" showname=".... .... .0.. = Reset: Not set" size="1" pos="47" show="0" value="0" unmaskedvalue="18"/>
      <field name="tcp.flags.syn" showname=".... .... ..0. = Syn: Not set" size="1" pos="47" show="0" value="0" unmaskedvalue="18"/>
      <field name="tcp.flags.fin" showname=".... .... ...0 = Fin: Not set" size="1" pos="47" show="0" value="0" unmaskedvalue="18"/>
      <field name="tcp.flags.str" showname="TCP Flags: \xc2\xb7\xc2\xb7\xc2\xb7\xc2\xb7\xc2\xb7\xc2\xb7\xc2\xb7AP\xc2\xb7\xc2\xb7\xc2\xb7" size="2" pos="46" show="\xc2\xb7\xc2\xb7\xc2\xb7\xc2\xb7\xc2\xb7\xc2\xb7\xc2\xb7AP\xc2\xb7\xc2\xb7\xc2\xb7" value="8018"/>
    </field>
    <field name="tcp.window_size_value" showname="Window size value: 502" size="2" pos="48" show="502" value="01f6"/>
    <field name="tcp.window_size" showname="Calculated window size: 64256" size="2" pos="48" show="64256" value="01f6"/>
    <field name="tcp.window_size_scalefactor" showname="Window size scaling factor: 128" size="2" pos="48" show="128" value="01f6"/>
    <field name="tcp.checksum" showname="Checksum: 0x2c07 [unverified]" size="2" pos="50" show="0x00002c07" value="2c07"/>
    <field name="tcp.checksum.status" showname="Checksum Status: Unverified" size="0" pos="50" show="2"/>
    <field name="tcp.urgent_pointer" showname="Urgent pointer: 0" size="2" pos="52" show="0" value="0000"/>
    <field name="tcp.options" showname="Options: (12 bytes), No-Operation (NOP), No-Operation (NOP), Timestamps" size="12" pos="54" show="01:01:08:0a:4a:0e:46:73:66:93:61:17" value="0101080a4a0e467366936117">
      <field name="tcp.options.nop" showname="TCP Option - No-Operation (NOP)" size="1" pos="54" show="01" value="01">
        <field name="tcp.option_kind" showname="Kind: No-Operation (1)" size="1" pos="54" show="1" value="01"/>
      </field>
      <field name="tcp.options.nop" showname="TCP Option - No-Operation (NOP)" size="1" pos="55" show="01" value="01">
        <field name="tcp.option_kind" showname="Kind: No-Operation (1)" size="1" pos="55" show="1" value="01"/>
      </field>
      <field name="tcp.options.timestamp" showname="TCP Option - Timestamps: TSval 1242449523, TSecr 1720934679" size="10" pos="56" show="08:0a:4a:0e:46:73:66:93:61:17" value="080a4a0e467366936117">
        <field name="tcp.option_kind" showname="Kind: Time Stamp Option (8)" size="1" pos="56" show="8" value="08"/>
        <field name="tcp.option_len" showname="Length: 10" size="1" pos="57" show="10" value="0a"/>
        <field name="tcp.options.timestamp.tsval" showname="Timestamp value: 1242449523" size="4" pos="58" show="1242449523" value="4a0e4673"/>
        <field name="tcp.options.timestamp.tsecr" showname="Timestamp echo reply: 1720934679" size="4" pos="62" show="1720934679" value="66936117"/>
      </field>
    </field>
    <field name="" show="Timestamps" size="0" pos="34">
      <field name="tcp.time_relative" showname="Time since first frame in this TCP stream: 0.024029233 seconds" size="0" pos="34" show="0.024029233"/>
      <field name="tcp.time_delta" showname="Time since previous frame in this TCP stream: 0.000046802 seconds" size="0" pos="34" show="0.000046802"/>
    </field>
    <field name="tcp.payload" showname="TCP payload (990 bytes)" size="990" pos="66" show="00:03:d5:00:01:00:00:00:0d:7b:0a:09:22:72:65:71:75:65:73:74:22:3a:09:7b:0a:09:09:22:6e:6f:74:69:66:69:63:61:74:69:6f:6e:55:72:69:22:3a:09:22:68:74:74:70:3a:2f:2f:31:30:2e:30:2e:33:2e:31:3a:37:37:37:37:2f:6e:61:6d:66:2d:63:61:6c:6c:62:61:63:6b:2f:76:31:2f:69:6d:73:69:2d:39:30:31:37:30:30:30:30:30:30:30:30:30:30:31:2f:61:6d:2d:70:6f:6c:69:63:79:2d:6e:6f:74:69:66:79:22:2c:0a:09:09:22:73:75:70:69:22:3a:09:22:69:6d:73:69:2d:39:30:31:37:30:30:30:30:30:30:30:30:30:30:34:22:2c:0a:09:09:22:61:63:63:65:73:73:54:79:70:65:22:3a:09:22:33:47:50:50:5f:41:43:43:45:53:53:22:2c:0a:09:09:22:75:73:65:72:4c:6f:63:22:3a:09:7b:0a:09:09:09:22:6e:72:4c:6f:63:61:74:69:6f:6e:22:3a:09:7b:0a:09:09:09:09:22:74:61:69:22:3a:09:7b:0a:09:09:09:09:09:22:70:6c:6d:6e:49:64:22:3a:09:7b:0a:09:09:09:09:09:09:22:6d:63:63:22:3a:09:22:39:30:31:22:2c:0a:09:09:09:09:09:09:22:6d:6e:63:22:3a:09:22:37:30:22:0a:09:09:09:09:09:7d:2c:0a:09:09:09:09:09:22:74:61:63:22:3a:09:22:30:30:30:30:30:31:22:0a:09:09:09:09:7d:2c:0a:09:09:09:09:22:6e:63:67:69:22:3a:09:7b:0a:09:09:09:09:09:22:70:6c:6d:6e:49:64:22:3a:09:7b:0a:09:09:09:09:09:09:22:6d:63:63:22:3a:09:22:39:30:31:22:2c:0a:09:09:09:09:09:09:22:6d:6e:63:22:3a:09:22:37:30:22:0a:09:09:09:09:09:7d:2c:0a:09:09:09:09:09:22:6e:72:43:65:6c:6c:49:64:22:3a:09:22:30:30:30:30:30:30:30:31:30:22:0a:09:09:09:09:7d:2c:0a:09:09:09:09:22:75:65:4c:6f:63:61:74:69:6f:6e:54:69:6d:65:73:74:61:6d:70:22:3a:09:22:32:30:32:33:2d:30:35:2d:32:33:54:32:30:3a:32:34:3a:30:34:2e:37:39:37:32:38:35:5a:22:0a:09:09:09:7d:0a:09:09:7d:2c:0a:09:09:22:74:69:6d:65:5a:6f:6e:65:22:3a:09:22:2b:30:32:3a:30:30:22:2c:0a:09:09:22:73:65:72:76:69:6e:67:50:6c:6d:6e:22:3a:09:7b:0a:09:09:09:22:6d:63:63:22:3a:09:22:39:30:31:22:2c:0a:09:09:09:22:6d:6e:63:22:3a:09:22:37:30:22:0a:09:09:7d:2c:0a:09:09:22:72:61:74:54:79:70:65:22:3a:09:22:4e:52:22:2c:0a:09:09:22:75:65:41:6d:62:72:22:3a:09:7b:0a:09:09:09:22:75:70:6c:69:6e:6b:22:3a:09:22:31:30:34:38:35:37:36:20:4b:62:70:73:22:2c:0a:09:09:09:22:64:6f:77:6e:6c:69:6e:6b:22:3a:09:22:31:30:34:38:35:37:36:20:4b:62:70:73:22:0a:09:09:7d:2c:0a:09:09:22:61:6c:6c:6f:77:65:64:53:6e:73:73:61:69:73:22:3a:09:5b:7b:0a:09:09:09:09:22:73:73:74:22:3a:09:31:2c:0a:09:09:09:09:22:73:64:22:3a:09:22:30:30:30:30:30:31:22:0a:09:09:09:7d:5d:2c:0a:09:09:22:67:75:61:6d:69:22:3a:09:7b:0a:09:09:09:22:70:6c:6d:6e:49:64:22:3a:09:7b:0a:09:09:09:09:22:6d:63:63:22:3a:09:22:39:30:31:22:2c:0a:09:09:09:09:22:6d:6e:63:22:3a:09:22:37:30:22:0a:09:09:09:7d:2c:0a:09:09:09:22:61:6d:66:49:64:22:3a:09:22:30:32:30:30:34:30:22:0a:09:09:7d:2c:0a:09:09:22:73:65:72:76:69:63:65:4e:61:6d:65:22:3a:09:22:6e:61:6d:66:2d:63:61:6c:6c:62:61:63:6b:22:2c:0a:09:09:22:73:75:70:70:46:65:61:74:22:3a:09:22:34:22:0a:09:7d:2c:0a:09:22:75:65:41:6d:62:72:22:3a:09:7b:0a:09:09:22:75:70:6c:69:6e:6b:22:3a:09:22:31:30:34:38:35:37:36:20:4b:62:70:73:22:2c:0a:09:09:22:64:6f:77:6e:6c:69:6e:6b:22:3a:09:22:31:30:34:38:35:37:36:20:4b:62:70:73:22:0a:09:7d:2c:0a:09:22:73:75:70:70:46:65:61:74:22:3a:09:22:34:22:0a:7d" value="0003d500010000000d7b0a092272657175657374223a097b0a0909226e6f74696669636174696f6e557269223a0922687474703a2f2f31302e302e332e313a373737372f6e616d662d63616c6c6261636b2f76312f696d73692d3930313730303030303030303030312f616d2d706f6c6963792d6e6f74696679222c0a09092273757069223a0922696d73692d393031373030303030303030303034222c0a09092261636365737354797065223a0922334750505f414343455353222c0a090922757365724c6f63223a097b0a090909226e724c6f636174696f6e223a097b0a0909090922746169223a097b0a090909090922706c6d6e4964223a097b0a090909090909226d6363223a0922393031222c0a090909090909226d6e63223a09223730220a09090909097d2c0a090909090922746163223a0922303030303031220a090909097d2c0a09090909226e636769223a097b0a090909090922706c6d6e4964223a097b0a090909090909226d6363223a0922393031222c0a090909090909226d6e63223a09223730220a09090909097d2c0a0909090909226e7243656c6c4964223a0922303030303030303130220a090909097d2c0a090909092275654c6f636174696f6e54696d657374616d70223a0922323032332d30352d32335432303a32343a30342e3739373238355a220a0909097d0a09097d2c0a09092274696d655a6f6e65223a09222b30323a3030222c0a09092273657276696e67506c6d6e223a097b0a090909226d6363223a0922393031222c0a090909226d6e63223a09223730220a09097d2c0a09092272617454797065223a09224e52222c0a0909227565416d6272223a097b0a0909092275706c696e6b223a092231303438353736204b627073222c0a09090922646f776e6c696e6b223a092231303438353736204b627073220a09097d2c0a090922616c6c6f776564536e7373616973223a095b7b0a0909090922737374223a09312c0a09090909227364223a0922303030303031220a0909097d5d2c0a0909226775616d69223a097b0a09090922706c6d6e4964223a097b0a09090909226d6363223a0922393031222c0a09090909226d6e63223a09223730220a0909097d2c0a09090922616d664964223a0922303230303430220a09097d2c0a090922736572766963654e616d65223a09226e616d662d63616c6c6261636b222c0a0909227375707046656174223a092234220a097d2c0a09227565416d6272223a097b0a09092275706c696e6b223a092231303438353736204b627073222c0a090922646f776e6c696e6b223a092231303438353736204b627073220a097d2c0a09227375707046656174223a092234220a7d"/>
    <field name="tcp.pdu.size" showname="PDU Size: 990" size="990" pos="66" show="990" value="0003d500010000000d7b0a092272657175657374223a097b0a0909226e6f74696669636174696f6e557269223a0922687474703a2f2f31302e302e332e313a373737372f6e616d662d63616c6c6261636b2f76312f696d73692d3930313730303030303030303030312f616d2d706f6c6963792d6e6f74696679222c0a09092273757069223a0922696d73692d393031373030303030303030303034222c0a09092261636365737354797065223a0922334750505f414343455353222c0a090922757365724c6f63223a097b0a090909226e724c6f636174696f6e223a097b0a0909090922746169223a097b0a090909090922706c6d6e4964223a097b0a090909090909226d6363223a0922393031222c0a090909090909226d6e63223a09223730220a09090909097d2c0a090909090922746163223a0922303030303031220a090909097d2c0a09090909226e636769223a097b0a090909090922706c6d6e4964223a097b0a090909090909226d6363223a0922393031222c0a090909090909226d6e63223a09223730220a09090909097d2c0a0909090909226e7243656c6c4964223a0922303030303030303130220a090909097d2c0a090909092275654c6f636174696f6e54696d657374616d70223a0922323032332d30352d32335432303a32343a30342e3739373238355a220a0909097d0a09097d2c0a09092274696d655a6f6e65223a09222b30323a3030222c0a09092273657276696e67506c6d6e223a097b0a090909226d6363223a0922393031222c0a090909226d6e63223a09223730220a09097d2c0a09092272617454797065223a09224e52222c0a0909227565416d6272223a097b0a0909092275706c696e6b223a092231303438353736204b627073222c0a09090922646f776e6c696e6b223a092231303438353736204b627073220a09097d2c0a090922616c6c6f776564536e7373616973223a095b7b0a0909090922737374223a09312c0a09090909227364223a0922303030303031220a0909097d5d2c0a0909226775616d69223a097b0a09090922706c6d6e4964223a097b0a09090909226d6363223a0922393031222c0a09090909226d6e63223a09223730220a0909097d2c0a09090922616d664964223a0922303230303430220a09097d2c0a090922736572766963654e616d65223a09226e616d662d63616c6c6261636b222c0a0909227375707046656174223a092234220a097d2c0a09227565416d6272223a097b0a09092275706c696e6b223a092231303438353736204b627073222c0a090922646f776e6c696e6b223a092231303438353736204b627073220a097d2c0a09227375707046656174223a092234220a7d"/>
  </proto>
  <proto name="http2" showname="HyperText Transfer Protocol 2" size="990" pos="66">
    <field name="http2.stream" showname="Stream: DATA, Stream ID: 13, Length 981" size="990" pos="66" show="" value="">
      <field name="http2.length" showname="Length: 981" size="3" pos="66" show="981" value="0003d5"/>
      <field name="http2.type" showname="Type: DATA (0)" size="1" pos="69" show="0" value="00"/>
      <field name="http2.flags" showname="Flags: 0x01" size="1" pos="70" show="0x00000001" value="01">
        <field name="http2.flags.end_stream" showname=".... ...1 = End Stream: True" size="1" pos="70" show="1" value="1" unmaskedvalue="01"/>
        <field name="http2.flags.padded" showname=".... 0... = Padded: False" size="1" pos="70" show="0" value="0" unmaskedvalue="01"/>
        <field name="http2.flags.unused_data" showname="0000 .00. = Unused: 0x00" size="1" pos="70" show="0x00000000" value="0" unmaskedvalue="01"/>
      </field>
      <field name="http2.r" showname="0... .... .... .... .... .... .... .... = Reserved: 0x0" size="4" pos="71" show="0x00000000" value="0" unmaskedvalue="0000000d"/>
      <field name="http2.streamid" showname=".000 0000 0000 0000 0000 0000 0000 1101 = Stream Identifier: 13" size="4" pos="71" show="13" value="D" unmaskedvalue="0000000d"/>
      <field name="http2.pad_length" showname="Pad Length: 0" size="0" pos="75" show="0"/>
      <field name="http2.data.data" showname="Data: 7b0a092272657175657374223a097b0a0909226e6f746966\xe2\x80\xa6" size="981" pos="75" show="7b:0a:09:22:72:65:71:75:65:73:74:22:3a:09:7b:0a:09:09:22:6e:6f:74:69:66:69:63:61:74:69:6f:6e:55:72:69:22:3a:09:22:68:74:74:70:3a:2f:2f:31:30:2e:30:2e:33:2e:31:3a:37:37:37:37:2f:6e:61:6d:66:2d:63:61:6c:6c:62:61:63:6b:2f:76:31:2f:69:6d:73:69:2d:39:30:31:37:30:30:30:30:30:30:30:30:30:30:31:2f:61:6d:2d:70:6f:6c:69:63:79:2d:6e:6f:74:69:66:79:22:2c:0a:09:09:22:73:75:70:69:22:3a:09:22:69:6d:73:69:2d:39:30:31:37:30:30:30:30:30:30:30:30:30:30:34:22:2c:0a:09:09:22:61:63:63:65:73:73:54:79:70:65:22:3a:09:22:33:47:50:50:5f:41:43:43:45:53:53:22:2c:0a:09:09:22:75:73:65:72:4c:6f:63:22:3a:09:7b:0a:09:09:09:22:6e:72:4c:6f:63:61:74:69:6f:6e:22:3a:09:7b:0a:09:09:09:09:22:74:61:69:22:3a:09:7b:0a:09:09:09:09:09:22:70:6c:6d:6e:49:64:22:3a:09:7b:0a:09:09:09:09:09:09:22:6d:63:63:22:3a:09:22:39:30:31:22:2c:0a:09:09:09:09:09:09:22:6d:6e:63:22:3a:09:22:37:30:22:0a:09:09:09:09:09:7d:2c:0a:09:09:09:09:09:22:74:61:63:22:3a:09:22:30:30:30:30:30:31:22:0a:09:09:09:09:7d:2c:0a:09:09:09:09:22:6e:63:67:69:22:3a:09:7b:0a:09:09:09:09:09:22:70:6c:6d:6e:49:64:22:3a:09:7b:0a:09:09:09:09:09:09:22:6d:63:63:22:3a:09:22:39:30:31:22:2c:0a:09:09:09:09:09:09:22:6d:6e:63:22:3a:09:22:37:30:22:0a:09:09:09:09:09:7d:2c:0a:09:09:09:09:09:22:6e:72:43:65:6c:6c:49:64:22:3a:09:22:30:30:30:30:30:30:30:31:30:22:0a:09:09:09:09:7d:2c:0a:09:09:09:09:22:75:65:4c:6f:63:61:74:69:6f:6e:54:69:6d:65:73:74:61:6d:70:22:3a:09:22:32:30:32:33:2d:30:35:2d:32:33:54:32:30:3a:32:34:3a:30:34:2e:37:39:37:32:38:35:5a:22:0a:09:09:09:7d:0a:09:09:7d:2c:0a:09:09:22:74:69:6d:65:5a:6f:6e:65:22:3a:09:22:2b:30:32:3a:30:30:22:2c:0a:09:09:22:73:65:72:76:69:6e:67:50:6c:6d:6e:22:3a:09:7b:0a:09:09:09:22:6d:63:63:22:3a:09:22:39:30:31:22:2c:0a:09:09:09:22:6d:6e:63:22:3a:09:22:37:30:22:0a:09:09:7d:2c:0a:09:09:22:72:61:74:54:79:70:65:22:3a:09:22:4e:52:22:2c:0a:09:09:22:75:65:41:6d:62:72:22:3a:09:7b:0a:09:09:09:22:75:70:6c:69:6e:6b:22:3a:09:22:31:30:34:38:35:37:36:20:4b:62:70:73:22:2c:0a:09:09:09:22:64:6f:77:6e:6c:69:6e:6b:22:3a:09:22:31:30:34:38:35:37:36:20:4b:62:70:73:22:0a:09:09:7d:2c:0a:09:09:22:61:6c:6c:6f:77:65:64:53:6e:73:73:61:69:73:22:3a:09:5b:7b:0a:09:09:09:09:22:73:73:74:22:3a:09:31:2c:0a:09:09:09:09:22:73:64:22:3a:09:22:30:30:30:30:30:31:22:0a:09:09:09:7d:5d:2c:0a:09:09:22:67:75:61:6d:69:22:3a:09:7b:0a:09:09:09:22:70:6c:6d:6e:49:64:22:3a:09:7b:0a:09:09:09:09:22:6d:63:63:22:3a:09:22:39:30:31:22:2c:0a:09:09:09:09:22:6d:6e:63:22:3a:09:22:37:30:22:0a:09:09:09:7d:2c:0a:09:09:09:22:61:6d:66:49:64:22:3a:09:22:30:32:30:30:34:30:22:0a:09:09:7d:2c:0a:09:09:22:73:65:72:76:69:63:65:4e:61:6d:65:22:3a:09:22:6e:61:6d:66:2d:63:61:6c:6c:62:61:63:6b:22:2c:0a:09:09:22:73:75:70:70:46:65:61:74:22:3a:09:22:34:22:0a:09:7d:2c:0a:09:22:75:65:41:6d:62:72:22:3a:09:7b:0a:09:09:22:75:70:6c:69:6e:6b:22:3a:09:22:31:30:34:38:35:37:36:20:4b:62:70:73:22:2c:0a:09:09:22:64:6f:77:6e:6c:69:6e:6b:22:3a:09:22:31:30:34:38:35:37:36:20:4b:62:70:73:22:0a:09:7d:2c:0a:09:22:73:75:70:70:46:65:61:74:22:3a:09:22:34:22:0a:7d" value="7b0a092272657175657374223a097b0a0909226e6f74696669636174696f6e557269223a0922687474703a2f2f31302e302e332e313a373737372f6e616d662d63616c6c6261636b2f76312f696d73692d3930313730303030303030303030312f616d2d706f6c6963792d6e6f74696679222c0a09092273757069223a0922696d73692d393031373030303030303030303034222c0a09092261636365737354797065223a0922334750505f414343455353222c0a090922757365724c6f63223a097b0a090909226e724c6f636174696f6e223a097b0a0909090922746169223a097b0a090909090922706c6d6e4964223a097b0a090909090909226d6363223a0922393031222c0a090909090909226d6e63223a09223730220a09090909097d2c0a090909090922746163223a0922303030303031220a090909097d2c0a09090909226e636769223a097b0a090909090922706c6d6e4964223a097b0a090909090909226d6363223a0922393031222c0a090909090909226d6e63223a09223730220a09090909097d2c0a0909090909226e7243656c6c4964223a0922303030303030303130220a090909097d2c0a090909092275654c6f636174696f6e54696d657374616d70223a0922323032332d30352d32335432303a32343a30342e3739373238355a220a0909097d0a09097d2c0a09092274696d655a6f6e65223a09222b30323a3030222c0a09092273657276696e67506c6d6e223a097b0a090909226d6363223a0922393031222c0a090909226d6e63223a09223730220a09097d2c0a09092272617454797065223a09224e52222c0a0909227565416d6272223a097b0a0909092275706c696e6b223a092231303438353736204b627073222c0a09090922646f776e6c696e6b223a092231303438353736204b627073220a09097d2c0a090922616c6c6f776564536e7373616973223a095b7b0a0909090922737374223a09312c0a09090909227364223a0922303030303031220a0909097d5d2c0a0909226775616d69223a097b0a09090922706c6d6e4964223a097b0a09090909226d6363223a0922393031222c0a09090909226d6e63223a09223730220a0909097d2c0a09090922616d664964223a0922303230303430220a09097d2c0a090922736572766963654e616d65223a09226e616d662d63616c6c6261636b222c0a0909227375707046656174223a092234220a097d2c0a09227565416d6272223a097b0a09092275706c696e6b223a092231303438353736204b627073222c0a090922646f776e6c696e6b223a092231303438353736204b627073220a097d2c0a09227375707046656174223a092234220a7d"/>
    </field>
    <proto name="json" showname="JavaScript Object Notation: application/json" size="981" pos="75">
      <field name="json.object" showname="Object" size="981" pos="75" show="" value="">
        <field name="json.member" showname="Member Key: request" size="884" pos="78" show="" value="">
          <field name="json.object" showname="Object" size="873" pos="89" show="" value="">
            <field name="json.member" showname="Member Key: notificationUri" size="96" pos="93" show="" value="">
              <field name="json.value.string" showname="String value: http://10.0.3.1:7777/namf-callback/v1/imsi-901700000000001/am-policy-notify" size="77" pos="112" show="http://10.0.3.1:7777/namf-callback/v1/imsi-901700000000001/am-policy-notify" value="22687474703a2f2f31302e302e332e313a373737372f6e616d662d63616c6c6261636b2f76312f696d73692d3930313730303030303030303030312f616d2d706f6c6963792d6e6f7469667922"/>
              <field name="json.key" showname="Key: notificationUri" size="17" pos="93" show="notificationUri" value="226e6f74696669636174696f6e55726922"/>
            </field>
            <field name="json.member" showname="Member Key: supi" size="30" pos="193" show="" value="">
              <field name="json.value.string" showname="String value: imsi-901700000000004" size="22" pos="201" show="imsi-901700000000004" value="22696d73692d39303137303030303030303030303422"/>
              <field name="json.key" showname="Key: supi" size="6" pos="193" show="supi" value="227375706922"/>
            </field>
            <field name="json.member" showname="Member Key: accessType" size="27" pos="227" show="" value="">
              <field name="json.value.string" showname="String value: 3GPP_ACCESS" size="13" pos="241" show="3GPP_ACCESS" value="22334750505f41434345535322"/>
              <field name="json.key" showname="Key: accessType" size="12" pos="227" show="accessType" value="226163636573735479706522"/>
            </field>
            <field name="json.member" showname="Member Key: userLoc" size="314" pos="258" show="" value="">
              <field name="json.object" showname="Object" size="303" pos="269" show="" value="">
                <field name="json.member" showname="Member Key: nrLocation" size="294" pos="274" show="" value="">
                  <field name="json.object" showname="Object" size="280" pos="288" show="" value="">
                    <field name="json.member" showname="Member Key: tai" size="98" pos="294" show="" value="">
                      <field name="json.object" showname="Object" size="91" pos="301" show="" value="">
                        <field name="json.member" showname="Member Key: plmnId" size="56" pos="308" show="" value="">
                          <field name="json.object" showname="Object" size="46" pos="318" show="" value="">
                            <field name="json.member" showname="Member Key: mcc" size="12" pos="326" show="" value="">
                              <field name="json.value.string" showname="String value: 901" size="5" pos="333" show="901" value="2239303122"/>
                              <field name="json.key" showname="Key: mcc" size="5" pos="326" show="mcc" value="226d636322"/>
                            </field>
                            <field name="json.member" showname="Member Key: mnc" size="11" pos="346" show="" value="">
                              <field name="json.value.string" showname="String value: 70" size="4" pos="353" show="70" value="22373022"/>
                              <field name="json.key" showname="Key: mnc" size="5" pos="346" show="mnc" value="226d6e6322"/>
                            </field>
                          </field>
                          <field name="json.key" showname="Key: plmnId" size="8" pos="308" show="plmnId" value="22706c6d6e496422"/>
                        </field>
                        <field name="json.member" showname="Member Key: tac" size="15" pos="371" show="" value="">
                          <field name="json.value.string" showname="String value: 000001" size="8" pos="378" show="000001" value="2230303030303122"/>
                          <field name="json.key" showname="Key: tac" size="5" pos="371" show="tac" value="2274616322"/>
                        </field>
                      </field>
                      <field name="json.key" showname="Key: tai" size="5" pos="294" show="tai" value="2274616922"/>
                    </field>
                    <field name="json.member" showname="Member Key: ncgi" size="107" pos="398" show="" value="">
                      <field name="json.object" showname="Object" size="99" pos="406" show="" value="">
                        <field name="json.member" showname="Member Key: plmnId" size="56" pos="413" show="" value="">
                          <field name="json.object" showname="Object" size="46" pos="423" show="" value="">
                            <field name="json.member" showname="Member Key: mcc" size="12" pos="431" show="" value="">
                              <field name="json.value.string" showname="String value: 901" size="5" pos="438" show="901" value="2239303122"/>
                              <field name="json.key" showname="Key: mcc" size="5" pos="431" show="mcc" value="226d636322"/>
                            </field>
                            <field name="json.member" showname="Member Key: mnc" size="11" pos="451" show="" value="">
                              <field name="json.value.string" showname="String value: 70" size="4" pos="458" show="70" value="22373022"/>
                              <field name="json.key" showname="Key: mnc" size="5" pos="451" show="mnc" value="226d6e6322"/>
                            </field>
                          </field>
                          <field name="json.key" showname="Key: plmnId" size="8" pos="413" show="plmnId" value="22706c6d6e496422"/>
                        </field>
                        <field name="json.member" showname="Member Key: nrCellId" size="23" pos="476" show="" value="">
                          <field name="json.value.string" showname="String value: 000000010" size="11" pos="488" show="000000010" value="2230303030303030313022"/>
                          <field name="json.key" showname="Key: nrCellId" size="10" pos="476" show="nrCellId" value="226e7243656c6c496422"/>
                        </field>
                      </field>
                      <field name="json.key" showname="Key: ncgi" size="6" pos="398" show="ncgi" value="226e63676922"/>
                    </field>
                    <field name="json.member" showname="Member Key: ueLocationTimestamp" size="52" pos="511" show="" value="">
                      <field name="json.value.string" showname="String value: 2023-05-23T20:24:04.797285Z" size="29" pos="534" show="2023-05-23T20:24:04.797285Z" value="22323032332d30352d32335432303a32343a30342e3739373238355a22"/>
                      <field name="json.key" showname="Key: ueLocationTimestamp" size="21" pos="511" show="ueLocationTimestamp" value="2275654c6f636174696f6e54696d657374616d7022"/>
                    </field>
                  </field>
                  <field name="json.key" showname="Key: nrLocation" size="12" pos="274" show="nrLocation" value="226e724c6f636174696f6e22"/>
                </field>
              </field>
              <field name="json.key" showname="Key: userLoc" size="9" pos="258" show="userLoc" value="22757365724c6f6322"/>
            </field>
            <field name="json.member" showname="Member Key: timeZone" size="20" pos="576" show="" value="">
              <field name="json.value.string" showname="String value: +02:00" size="8" pos="588" show="+02:00" value="222b30323a303022"/>
              <field name="json.key" showname="Key: timeZone" size="10" pos="576" show="timeZone" value="2274696d655a6f6e6522"/>
            </field>
            <field name="json.member" showname="Member Key: servingPlmn" size="52" pos="600" show="" value="">
              <field name="json.object" showname="Object" size="37" pos="615" show="" value="">
                <field name="json.member" showname="Member Key: mcc" size="12" pos="620" show="" value="">
                  <field name="json.value.string" showname="String value: 901" size="5" pos="627" show="901" value="2239303122"/>
                  <field name="json.key" showname="Key: mcc" size="5" pos="620" show="mcc" value="226d636322"/>
                </field>
                <field name="json.member" showname="Member Key: mnc" size="11" pos="637" show="" value="">
                  <field name="json.value.string" showname="String value: 70" size="4" pos="644" show="70" value="22373022"/>
                  <field name="json.key" showname="Key: mnc" size="5" pos="637" show="mnc" value="226d6e6322"/>
                </field>
              </field>
              <field name="json.key" showname="Key: servingPlmn" size="13" pos="600" show="servingPlmn" value="2273657276696e67506c6d6e22"/>
            </field>
            <field name="json.member" showname="Member Key: ratType" size="15" pos="656" show="" value="">
              <field name="json.value.string" showname="String value: NR" size="4" pos="667" show="NR" value="224e5222"/>
              <field name="json.key" showname="Key: ratType" size="9" pos="656" show="ratType" value="227261745479706522"/>
            </field>
            <field name="json.member" showname="Member Key: ueAmbr" size="74" pos="675" show="" value="">
              <field name="json.object" showname="Object" size="64" pos="685" show="" value="">
                <field name="json.member" showname="Member Key: uplink" size="24" pos="690" show="" value="">
                  <field name="json.value.string" showname="String value: 1048576 Kbps" size="14" pos="700" show="1048576 Kbps" value="2231303438353736204b62707322"/>
                  <field name="json.key" showname="Key: uplink" size="8" pos="690" show="uplink" value="2275706c696e6b22"/>
                </field>
                <field name="json.member" showname="Member Key: downlink" size="26" pos="719" show="" value="">
                  <field name="json.value.string" showname="String value: 1048576 Kbps" size="14" pos="731" show="1048576 Kbps" value="2231303438353736204b62707322"/>
                  <field name="json.key" showname="Key: downlink" size="10" pos="719" show="downlink" value="22646f776e6c696e6b22"/>
                </field>
              </field>
              <field name="json.key" showname="Key: ueAmbr" size="8" pos="675" show="ueAmbr" value="227565416d627222"/>
            </field>
            <field name="json.member" showname="Member Key: allowedSnssais" size="59" pos="753" show="" value="">
              <field name="json.array" showname="Array" size="41" pos="771" show="" value="">
                <field name="json.object" showname="Object" size="39" pos="772" show="" value="">
                  <field name="json.member" showname="Member Key: sst" size="8" pos="778" show="" value="">
                    <field name="json.value.number" showname="Number value: 1" size="1" pos="785" show="1" value="31"/>
                    <field name="json.key" showname="Key: sst" size="5" pos="778" show="sst" value="2273737422"/>
                  </field>
                  <field name="json.member" showname="Member Key: sd" size="14" pos="792" show="" value="">
                    <field name="json.value.string" showname="String value: 000001" size="8" pos="798" show="000001" value="2230303030303122"/>
                    <field name="json.key" showname="Key: sd" size="4" pos="792" show="sd" value="22736422"/>
                  </field>
                </field>
              </field>
              <field name="json.key" showname="Key: allowedSnssais" size="16" pos="753" show="allowedSnssais" value="22616c6c6f776564536e737361697322"/>
            </field>
            <field name="json.member" showname="Member Key: guami" size="90" pos="816" show="" value="">
              <field name="json.object" showname="Object" size="81" pos="825" show="" value="">
                <field name="json.member" showname="Member Key: plmnId" size="50" pos="830" show="" value="">
                  <field name="json.object" showname="Object" size="40" pos="840" show="" value="">
                    <field name="json.member" showname="Member Key: mcc" size="12" pos="846" show="" value="">
                      <field name="json.value.string" showname="String value: 901" size="5" pos="853" show="901" value="2239303122"/>
                      <field name="json.key" showname="Key: mcc" size="5" pos="846" show="mcc" value="226d636322"/>
                    </field>
                    <field name="json.member" showname="Member Key: mnc" size="11" pos="864" show="" value="">
                      <field name="json.value.string" showname="String value: 70" size="4" pos="871" show="70" value="22373022"/>
                      <field name="json.key" showname="Key: mnc" size="5" pos="864" show="mnc" value="226d6e6322"/>
                    </field>
                  </field>
                  <field name="json.key" showname="Key: plmnId" size="8" pos="830" show="plmnId" value="22706c6d6e496422"/>
                </field>
                <field name="json.member" showname="Member Key: amfId" size="17" pos="885" show="" value="">
                  <field name="json.value.string" showname="String value: 020040" size="8" pos="894" show="020040" value="2230323030343022"/>
                  <field name="json.key" showname="Key: amfId" size="7" pos="885" show="amfId" value="22616d66496422"/>
                </field>
              </field>
              <field name="json.key" showname="Key: guami" size="7" pos="816" show="guami" value="226775616d6922"/>
            </field>
            <field name="json.member" showname="Member Key: serviceName" size="30" pos="910" show="" value="">
              <field name="json.value.string" showname="String value: namf-callback" size="15" pos="925" show="namf-callback" value="226e616d662d63616c6c6261636b22"/>
              <field name="json.key" showname="Key: serviceName" size="13" pos="910" show="serviceName" value="22736572766963654e616d6522"/>
            </field>
            <field name="json.member" showname="Member Key: suppFeat" size="15" pos="944" show="" value="">
              <field name="json.value.string" showname="String value: 4" size="3" pos="956" show="4" value="223422"/>
              <field name="json.key" showname="Key: suppFeat" size="10" pos="944" show="suppFeat" value="22737570704665617422"/>
            </field>
          </field>
          <field name="json.key" showname="Key: request" size="9" pos="78" show="request" value="227265717565737422"/>
        </field>
        <field name="json.member" showname="Member Key: ueAmbr" size="71" pos="965" show="" value="">
          <field name="json.object" showname="Object" size="61" pos="975" show="" value="">
            <field name="json.member" showname="Member Key: uplink" size="24" pos="979" show="" value="">
              <field name="json.value.string" showname="String value: 1048576 Kbps" size="14" pos="989" show="1048576 Kbps" value="2231303438353736204b62707322"/>
              <field name="json.key" showname="Key: uplink" size="8" pos="979" show="uplink" value="2275706c696e6b22"/>
            </field>
            <field name="json.member" showname="Member Key: downlink" size="26" pos="1007" show="" value="">
              <field name="json.value.string" showname="String value: 1048576 Kbps" size="14" pos="1019" show="1048576 Kbps" value="2231303438353736204b62707322"/>
              <field name="json.key" showname="Key: downlink" size="10" pos="1007" show="downlink" value="22646f776e6c696e6b22"/>
            </field>
          </field>
          <field name="json.key" showname="Key: ueAmbr" size="8" pos="965" show="ueAmbr" value="227565416d627222"/>
        </field>
        <field name="json.member" showname="Member Key: suppFeat" size="15" pos="1039" show="" value="">
          <field name="json.value.string" showname="String value: 4" size="3" pos="1051" show="4" value="223422"/>
          <field name="json.key" showname="Key: suppFeat" size="10" pos="1039" show="suppFeat" value="22737570704665617422"/>
        </field>
      </field>
    </proto>
  </proto>
</packet>


<packet>
  <proto name="geninfo" pos="0" showname="General information" size="132">
    <field name="num" pos="0" show="33" showname="Number" value="21" size="132"/>
    <field name="len" pos="0" show="132" showname="Frame Length" value="84" size="132"/>
    <field name="caplen" pos="0" show="132" showname="Captured Length" value="84" size="132"/>
    <field name="timestamp" pos="0" show="May 23, 2023 23:39:15.467288762 CEST" showname="Captured Time" value="1684877955.467288762" size="132"/>
  </proto>
  <proto name="frame" showname="Frame 33: 132 bytes on wire (1056 bits), 132 bytes captured (1056 bits) on interface veth_pcf, id 0" size="132" pos="0">
    <field name="filtered" value="frame" />
  </proto>
  <proto name="eth" showname="Ethernet II, Src: 8a:0b:87:b7:1e:40, Dst: 52:d4:2e:8b:e5:24" size="14" pos="0">
    <field name="filtered" value="eth" />
  </proto>
  <proto name="ip" showname="Internet Protocol Version 4, Src: 10.0.10.1, Dst: 10.0.8.1" size="20" pos="14">
    <field name="filtered" value="ip" />
  </proto>
  <proto name="tcp" showname="Transmission Control Protocol, Src Port: 46984, Dst Port: 7777, Seq: 3602932524, Ack: 1422993712, Len: 66" size="32" pos="34">
    <field name="tcp.srcport" showname="Source Port: 46984" size="2" pos="34" show="46984" value="b788"/>
    <field name="tcp.dstport" showname="Destination Port: 7777" size="2" pos="36" show="7777" value="1e61"/>
    <field name="tcp.port" showname="Source or Destination Port: 46984" hide="yes" size="2" pos="34" show="46984" value="b788"/>
    <field name="tcp.port" showname="Source or Destination Port: 7777" hide="yes" size="2" pos="36" show="7777" value="1e61"/>
    <field name="tcp.stream" showname="Stream index: 0" size="0" pos="34" show="0"/>
    <field name="tcp.len" showname="TCP Segment Len: 66" size="1" pos="46" show="66" value="80"/>
    <field name="tcp.seq" showname="Sequence number: 3602932524" size="4" pos="38" show="3602932524" value="d6c0632c"/>
    <field name="tcp.seq_raw" showname="Sequence number (raw): 3602932524" hide="yes" size="4" pos="38" show="3602932524" value="d6c0632c"/>
    <field name="tcp.nxtseq" showname="Next sequence number: 3602932590" size="0" pos="34" show="3602932590"/>
    <field name="tcp.ack" showname="Acknowledgment number: 1422993712" size="4" pos="42" show="1422993712" value="54d12930"/>
    <field name="tcp.ack_raw" showname="Acknowledgment number (raw): 1422993712" hide="yes" size="4" pos="42" show="1422993712" value="54d12930"/>
    <field name="tcp.hdr_len" showname="1000 .... = Header Length: 32 bytes (8)" size="1" pos="46" show="32" value="80"/>
    <field name="tcp.flags" showname="Flags: 0x018 (PSH, ACK)" size="2" pos="46" show="0x00000018" value="18" unmaskedvalue="8018">
      <field name="tcp.flags.res" showname="000. .... .... = Reserved: Not set" size="1" pos="46" show="0" value="0" unmaskedvalue="80"/>
      <field name="tcp.flags.ns" showname="...0 .... .... = Nonce: Not set" size="1" pos="46" show="0" value="0" unmaskedvalue="80"/>
      <field name="tcp.flags.cwr" showname=".... 0... .... = Congestion Window Reduced (CWR): Not set" size="1" pos="47" show="0" value="0" unmaskedvalue="18"/>
      <field name="tcp.flags.ecn" showname=".... .0.. .... = ECN-Echo: Not set" size="1" pos="47" show="0" value="0" unmaskedvalue="18"/>
      <field name="tcp.flags.urg" showname=".... ..0. .... = Urgent: Not set" size="1" pos="47" show="0" value="0" unmaskedvalue="18"/>
      <field name="tcp.flags.ack" showname=".... ...1 .... = Acknowledgment: Set" size="1" pos="47" show="1" value="1" unmaskedvalue="18"/>
      <field name="tcp.flags.push" showname=".... .... 1... = Push: Set" size="1" pos="47" show="1" value="1" unmaskedvalue="18"/>
      <field name="tcp.flags.reset" showname=".... .... .0.. = Reset: Not set" size="1" pos="47" show="0" value="0" unmaskedvalue="18"/>
      <field name="tcp.flags.syn" showname=".... .... ..0. = Syn: Not set" size="1" pos="47" show="0" value="0" unmaskedvalue="18"/>
      <field name="tcp.flags.fin" showname=".... .... ...0 = Fin: Not set" size="1" pos="47" show="0" value="0" unmaskedvalue="18"/>
      <field name="tcp.flags.str" showname="TCP Flags: \xc2\xb7\xc2\xb7\xc2\xb7\xc2\xb7\xc2\xb7\xc2\xb7\xc2\xb7AP\xc2\xb7\xc2\xb7\xc2\xb7" size="2" pos="46" show="\xc2\xb7\xc2\xb7\xc2\xb7\xc2\xb7\xc2\xb7\xc2\xb7\xc2\xb7AP\xc2\xb7\xc2\xb7\xc2\xb7" value="8018"/>
    </field>
    <field name="tcp.window_size_value" showname="Window size value: 501" size="2" pos="48" show="501" value="01f5"/>
    <field name="tcp.window_size" showname="Calculated window size: 501" size="2" pos="48" show="501" value="01f5"/>
    <field name="tcp.window_size_scalefactor" showname="Window size scaling factor: -1 (unknown)" size="2" pos="48" show="-1" value="01f5"/>
    <field name="tcp.checksum" showname="Checksum: 0x266a [unverified]" size="2" pos="50" show="0x0000266a" value="266a"/>
    <field name="tcp.checksum.status" showname="Checksum Status: Unverified" size="0" pos="50" show="2"/>
    <field name="tcp.urgent_pointer" showname="Urgent pointer: 0" size="2" pos="52" show="0" value="0000"/>
    <field name="tcp.options" showname="Options: (12 bytes), No-Operation (NOP), No-Operation (NOP), Timestamps" size="12" pos="54" show="01:01:08:0a:4f:45:9b:36:0b:e6:a3:da" value="0101080a4f459b360be6a3da">
      <field name="tcp.options.nop" showname="TCP Option - No-Operation (NOP)" size="1" pos="54" show="01" value="01">
        <field name="tcp.option_kind" showname="Kind: No-Operation (1)" size="1" pos="54" show="1" value="01"/>
      </field>
      <field name="tcp.options.nop" showname="TCP Option - No-Operation (NOP)" size="1" pos="55" show="01" value="01">
        <field name="tcp.option_kind" showname="Kind: No-Operation (1)" size="1" pos="55" show="1" value="01"/>
      </field>
      <field name="tcp.options.timestamp" showname="TCP Option - Timestamps: TSval 1329961782, TSecr 199664602" size="10" pos="56" show="08:0a:4f:45:9b:36:0b:e6:a3:da" value="080a4f459b360be6a3da">
        <field name="tcp.option_kind" showname="Kind: Time Stamp Option (8)" size="1" pos="56" show="8" value="08"/>
        <field name="tcp.option_len" showname="Length: 10" size="1" pos="57" show="10" value="0a"/>
        <field name="tcp.options.timestamp.tsval" showname="Timestamp value: 1329961782" size="4" pos="58" show="1329961782" value="4f459b36"/>
        <field name="tcp.options.timestamp.tsecr" showname="Timestamp echo reply: 199664602" size="4" pos="62" show="199664602" value="0be6a3da"/>
      </field>
    </field>
    <field name="" show="Timestamps" size="0" pos="34">
      <field name="tcp.time_relative" showname="Time since first frame in this TCP stream: 10.011166116 seconds" size="0" pos="34" show="10.011166116"/>
      <field name="tcp.time_delta" showname="Time since previous frame in this TCP stream: 10.010744764 seconds" size="0" pos="34" show="10.010744764"/>
    </field>
    <field name="tcp.payload" showname="TCP payload (66 bytes)" size="66" pos="66" show="00:00:39:01:04:00:00:05:eb:c1:04:ad:62:aa:ac:95:6a:a5:a5:8e:e1:62:a9:56:35:48:48:ea:21:50:c3:72:00:92:3f:2b:cb:4a:fb:e5:59:a0:96:45:9f:20:de:59:f9:4a:f1:42:db:2c:80:32:7f:86:c4:c2:c0:0f:0d:02:37:32" value="0000390104000005ebc104ad62aaac956aa5a58ee162a956354848ea2150c37200923f2bcb4afbe559a096459f20de59f94af142db2c80327f86c4c2c00f0d023732"/>
    <field name="tcp.pdu.size" showname="PDU Size: 66" size="66" pos="66" show="66" value="0000390104000005ebc104ad62aaac956aa5a58ee162a956354848ea2150c37200923f2bcb4afbe559a096459f20de59f94af142db2c80327f86c4c2c00f0d023732"/>
  </proto>
  <proto name="http2" showname="HyperText Transfer Protocol 2" size="66" pos="66">
    <field name="http2.stream" showname="Stream: HEADERS, Stream ID: 1515, Length 57" size="66" pos="66" show="" value="">
      <field name="http2.length" showname="Length: 57" size="3" pos="66" show="57" value="000039"/>
      <field name="http2.type" showname="Type: HEADERS (1)" size="1" pos="69" show="1" value="01"/>
      <field name="http2.flags" showname="Flags: 0x04" size="1" pos="70" show="0x00000004" value="04">
        <field name="http2.flags.end_stream" showname=".... ...0 = End Stream: False" size="1" pos="70" show="0" value="0" unmaskedvalue="04"/>
        <field name="http2.flags.eh" showname=".... .1.. = End Headers: True" size="1" pos="70" show="1" value="1" unmaskedvalue="04"/>
        <field name="http2.flags.padded" showname=".... 0... = Padded: False" size="1" pos="70" show="0" value="0" unmaskedvalue="04"/>
        <field name="http2.flags.priority" showname="..0. .... = Priority: False" size="1" pos="70" show="0" value="0" unmaskedvalue="04"/>
        <field name="http2.flags.unused_headers" showname="00.0 ..0. = Unused: 0x00" size="1" pos="70" show="0x00000000" value="0" unmaskedvalue="04"/>
      </field>
      <field name="http2.r" showname="0... .... .... .... .... .... .... .... = Reserved: 0x0" size="4" pos="71" show="0x00000000" value="0" unmaskedvalue="000005eb"/>
      <field name="http2.streamid" showname=".000 0000 0000 0000 0000 0101 1110 1011 = Stream Identifier: 1515" size="4" pos="71" show="1515" value="5EB" unmaskedvalue="000005eb"/>
      <field name="http2.pad_length" showname="Pad Length: 0" size="0" pos="75" show="0"/>
      <field name="http2.headers" showname="Header Block Fragment: c104ad62aaac956aa5a58ee162a956354848ea2150c37200\xe2\x80\xa6" size="57" pos="75" show="c1:04:ad:62:aa:ac:95:6a:a5:a5:8e:e1:62:a9:56:35:48:48:ea:21:50:c3:72:00:92:3f:2b:cb:4a:fb:e5:59:a0:96:45:9f:20:de:59:f9:4a:f1:42:db:2c:80:32:7f:86:c4:c2:c0:0f:0d:02:37:32" value="c104ad62aaac956aa5a58ee162a956354848ea2150c37200923f2bcb4afbe559a096459f20de59f94af142db2c80327f86c4c2c00f0d023732"/>
    </field>
  </proto>
</packet>


<packet>
  <proto name="geninfo" pos="0" showname="General information" size="147">
    <field name="num" pos="0" show="34" showname="Number" value="22" size="147"/>
    <field name="len" pos="0" show="147" showname="Frame Length" value="93" size="147"/>
    <field name="caplen" pos="0" show="147" showname="Captured Length" value="93" size="147"/>
    <field name="timestamp" pos="0" show="May 23, 2023 23:39:15.467327149 CEST" showname="Captured Time" value="1684877955.467327149" size="147"/>
  </proto>
  <proto name="frame" showname="Frame 34: 147 bytes on wire (1176 bits), 147 bytes captured (1176 bits) on interface veth_pcf, id 0" size="147" pos="0">
    <field name="filtered" value="frame" />
  </proto>
  <proto name="eth" showname="Ethernet II, Src: 8a:0b:87:b7:1e:40, Dst: 52:d4:2e:8b:e5:24" size="14" pos="0">
    <field name="filtered" value="eth" />
  </proto>
  <proto name="ip" showname="Internet Protocol Version 4, Src: 10.0.10.1, Dst: 10.0.8.1" size="20" pos="14">
    <field name="filtered" value="ip" />
  </proto>
  <proto name="tcp" showname="Transmission Control Protocol, Src Port: 46984, Dst Port: 7777, Seq: 3602932590, Ack: 1422993712, Len: 81" size="32" pos="34">
    <field name="tcp.srcport" showname="Source Port: 46984" size="2" pos="34" show="46984" value="b788"/>
    <field name="tcp.dstport" showname="Destination Port: 7777" size="2" pos="36" show="7777" value="1e61"/>
    <field name="tcp.port" showname="Source or Destination Port: 46984" hide="yes" size="2" pos="34" show="46984" value="b788"/>
    <field name="tcp.port" showname="Source or Destination Port: 7777" hide="yes" size="2" pos="36" show="7777" value="1e61"/>
    <field name="tcp.stream" showname="Stream index: 0" size="0" pos="34" show="0"/>
    <field name="tcp.len" showname="TCP Segment Len: 81" size="1" pos="46" show="81" value="80"/>
    <field name="tcp.seq" showname="Sequence number: 3602932590" size="4" pos="38" show="3602932590" value="d6c0636e"/>
    <field name="tcp.seq_raw" showname="Sequence number (raw): 3602932590" hide="yes" size="4" pos="38" show="3602932590" value="d6c0636e"/>
    <field name="tcp.nxtseq" showname="Next sequence number: 3602932671" size="0" pos="34" show="3602932671"/>
    <field name="tcp.ack" showname="Acknowledgment number: 1422993712" size="4" pos="42" show="1422993712" value="54d12930"/>
    <field name="tcp.ack_raw" showname="Acknowledgment number (raw): 1422993712" hide="yes" size="4" pos="42" show="1422993712" value="54d12930"/>
    <field name="tcp.hdr_len" showname="1000 .... = Header Length: 32 bytes (8)" size="1" pos="46" show="32" value="80"/>
    <field name="tcp.flags" showname="Flags: 0x018 (PSH, ACK)" size="2" pos="46" show="0x00000018" value="18" unmaskedvalue="8018">
      <field name="tcp.flags.res" showname="000. .... .... = Reserved: Not set" size="1" pos="46" show="0" value="0" unmaskedvalue="80"/>
      <field name="tcp.flags.ns" showname="...0 .... .... = Nonce: Not set" size="1" pos="46" show="0" value="0" unmaskedvalue="80"/>
      <field name="tcp.flags.cwr" showname=".... 0... .... = Congestion Window Reduced (CWR): Not set" size="1" pos="47" show="0" value="0" unmaskedvalue="18"/>
      <field name="tcp.flags.ecn" showname=".... .0.. .... = ECN-Echo: Not set" size="1" pos="47" show="0" value="0" unmaskedvalue="18"/>
      <field name="tcp.flags.urg" showname=".... ..0. .... = Urgent: Not set" size="1" pos="47" show="0" value="0" unmaskedvalue="18"/>
      <field name="tcp.flags.ack" showname=".... ...1 .... = Acknowledgment: Set" size="1" pos="47" show="1" value="1" unmaskedvalue="18"/>
      <field name="tcp.flags.push" showname=".... .... 1... = Push: Set" size="1" pos="47" show="1" value="1" unmaskedvalue="18"/>
      <field name="tcp.flags.reset" showname=".... .... .0.. = Reset: Not set" size="1" pos="47" show="0" value="0" unmaskedvalue="18"/>
      <field name="tcp.flags.syn" showname=".... .... ..0. = Syn: Not set" size="1" pos="47" show="0" value="0" unmaskedvalue="18"/>
      <field name="tcp.flags.fin" showname=".... .... ...0 = Fin: Not set" size="1" pos="47" show="0" value="0" unmaskedvalue="18"/>
      <field name="tcp.flags.str" showname="TCP Flags: \xc2\xb7\xc2\xb7\xc2\xb7\xc2\xb7\xc2\xb7\xc2\xb7\xc2\xb7AP\xc2\xb7\xc2\xb7\xc2\xb7" size="2" pos="46" show="\xc2\xb7\xc2\xb7\xc2\xb7\xc2\xb7\xc2\xb7\xc2\xb7\xc2\xb7AP\xc2\xb7\xc2\xb7\xc2\xb7" value="8018"/>
    </field>
    <field name="tcp.window_size_value" showname="Window size value: 501" size="2" pos="48" show="501" value="01f5"/>
    <field name="tcp.window_size" showname="Calculated window size: 501" size="2" pos="48" show="501" value="01f5"/>
    <field name="tcp.window_size_scalefactor" showname="Window size scaling factor: -1 (unknown)" size="2" pos="48" show="-1" value="01f5"/>
    <field name="tcp.checksum" showname="Checksum: 0x2679 [unverified]" size="2" pos="50" show="0x00002679" value="2679"/>
    <field name="tcp.checksum.status" showname="Checksum Status: Unverified" size="0" pos="50" show="2"/>
    <field name="tcp.urgent_pointer" showname="Urgent pointer: 0" size="2" pos="52" show="0" value="0000"/>
    <field name="tcp.options" showname="Options: (12 bytes), No-Operation (NOP), No-Operation (NOP), Timestamps" size="12" pos="54" show="01:01:08:0a:4f:45:9b:36:0b:e6:a3:da" value="0101080a4f459b360be6a3da">
      <field name="tcp.options.nop" showname="TCP Option - No-Operation (NOP)" size="1" pos="54" show="01" value="01">
        <field name="tcp.option_kind" showname="Kind: No-Operation (1)" size="1" pos="54" show="1" value="01"/>
      </field>
      <field name="tcp.options.nop" showname="TCP Option - No-Operation (NOP)" size="1" pos="55" show="01" value="01">
        <field name="tcp.option_kind" showname="Kind: No-Operation (1)" size="1" pos="55" show="1" value="01"/>
      </field>
      <field name="tcp.options.timestamp" showname="TCP Option - Timestamps: TSval 1329961782, TSecr 199664602" size="10" pos="56" show="08:0a:4f:45:9b:36:0b:e6:a3:da" value="080a4f459b360be6a3da">
        <field name="tcp.option_kind" showname="Kind: Time Stamp Option (8)" size="1" pos="56" show="8" value="08"/>
        <field name="tcp.option_len" showname="Length: 10" size="1" pos="57" show="10" value="0a"/>
        <field name="tcp.options.timestamp.tsval" showname="Timestamp value: 1329961782" size="4" pos="58" show="1329961782" value="4f459b36"/>
        <field name="tcp.options.timestamp.tsecr" showname="Timestamp echo reply: 199664602" size="4" pos="62" show="199664602" value="0be6a3da"/>
      </field>
    </field>
    <field name="" show="Timestamps" size="0" pos="34">
      <field name="tcp.time_relative" showname="Time since first frame in this TCP stream: 10.011204503 seconds" size="0" pos="34" show="10.011204503"/>
      <field name="tcp.time_delta" showname="Time since previous frame in this TCP stream: 0.000038387 seconds" size="0" pos="34" show="0.000038387"/>
    </field>
    <field name="tcp.payload" showname="TCP payload (81 bytes)" size="81" pos="66" show="00:00:48:00:01:00:00:05:eb:5b:7b:0a:09:09:22:6f:70:22:3a:09:22:72:65:70:6c:61:63:65:22:2c:0a:09:09:22:70:61:74:68:22:3a:09:22:2f:6e:66:53:74:61:74:75:73:22:2c:0a:09:09:22:76:61:6c:75:65:22:3a:09:22:52:45:47:49:53:54:45:52:45:44:22:0a:09:7d:5d" value="0000480001000005eb5b7b0a0909226f70223a09227265706c616365222c0a09092270617468223a09222f6e66537461747573222c0a09092276616c7565223a092252454749535445524544220a097d5d"/>
    <field name="tcp.pdu.size" showname="PDU Size: 81" size="81" pos="66" show="81" value="0000480001000005eb5b7b0a0909226f70223a09227265706c616365222c0a09092270617468223a09222f6e66537461747573222c0a09092276616c7565223a092252454749535445524544220a097d5d"/>
  </proto>
  <proto name="http2" showname="HyperText Transfer Protocol 2" size="81" pos="66">
    <field name="http2.stream" showname="Stream: DATA, Stream ID: 1515, Length 72" size="81" pos="66" show="" value="">
      <field name="http2.length" showname="Length: 72" size="3" pos="66" show="72" value="000048"/>
      <field name="http2.type" showname="Type: DATA (0)" size="1" pos="69" show="0" value="00"/>
      <field name="http2.flags" showname="Flags: 0x01" size="1" pos="70" show="0x00000001" value="01">
        <field name="http2.flags.end_stream" showname=".... ...1 = End Stream: True" size="1" pos="70" show="1" value="1" unmaskedvalue="01"/>
        <field name="http2.flags.padded" showname=".... 0... = Padded: False" size="1" pos="70" show="0" value="0" unmaskedvalue="01"/>
        <field name="http2.flags.unused_data" showname="0000 .00. = Unused: 0x00" size="1" pos="70" show="0x00000000" value="0" unmaskedvalue="01"/>
      </field>
      <field name="http2.r" showname="0... .... .... .... .... .... .... .... = Reserved: 0x0" size="4" pos="71" show="0x00000000" value="0" unmaskedvalue="000005eb"/>
      <field name="http2.streamid" showname=".000 0000 0000 0000 0000 0101 1110 1011 = Stream Identifier: 1515" size="4" pos="71" show="1515" value="5EB" unmaskedvalue="000005eb"/>
      <field name="http2.pad_length" showname="Pad Length: 0" size="0" pos="75" show="0"/>
      <field name="http2.data.data" showname="Data: 5b7b0a0909226f70223a09227265706c616365222c0a0909\xe2\x80\xa6" size="72" pos="75" show="5b:7b:0a:09:09:22:6f:70:22:3a:09:22:72:65:70:6c:61:63:65:22:2c:0a:09:09:22:70:61:74:68:22:3a:09:22:2f:6e:66:53:74:61:74:75:73:22:2c:0a:09:09:22:76:61:6c:75:65:22:3a:09:22:52:45:47:49:53:54:45:52:45:44:22:0a:09:7d:5d" value="5b7b0a0909226f70223a09227265706c616365222c0a09092270617468223a09222f6e66537461747573222c0a09092276616c7565223a092252454749535445524544220a097d5d"/>
    </field>
  </proto>
</packet>


<packet>
  <proto name="geninfo" pos="0" showname="General information" size="101">
    <field name="num" pos="0" show="36" showname="Number" value="24" size="101"/>
    <field name="len" pos="0" show="101" showname="Frame Length" value="65" size="101"/>
    <field name="caplen" pos="0" show="101" showname="Captured Length" value="65" size="101"/>
    <field name="timestamp" pos="0" show="May 23, 2023 23:39:15.469194890 CEST" showname="Captured Time" value="1684877955.469194890" size="101"/>
  </proto>
  <proto name="frame" showname="Frame 36: 101 bytes on wire (808 bits), 101 bytes captured (808 bits) on interface veth_pcf, id 0" size="101" pos="0">
    <field name="filtered" value="frame" />
  </proto>
  <proto name="eth" showname="Ethernet II, Src: 52:d4:2e:8b:e5:24, Dst: 8a:0b:87:b7:1e:40" size="14" pos="0">
    <field name="filtered" value="eth" />
  </proto>
  <proto name="ip" showname="Internet Protocol Version 4, Src: 10.0.8.1, Dst: 10.0.10.1" size="20" pos="14">
    <field name="filtered" value="ip" />
  </proto>
  <proto name="tcp" showname="Transmission Control Protocol, Src Port: 7777, Dst Port: 46984, Seq: 1422993712, Ack: 3602932671, Len: 35" size="32" pos="34">
    <field name="tcp.srcport" showname="Source Port: 7777" size="2" pos="34" show="7777" value="1e61"/>
    <field name="tcp.dstport" showname="Destination Port: 46984" size="2" pos="36" show="46984" value="b788"/>
    <field name="tcp.port" showname="Source or Destination Port: 7777" hide="yes" size="2" pos="34" show="7777" value="1e61"/>
    <field name="tcp.port" showname="Source or Destination Port: 46984" hide="yes" size="2" pos="36" show="46984" value="b788"/>
    <field name="tcp.stream" showname="Stream index: 0" size="0" pos="34" show="0"/>
    <field name="tcp.len" showname="TCP Segment Len: 35" size="1" pos="46" show="35" value="80"/>
    <field name="tcp.seq" showname="Sequence number: 1422993712" size="4" pos="38" show="1422993712" value="54d12930"/>
    <field name="tcp.seq_raw" showname="Sequence number (raw): 1422993712" hide="yes" size="4" pos="38" show="1422993712" value="54d12930"/>
    <field name="tcp.nxtseq" showname="Next sequence number: 1422993747" size="0" pos="34" show="1422993747"/>
    <field name="tcp.ack" showname="Acknowledgment number: 3602932671" size="4" pos="42" show="3602932671" value="d6c063bf"/>
    <field name="tcp.ack_raw" showname="Acknowledgment number (raw): 3602932671" hide="yes" size="4" pos="42" show="3602932671" value="d6c063bf"/>
    <field name="tcp.hdr_len" showname="1000 .... = Header Length: 32 bytes (8)" size="1" pos="46" show="32" value="80"/>
    <field name="tcp.flags" showname="Flags: 0x018 (PSH, ACK)" size="2" pos="46" show="0x00000018" value="18" unmaskedvalue="8018">
      <field name="tcp.flags.res" showname="000. .... .... = Reserved: Not set" size="1" pos="46" show="0" value="0" unmaskedvalue="80"/>
      <field name="tcp.flags.ns" showname="...0 .... .... = Nonce: Not set" size="1" pos="46" show="0" value="0" unmaskedvalue="80"/>
      <field name="tcp.flags.cwr" showname=".... 0... .... = Congestion Window Reduced (CWR): Not set" size="1" pos="47" show="0" value="0" unmaskedvalue="18"/>
      <field name="tcp.flags.ecn" showname=".... .0.. .... = ECN-Echo: Not set" size="1" pos="47" show="0" value="0" unmaskedvalue="18"/>
      <field name="tcp.flags.urg" showname=".... ..0. .... = Urgent: Not set" size="1" pos="47" show="0" value="0" unmaskedvalue="18"/>
      <field name="tcp.flags.ack" showname=".... ...1 .... = Acknowledgment: Set" size="1" pos="47" show="1" value="1" unmaskedvalue="18"/>
      <field name="tcp.flags.push" showname=".... .... 1... = Push: Set" size="1" pos="47" show="1" value="1" unmaskedvalue="18"/>
      <field name="tcp.flags.reset" showname=".... .... .0.. = Reset: Not set" size="1" pos="47" show="0" value="0" unmaskedvalue="18"/>
      <field name="tcp.flags.syn" showname=".... .... ..0. = Syn: Not set" size="1" pos="47" show="0" value="0" unmaskedvalue="18"/>
      <field name="tcp.flags.fin" showname=".... .... ...0 = Fin: Not set" size="1" pos="47" show="0" value="0" unmaskedvalue="18"/>
      <field name="tcp.flags.str" showname="TCP Flags: \xc2\xb7\xc2\xb7\xc2\xb7\xc2\xb7\xc2\xb7\xc2\xb7\xc2\xb7AP\xc2\xb7\xc2\xb7\xc2\xb7" size="2" pos="46" show="\xc2\xb7\xc2\xb7\xc2\xb7\xc2\xb7\xc2\xb7\xc2\xb7\xc2\xb7AP\xc2\xb7\xc2\xb7\xc2\xb7" value="8018"/>
    </field>
    <field name="tcp.window_size_value" showname="Window size value: 716" size="2" pos="48" show="716" value="02cc"/>
    <field name="tcp.window_size" showname="Calculated window size: 716" size="2" pos="48" show="716" value="02cc"/>
    <field name="tcp.window_size_scalefactor" showname="Window size scaling factor: -1 (unknown)" size="2" pos="48" show="-1" value="02cc"/>
    <field name="tcp.checksum" showname="Checksum: 0x264b [unverified]" size="2" pos="50" show="0x0000264b" value="264b"/>
    <field name="tcp.checksum.status" showname="Checksum Status: Unverified" size="0" pos="50" show="2"/>
    <field name="tcp.urgent_pointer" showname="Urgent pointer: 0" size="2" pos="52" show="0" value="0000"/>
    <field name="tcp.options" showname="Options: (12 bytes), No-Operation (NOP), No-Operation (NOP), Timestamps" size="12" pos="54" show="01:01:08:0a:0b:e6:ca:f7:4f:45:9b:36" value="0101080a0be6caf74f459b36">
      <field name="tcp.options.nop" showname="TCP Option - No-Operation (NOP)" size="1" pos="54" show="01" value="01">
        <field name="tcp.option_kind" showname="Kind: No-Operation (1)" size="1" pos="54" show="1" value="01"/>
      </field>
      <field name="tcp.options.nop" showname="TCP Option - No-Operation (NOP)" size="1" pos="55" show="01" value="01">
        <field name="tcp.option_kind" showname="Kind: No-Operation (1)" size="1" pos="55" show="1" value="01"/>
      </field>
      <field name="tcp.options.timestamp" showname="TCP Option - Timestamps: TSval 199674615, TSecr 1329961782" size="10" pos="56" show="08:0a:0b:e6:ca:f7:4f:45:9b:36" value="080a0be6caf74f459b36">
        <field name="tcp.option_kind" showname="Kind: Time Stamp Option (8)" size="1" pos="56" show="8" value="08"/>
        <field name="tcp.option_len" showname="Length: 10" size="1" pos="57" show="10" value="0a"/>
        <field name="tcp.options.timestamp.tsval" showname="Timestamp value: 199674615" size="4" pos="58" show="199674615" value="0be6caf7"/>
        <field name="tcp.options.timestamp.tsecr" showname="Timestamp echo reply: 1329961782" size="4" pos="62" show="1329961782" value="4f459b36"/>
      </field>
    </field>
    <field name="" show="Timestamps" size="0" pos="34">
      <field name="tcp.time_relative" showname="Time since first frame in this TCP stream: 10.013072244 seconds" size="0" pos="34" show="10.013072244"/>
      <field name="tcp.time_delta" showname="Time since previous frame in this TCP stream: 0.001157011 seconds" size="0" pos="34" show="0.001157011"/>
    </field>
    <field name="tcp.payload" showname="TCP payload (35 bytes)" size="35" pos="66" show="00:00:1a:01:05:00:00:05:eb:89:ea:61:96:df:69:7e:94:13:2a:68:1f:a5:04:01:32:a0:83:71:97:ee:05:b5:31:68:df" value="00001a0105000005eb89ea6196df697e94132a681fa5040132a0837197ee05b53168df"/>
    <field name="tcp.pdu.size" showname="PDU Size: 35" size="35" pos="66" show="35" value="00001a0105000005eb89ea6196df697e94132a681fa5040132a0837197ee05b53168df"/>
  </proto>
  <proto name="http2" showname="HyperText Transfer Protocol 2" size="35" pos="66">
    <field name="http2.stream" showname="Stream: HEADERS, Stream ID: 1515, Length 26" size="35" pos="66" show="" value="">
      <field name="http2.length" showname="Length: 26" size="3" pos="66" show="26" value="00001a"/>
      <field name="http2.type" showname="Type: HEADERS (1)" size="1" pos="69" show="1" value="01"/>
      <field name="http2.flags" showname="Flags: 0x05" size="1" pos="70" show="0x00000005" value="05">
        <field name="http2.flags.end_stream" showname=".... ...1 = End Stream: True" size="1" pos="70" show="1" value="1" unmaskedvalue="05"/>
        <field name="http2.flags.eh" showname=".... .1.. = End Headers: True" size="1" pos="70" show="1" value="1" unmaskedvalue="05"/>
        <field name="http2.flags.padded" showname=".... 0... = Padded: False" size="1" pos="70" show="0" value="0" unmaskedvalue="05"/>
        <field name="http2.flags.priority" showname="..0. .... = Priority: False" size="1" pos="70" show="0" value="0" unmaskedvalue="05"/>
        <field name="http2.flags.unused_headers" showname="00.0 ..0. = Unused: 0x00" size="1" pos="70" show="0x00000000" value="0" unmaskedvalue="05"/>
      </field>
      <field name="http2.r" showname="0... .... .... .... .... .... .... .... = Reserved: 0x0" size="4" pos="71" show="0x00000000" value="0" unmaskedvalue="000005eb"/>
      <field name="http2.streamid" showname=".000 0000 0000 0000 0000 0101 1110 1011 = Stream Identifier: 1515" size="4" pos="71" show="1515" value="5EB" unmaskedvalue="000005eb"/>
      <field name="http2.pad_length" showname="Pad Length: 0" size="0" pos="75" show="0"/>
      <field name="http2.headers" showname="Header Block Fragment: 89ea6196df697e94132a681fa5040132a0837197ee05b531\xe2\x80\xa6" size="26" pos="75" show="89:ea:61:96:df:69:7e:94:13:2a:68:1f:a5:04:01:32:a0:83:71:97:ee:05:b5:31:68:df" value="89ea6196df697e94132a681fa5040132a0837197ee05b53168df"/>
    </field>
  </proto>
</packet>


</pdml>
