<?xml version="1.0" encoding="utf-8"?>
<?xml-stylesheet type="text/xsl" href="pdml2html.xsl"?>
<!-- You can find pdml2html.xsl in /usr/share/wireshark or at https://code.wireshark.org/review/gitweb?p=wireshark.git;a=blob_plain;f=pdml2html.xsl. -->
<pdml version="0" creator="wireshark/3.2.3" time="Mon Dec 12 15:13:03 2022" capture_file="../5G/PCAPS/Core/preliminary_pcap.pcapng">
<packet>
  <proto name="geninfo" pos="0" showname="General information" size="60">
    <field name="num" pos="0" show="1095" showname="Number" value="447" size="60"/>
    <field name="len" pos="0" show="60" showname="Frame Length" value="3c" size="60"/>
    <field name="caplen" pos="0" show="60" showname="Captured Length" value="3c" size="60"/>
    <field name="timestamp" pos="0" show="Dec  9, 2022 18:42:15.525887120 CET" showname="Captured Time" value="1670607735.525887120" size="60"/>
  </proto>
  <proto name="frame" showname="Frame 1095: 60 bytes on wire (480 bits), 60 bytes captured (480 bits) on interface any, id 0" size="60" pos="0">
    <field name="filtered" value="frame" />
  </proto>
  <proto name="sll" showname="Linux cooked capture" size="16" pos="0">
    <field name="filtered" value="sll" />
  </proto>
  <proto name="ip" showname="Internet Protocol Version 4, Src: 127.0.0.4, Dst: 127.0.0.7" size="20" pos="16">
    <field name="filtered" value="ip" />
  </proto>
  <proto name="udp" showname="User Datagram Protocol, Src Port: 8805, Dst Port: 8805" size="8" pos="36">
    <field name="filtered" value="udp" />
  </proto>
  <proto name="pfcp" showname="Packet Forwarding Control Protocol" size="16" pos="44">
    <field name="pfcp.flags" showname="Flags: 0x20" size="1" pos="44" show="0x00000020" value="20">
      <field name="pfcp.version" showname="001. .... = Version: 1" size="1" pos="44" show="1" value="1" unmaskedvalue="20"/>
      <field name="pfcp.spare_b4" showname="...0 .... = Spare: 0" size="1" pos="44" show="0" value="0" unmaskedvalue="20"/>
      <field name="pfcp.spare_b3" showname=".... 0... = Spare: 0" size="1" pos="44" show="0" value="0" unmaskedvalue="20"/>
      <field name="pfcp.spare_b2" showname=".... .0.. = Spare: 0" size="1" pos="44" show="0" value="0" unmaskedvalue="20"/>
      <field name="pfcp.mp_flag" showname=".... ..0. = Message Priority (MP): False" size="1" pos="44" show="0" value="0" unmaskedvalue="20"/>
      <field name="pfcp.s" showname=".... ...0 = SEID (S): False" size="1" pos="44" show="0" value="0" unmaskedvalue="20"/>
    </field>
    <field name="pfcp.msg_type" showname="Message Type: PFCP Heartbeat Request (1)" size="1" pos="45" show="1" value="01"/>
    <field name="pfcp.length" showname="Length: 12" size="2" pos="46" show="12" value="000c"/>
    <field name="pfcp.seqno" showname="Sequence Number: 2718" size="3" pos="48" show="2718" value="000a9e"/>
    <field name="pfcp.spare_oct" showname="Spare: 0" size="1" pos="51" show="0" value="00"/>
    <field name="" show="Recovery Time Stamp : Dec  8, 2022 14:26:24.000000000 UTC" size="8" pos="52" value="00600004e73c7290">
      <field name="pfcp.ie_type" showname="IE Type: Recovery Time Stamp (96)" size="2" pos="52" show="96" value="0060"/>
      <field name="pfcp.ie_len" showname="IE Length: 4" size="2" pos="54" show="4" value="0004"/>
      <field name="pfcp.recovery_time_stamp" showname="Recovery Time Stamp: Dec  8, 2022 14:26:24.000000000 UTC" size="4" pos="56" show="Dec  8, 2022 15:26:24.000000000 CET" value="e73c7290"/>
    </field>
    <field name="pfcp.response_in" showname="Response In: 1100" size="0" pos="44" show="1100"/>
  </proto>
</packet>


<packet>
  <proto name="geninfo" pos="0" showname="General information" size="60">
    <field name="num" pos="0" show="1100" showname="Number" value="44c" size="60"/>
    <field name="len" pos="0" show="60" showname="Frame Length" value="3c" size="60"/>
    <field name="caplen" pos="0" show="60" showname="Captured Length" value="3c" size="60"/>
    <field name="timestamp" pos="0" show="Dec  9, 2022 18:42:15.526729474 CET" showname="Captured Time" value="1670607735.526729474" size="60"/>
  </proto>
  <proto name="frame" showname="Frame 1100: 60 bytes on wire (480 bits), 60 bytes captured (480 bits) on interface any, id 0" size="60" pos="0">
    <field name="filtered" value="frame" />
  </proto>
  <proto name="sll" showname="Linux cooked capture" size="16" pos="0">
    <field name="filtered" value="sll" />
  </proto>
  <proto name="ip" showname="Internet Protocol Version 4, Src: 127.0.0.7, Dst: 127.0.0.4" size="20" pos="16">
    <field name="filtered" value="ip" />
  </proto>
  <proto name="udp" showname="User Datagram Protocol, Src Port: 8805, Dst Port: 8805" size="8" pos="36">
    <field name="filtered" value="udp" />
  </proto>
  <proto name="pfcp" showname="Packet Forwarding Control Protocol" size="16" pos="44">
    <field name="pfcp.flags" showname="Flags: 0x20" size="1" pos="44" show="0x00000020" value="20">
      <field name="pfcp.version" showname="001. .... = Version: 1" size="1" pos="44" show="1" value="1" unmaskedvalue="20"/>
      <field name="pfcp.spare_b4" showname="...0 .... = Spare: 0" size="1" pos="44" show="0" value="0" unmaskedvalue="20"/>
      <field name="pfcp.spare_b3" showname=".... 0... = Spare: 0" size="1" pos="44" show="0" value="0" unmaskedvalue="20"/>
      <field name="pfcp.spare_b2" showname=".... .0.. = Spare: 0" size="1" pos="44" show="0" value="0" unmaskedvalue="20"/>
      <field name="pfcp.mp_flag" showname=".... ..0. = Message Priority (MP): False" size="1" pos="44" show="0" value="0" unmaskedvalue="20"/>
      <field name="pfcp.s" showname=".... ...0 = SEID (S): False" size="1" pos="44" show="0" value="0" unmaskedvalue="20"/>
    </field>
    <field name="pfcp.msg_type" showname="Message Type: PFCP Heartbeat Response (2)" size="1" pos="45" show="2" value="02"/>
    <field name="pfcp.length" showname="Length: 12" size="2" pos="46" show="12" value="000c"/>
    <field name="pfcp.seqno" showname="Sequence Number: 2718" size="3" pos="48" show="2718" value="000a9e"/>
    <field name="pfcp.spare_oct" showname="Spare: 0" size="1" pos="51" show="0" value="00"/>
    <field name="" show="Recovery Time Stamp : Dec  8, 2022 14:26:24.000000000 UTC" size="8" pos="52" value="00600004e73c7290">
      <field name="pfcp.ie_type" showname="IE Type: Recovery Time Stamp (96)" size="2" pos="52" show="96" value="0060"/>
      <field name="pfcp.ie_len" showname="IE Length: 4" size="2" pos="54" show="4" value="0004"/>
      <field name="pfcp.recovery_time_stamp" showname="Recovery Time Stamp: Dec  8, 2022 14:26:24.000000000 UTC" size="4" pos="56" show="Dec  8, 2022 15:26:24.000000000 CET" value="e73c7290"/>
    </field>
    <field name="pfcp.response_to" showname="Response To: 1095" size="0" pos="44" show="1095"/>
    <field name="pfcp.response_time" showname="Response Time: 0.000842354 seconds" size="0" pos="44" show="0.000842354"/>
  </proto>
</packet>


<packet>
  <proto name="geninfo" pos="0" showname="General information" size="60">
    <field name="num" pos="0" show="1107" showname="Number" value="453" size="60"/>
    <field name="len" pos="0" show="60" showname="Frame Length" value="3c" size="60"/>
    <field name="caplen" pos="0" show="60" showname="Captured Length" value="3c" size="60"/>
    <field name="timestamp" pos="0" show="Dec  9, 2022 18:42:15.529061794 CET" showname="Captured Time" value="1670607735.529061794" size="60"/>
  </proto>
  <proto name="frame" showname="Frame 1107: 60 bytes on wire (480 bits), 60 bytes captured (480 bits) on interface any, id 0" size="60" pos="0">
    <field name="filtered" value="frame" />
  </proto>
  <proto name="sll" showname="Linux cooked capture" size="16" pos="0">
    <field name="filtered" value="sll" />
  </proto>
  <proto name="ip" showname="Internet Protocol Version 4, Src: 127.0.0.7, Dst: 127.0.0.4" size="20" pos="16">
    <field name="filtered" value="ip" />
  </proto>
  <proto name="udp" showname="User Datagram Protocol, Src Port: 8805, Dst Port: 8805" size="8" pos="36">
    <field name="filtered" value="udp" />
  </proto>
  <proto name="pfcp" showname="Packet Forwarding Control Protocol" size="16" pos="44">
    <field name="pfcp.flags" showname="Flags: 0x20" size="1" pos="44" show="0x00000020" value="20">
      <field name="pfcp.version" showname="001. .... = Version: 1" size="1" pos="44" show="1" value="1" unmaskedvalue="20"/>
      <field name="pfcp.spare_b4" showname="...0 .... = Spare: 0" size="1" pos="44" show="0" value="0" unmaskedvalue="20"/>
      <field name="pfcp.spare_b3" showname=".... 0... = Spare: 0" size="1" pos="44" show="0" value="0" unmaskedvalue="20"/>
      <field name="pfcp.spare_b2" showname=".... .0.. = Spare: 0" size="1" pos="44" show="0" value="0" unmaskedvalue="20"/>
      <field name="pfcp.mp_flag" showname=".... ..0. = Message Priority (MP): False" size="1" pos="44" show="0" value="0" unmaskedvalue="20"/>
      <field name="pfcp.s" showname=".... ...0 = SEID (S): False" size="1" pos="44" show="0" value="0" unmaskedvalue="20"/>
    </field>
    <field name="pfcp.msg_type" showname="Message Type: PFCP Heartbeat Request (1)" size="1" pos="45" show="1" value="01"/>
    <field name="pfcp.length" showname="Length: 12" size="2" pos="46" show="12" value="000c"/>
    <field name="pfcp.seqno" showname="Sequence Number: 2451" size="3" pos="48" show="2451" value="000993"/>
    <field name="pfcp.spare_oct" showname="Spare: 0" size="1" pos="51" show="0" value="00"/>
    <field name="" show="Recovery Time Stamp : Dec  8, 2022 14:26:24.000000000 UTC" size="8" pos="52" value="00600004e73c7290">
      <field name="pfcp.ie_type" showname="IE Type: Recovery Time Stamp (96)" size="2" pos="52" show="96" value="0060"/>
      <field name="pfcp.ie_len" showname="IE Length: 4" size="2" pos="54" show="4" value="0004"/>
      <field name="pfcp.recovery_time_stamp" showname="Recovery Time Stamp: Dec  8, 2022 14:26:24.000000000 UTC" size="4" pos="56" show="Dec  8, 2022 15:26:24.000000000 CET" value="e73c7290"/>
    </field>
    <field name="pfcp.response_in" showname="Response In: 1110" size="0" pos="44" show="1110"/>
  </proto>
</packet>


<packet>
  <proto name="geninfo" pos="0" showname="General information" size="60">
    <field name="num" pos="0" show="1110" showname="Number" value="456" size="60"/>
    <field name="len" pos="0" show="60" showname="Frame Length" value="3c" size="60"/>
    <field name="caplen" pos="0" show="60" showname="Captured Length" value="3c" size="60"/>
    <field name="timestamp" pos="0" show="Dec  9, 2022 18:42:15.529572397 CET" showname="Captured Time" value="1670607735.529572397" size="60"/>
  </proto>
  <proto name="frame" showname="Frame 1110: 60 bytes on wire (480 bits), 60 bytes captured (480 bits) on interface any, id 0" size="60" pos="0">
    <field name="filtered" value="frame" />
  </proto>
  <proto name="sll" showname="Linux cooked capture" size="16" pos="0">
    <field name="filtered" value="sll" />
  </proto>
  <proto name="ip" showname="Internet Protocol Version 4, Src: 127.0.0.4, Dst: 127.0.0.7" size="20" pos="16">
    <field name="filtered" value="ip" />
  </proto>
  <proto name="udp" showname="User Datagram Protocol, Src Port: 8805, Dst Port: 8805" size="8" pos="36">
    <field name="filtered" value="udp" />
  </proto>
  <proto name="pfcp" showname="Packet Forwarding Control Protocol" size="16" pos="44">
    <field name="pfcp.flags" showname="Flags: 0x20" size="1" pos="44" show="0x00000020" value="20">
      <field name="pfcp.version" showname="001. .... = Version: 1" size="1" pos="44" show="1" value="1" unmaskedvalue="20"/>
      <field name="pfcp.spare_b4" showname="...0 .... = Spare: 0" size="1" pos="44" show="0" value="0" unmaskedvalue="20"/>
      <field name="pfcp.spare_b3" showname=".... 0... = Spare: 0" size="1" pos="44" show="0" value="0" unmaskedvalue="20"/>
      <field name="pfcp.spare_b2" showname=".... .0.. = Spare: 0" size="1" pos="44" show="0" value="0" unmaskedvalue="20"/>
      <field name="pfcp.mp_flag" showname=".... ..0. = Message Priority (MP): False" size="1" pos="44" show="0" value="0" unmaskedvalue="20"/>
      <field name="pfcp.s" showname=".... ...0 = SEID (S): False" size="1" pos="44" show="0" value="0" unmaskedvalue="20"/>
    </field>
    <field name="pfcp.msg_type" showname="Message Type: PFCP Heartbeat Response (2)" size="1" pos="45" show="2" value="02"/>
    <field name="pfcp.length" showname="Length: 12" size="2" pos="46" show="12" value="000c"/>
    <field name="pfcp.seqno" showname="Sequence Number: 2451" size="3" pos="48" show="2451" value="000993"/>
    <field name="pfcp.spare_oct" showname="Spare: 0" size="1" pos="51" show="0" value="00"/>
    <field name="" show="Recovery Time Stamp : Dec  8, 2022 14:26:24.000000000 UTC" size="8" pos="52" value="00600004e73c7290">
      <field name="pfcp.ie_type" showname="IE Type: Recovery Time Stamp (96)" size="2" pos="52" show="96" value="0060"/>
      <field name="pfcp.ie_len" showname="IE Length: 4" size="2" pos="54" show="4" value="0004"/>
      <field name="pfcp.recovery_time_stamp" showname="Recovery Time Stamp: Dec  8, 2022 14:26:24.000000000 UTC" size="4" pos="56" show="Dec  8, 2022 15:26:24.000000000 CET" value="e73c7290"/>
    </field>
    <field name="pfcp.response_to" showname="Response To: 1107" size="0" pos="44" show="1107"/>
    <field name="pfcp.response_time" showname="Response Time: 0.000510603 seconds" size="0" pos="44" show="0.000510603"/>
  </proto>
</packet>


<packet>
  <proto name="geninfo" pos="0" showname="General information" size="60">
    <field name="num" pos="0" show="1163" showname="Number" value="48b" size="60"/>
    <field name="len" pos="0" show="60" showname="Frame Length" value="3c" size="60"/>
    <field name="caplen" pos="0" show="60" showname="Captured Length" value="3c" size="60"/>
    <field name="timestamp" pos="0" show="Dec  9, 2022 18:42:15.553189648 CET" showname="Captured Time" value="1670607735.553189648" size="60"/>
  </proto>
  <proto name="frame" showname="Frame 1163: 60 bytes on wire (480 bits), 60 bytes captured (480 bits) on interface any, id 0" size="60" pos="0">
    <field name="filtered" value="frame" />
  </proto>
  <proto name="sll" showname="Linux cooked capture" size="16" pos="0">
    <field name="filtered" value="sll" />
  </proto>
  <proto name="ip" showname="Internet Protocol Version 4, Src: 127.0.0.6, Dst: 127.0.0.3" size="20" pos="16">
    <field name="filtered" value="ip" />
  </proto>
  <proto name="udp" showname="User Datagram Protocol, Src Port: 8805, Dst Port: 8805" size="8" pos="36">
    <field name="filtered" value="udp" />
  </proto>
  <proto name="pfcp" showname="Packet Forwarding Control Protocol" size="16" pos="44">
    <field name="pfcp.flags" showname="Flags: 0x20" size="1" pos="44" show="0x00000020" value="20">
      <field name="pfcp.version" showname="001. .... = Version: 1" size="1" pos="44" show="1" value="1" unmaskedvalue="20"/>
      <field name="pfcp.spare_b4" showname="...0 .... = Spare: 0" size="1" pos="44" show="0" value="0" unmaskedvalue="20"/>
      <field name="pfcp.spare_b3" showname=".... 0... = Spare: 0" size="1" pos="44" show="0" value="0" unmaskedvalue="20"/>
      <field name="pfcp.spare_b2" showname=".... .0.. = Spare: 0" size="1" pos="44" show="0" value="0" unmaskedvalue="20"/>
      <field name="pfcp.mp_flag" showname=".... ..0. = Message Priority (MP): False" size="1" pos="44" show="0" value="0" unmaskedvalue="20"/>
      <field name="pfcp.s" showname=".... ...0 = SEID (S): False" size="1" pos="44" show="0" value="0" unmaskedvalue="20"/>
    </field>
    <field name="pfcp.msg_type" showname="Message Type: PFCP Heartbeat Request (1)" size="1" pos="45" show="1" value="01"/>
    <field name="pfcp.length" showname="Length: 12" size="2" pos="46" show="12" value="000c"/>
    <field name="pfcp.seqno" showname="Sequence Number: 2455" size="3" pos="48" show="2455" value="000997"/>
    <field name="pfcp.spare_oct" showname="Spare: 0" size="1" pos="51" show="0" value="00"/>
    <field name="" show="Recovery Time Stamp : Dec  8, 2022 14:26:24.000000000 UTC" size="8" pos="52" value="00600004e73c7290">
      <field name="pfcp.ie_type" showname="IE Type: Recovery Time Stamp (96)" size="2" pos="52" show="96" value="0060"/>
      <field name="pfcp.ie_len" showname="IE Length: 4" size="2" pos="54" show="4" value="0004"/>
      <field name="pfcp.recovery_time_stamp" showname="Recovery Time Stamp: Dec  8, 2022 14:26:24.000000000 UTC" size="4" pos="56" show="Dec  8, 2022 15:26:24.000000000 CET" value="e73c7290"/>
    </field>
    <field name="pfcp.response_in" showname="Response In: 1164" size="0" pos="44" show="1164"/>
  </proto>
</packet>


<packet>
  <proto name="geninfo" pos="0" showname="General information" size="60">
    <field name="num" pos="0" show="1164" showname="Number" value="48c" size="60"/>
    <field name="len" pos="0" show="60" showname="Frame Length" value="3c" size="60"/>
    <field name="caplen" pos="0" show="60" showname="Captured Length" value="3c" size="60"/>
    <field name="timestamp" pos="0" show="Dec  9, 2022 18:42:15.553319851 CET" showname="Captured Time" value="1670607735.553319851" size="60"/>
  </proto>
  <proto name="frame" showname="Frame 1164: 60 bytes on wire (480 bits), 60 bytes captured (480 bits) on interface any, id 0" size="60" pos="0">
    <field name="filtered" value="frame" />
  </proto>
  <proto name="sll" showname="Linux cooked capture" size="16" pos="0">
    <field name="filtered" value="sll" />
  </proto>
  <proto name="ip" showname="Internet Protocol Version 4, Src: 127.0.0.3, Dst: 127.0.0.6" size="20" pos="16">
    <field name="filtered" value="ip" />
  </proto>
  <proto name="udp" showname="User Datagram Protocol, Src Port: 8805, Dst Port: 8805" size="8" pos="36">
    <field name="filtered" value="udp" />
  </proto>
  <proto name="pfcp" showname="Packet Forwarding Control Protocol" size="16" pos="44">
    <field name="pfcp.flags" showname="Flags: 0x20" size="1" pos="44" show="0x00000020" value="20">
      <field name="pfcp.version" showname="001. .... = Version: 1" size="1" pos="44" show="1" value="1" unmaskedvalue="20"/>
      <field name="pfcp.spare_b4" showname="...0 .... = Spare: 0" size="1" pos="44" show="0" value="0" unmaskedvalue="20"/>
      <field name="pfcp.spare_b3" showname=".... 0... = Spare: 0" size="1" pos="44" show="0" value="0" unmaskedvalue="20"/>
      <field name="pfcp.spare_b2" showname=".... .0.. = Spare: 0" size="1" pos="44" show="0" value="0" unmaskedvalue="20"/>
      <field name="pfcp.mp_flag" showname=".... ..0. = Message Priority (MP): False" size="1" pos="44" show="0" value="0" unmaskedvalue="20"/>
      <field name="pfcp.s" showname=".... ...0 = SEID (S): False" size="1" pos="44" show="0" value="0" unmaskedvalue="20"/>
    </field>
    <field name="pfcp.msg_type" showname="Message Type: PFCP Heartbeat Response (2)" size="1" pos="45" show="2" value="02"/>
    <field name="pfcp.length" showname="Length: 12" size="2" pos="46" show="12" value="000c"/>
    <field name="pfcp.seqno" showname="Sequence Number: 2455" size="3" pos="48" show="2455" value="000997"/>
    <field name="pfcp.spare_oct" showname="Spare: 0" size="1" pos="51" show="0" value="00"/>
    <field name="" show="Recovery Time Stamp : Dec  8, 2022 14:26:24.000000000 UTC" size="8" pos="52" value="00600004e73c7290">
      <field name="pfcp.ie_type" showname="IE Type: Recovery Time Stamp (96)" size="2" pos="52" show="96" value="0060"/>
      <field name="pfcp.ie_len" showname="IE Length: 4" size="2" pos="54" show="4" value="0004"/>
      <field name="pfcp.recovery_time_stamp" showname="Recovery Time Stamp: Dec  8, 2022 14:26:24.000000000 UTC" size="4" pos="56" show="Dec  8, 2022 15:26:24.000000000 CET" value="e73c7290"/>
    </field>
    <field name="pfcp.response_to" showname="Response To: 1163" size="0" pos="44" show="1163"/>
    <field name="pfcp.response_time" showname="Response Time: 0.000130203 seconds" size="0" pos="44" show="0.000130203"/>
  </proto>
</packet>


<packet>
  <proto name="geninfo" pos="0" showname="General information" size="60">
    <field name="num" pos="0" show="1165" showname="Number" value="48d" size="60"/>
    <field name="len" pos="0" show="60" showname="Frame Length" value="3c" size="60"/>
    <field name="caplen" pos="0" show="60" showname="Captured Length" value="3c" size="60"/>
    <field name="timestamp" pos="0" show="Dec  9, 2022 18:42:15.553354855 CET" showname="Captured Time" value="1670607735.553354855" size="60"/>
  </proto>
  <proto name="frame" showname="Frame 1165: 60 bytes on wire (480 bits), 60 bytes captured (480 bits) on interface any, id 0" size="60" pos="0">
    <field name="filtered" value="frame" />
  </proto>
  <proto name="sll" showname="Linux cooked capture" size="16" pos="0">
    <field name="filtered" value="sll" />
  </proto>
  <proto name="ip" showname="Internet Protocol Version 4, Src: 127.0.0.3, Dst: 127.0.0.6" size="20" pos="16">
    <field name="filtered" value="ip" />
  </proto>
  <proto name="udp" showname="User Datagram Protocol, Src Port: 8805, Dst Port: 8805" size="8" pos="36">
    <field name="filtered" value="udp" />
  </proto>
  <proto name="pfcp" showname="Packet Forwarding Control Protocol" size="16" pos="44">
    <field name="pfcp.flags" showname="Flags: 0x20" size="1" pos="44" show="0x00000020" value="20">
      <field name="pfcp.version" showname="001. .... = Version: 1" size="1" pos="44" show="1" value="1" unmaskedvalue="20"/>
      <field name="pfcp.spare_b4" showname="...0 .... = Spare: 0" size="1" pos="44" show="0" value="0" unmaskedvalue="20"/>
      <field name="pfcp.spare_b3" showname=".... 0... = Spare: 0" size="1" pos="44" show="0" value="0" unmaskedvalue="20"/>
      <field name="pfcp.spare_b2" showname=".... .0.. = Spare: 0" size="1" pos="44" show="0" value="0" unmaskedvalue="20"/>
      <field name="pfcp.mp_flag" showname=".... ..0. = Message Priority (MP): False" size="1" pos="44" show="0" value="0" unmaskedvalue="20"/>
      <field name="pfcp.s" showname=".... ...0 = SEID (S): False" size="1" pos="44" show="0" value="0" unmaskedvalue="20"/>
    </field>
    <field name="pfcp.msg_type" showname="Message Type: PFCP Heartbeat Request (1)" size="1" pos="45" show="1" value="01"/>
    <field name="pfcp.length" showname="Length: 12" size="2" pos="46" show="12" value="000c"/>
    <field name="pfcp.seqno" showname="Sequence Number: 2455" size="3" pos="48" show="2455" value="000997"/>
    <field name="pfcp.spare_oct" showname="Spare: 0" size="1" pos="51" show="0" value="00"/>
    <field name="" show="Recovery Time Stamp : Dec  8, 2022 14:26:24.000000000 UTC" size="8" pos="52" value="00600004e73c7290">
      <field name="pfcp.ie_type" showname="IE Type: Recovery Time Stamp (96)" size="2" pos="52" show="96" value="0060"/>
      <field name="pfcp.ie_len" showname="IE Length: 4" size="2" pos="54" show="4" value="0004"/>
      <field name="pfcp.recovery_time_stamp" showname="Recovery Time Stamp: Dec  8, 2022 14:26:24.000000000 UTC" size="4" pos="56" show="Dec  8, 2022 15:26:24.000000000 CET" value="e73c7290"/>
    </field>
    <field name="pfcp.response_in" showname="Response In: 1166" size="0" pos="44" show="1166"/>
  </proto>
</packet>


<packet>
  <proto name="geninfo" pos="0" showname="General information" size="60">
    <field name="num" pos="0" show="1166" showname="Number" value="48e" size="60"/>
    <field name="len" pos="0" show="60" showname="Frame Length" value="3c" size="60"/>
    <field name="caplen" pos="0" show="60" showname="Captured Length" value="3c" size="60"/>
    <field name="timestamp" pos="0" show="Dec  9, 2022 18:42:15.553467653 CET" showname="Captured Time" value="1670607735.553467653" size="60"/>
  </proto>
  <proto name="frame" showname="Frame 1166: 60 bytes on wire (480 bits), 60 bytes captured (480 bits) on interface any, id 0" size="60" pos="0">
    <field name="filtered" value="frame" />
  </proto>
  <proto name="sll" showname="Linux cooked capture" size="16" pos="0">
    <field name="filtered" value="sll" />
  </proto>
  <proto name="ip" showname="Internet Protocol Version 4, Src: 127.0.0.6, Dst: 127.0.0.3" size="20" pos="16">
    <field name="filtered" value="ip" />
  </proto>
  <proto name="udp" showname="User Datagram Protocol, Src Port: 8805, Dst Port: 8805" size="8" pos="36">
    <field name="filtered" value="udp" />
  </proto>
  <proto name="pfcp" showname="Packet Forwarding Control Protocol" size="16" pos="44">
    <field name="pfcp.flags" showname="Flags: 0x20" size="1" pos="44" show="0x00000020" value="20">
      <field name="pfcp.version" showname="001. .... = Version: 1" size="1" pos="44" show="1" value="1" unmaskedvalue="20"/>
      <field name="pfcp.spare_b4" showname="...0 .... = Spare: 0" size="1" pos="44" show="0" value="0" unmaskedvalue="20"/>
      <field name="pfcp.spare_b3" showname=".... 0... = Spare: 0" size="1" pos="44" show="0" value="0" unmaskedvalue="20"/>
      <field name="pfcp.spare_b2" showname=".... .0.. = Spare: 0" size="1" pos="44" show="0" value="0" unmaskedvalue="20"/>
      <field name="pfcp.mp_flag" showname=".... ..0. = Message Priority (MP): False" size="1" pos="44" show="0" value="0" unmaskedvalue="20"/>
      <field name="pfcp.s" showname=".... ...0 = SEID (S): False" size="1" pos="44" show="0" value="0" unmaskedvalue="20"/>
    </field>
    <field name="pfcp.msg_type" showname="Message Type: PFCP Heartbeat Response (2)" size="1" pos="45" show="2" value="02"/>
    <field name="pfcp.length" showname="Length: 12" size="2" pos="46" show="12" value="000c"/>
    <field name="pfcp.seqno" showname="Sequence Number: 2455" size="3" pos="48" show="2455" value="000997"/>
    <field name="pfcp.spare_oct" showname="Spare: 0" size="1" pos="51" show="0" value="00"/>
    <field name="" show="Recovery Time Stamp : Dec  8, 2022 14:26:24.000000000 UTC" size="8" pos="52" value="00600004e73c7290">
      <field name="pfcp.ie_type" showname="IE Type: Recovery Time Stamp (96)" size="2" pos="52" show="96" value="0060"/>
      <field name="pfcp.ie_len" showname="IE Length: 4" size="2" pos="54" show="4" value="0004"/>
      <field name="pfcp.recovery_time_stamp" showname="Recovery Time Stamp: Dec  8, 2022 14:26:24.000000000 UTC" size="4" pos="56" show="Dec  8, 2022 15:26:24.000000000 CET" value="e73c7290"/>
    </field>
    <field name="pfcp.response_to" showname="Response To: 1165" size="0" pos="44" show="1165"/>
    <field name="pfcp.response_time" showname="Response Time: 0.000112798 seconds" size="0" pos="44" show="0.000112798"/>
  </proto>
</packet>


<packet>
  <proto name="geninfo" pos="0" showname="General information" size="60">
    <field name="num" pos="0" show="5423" showname="Number" value="152f" size="60"/>
    <field name="len" pos="0" show="60" showname="Frame Length" value="3c" size="60"/>
    <field name="caplen" pos="0" show="60" showname="Captured Length" value="3c" size="60"/>
    <field name="timestamp" pos="0" show="Dec  9, 2022 18:42:26.529293258 CET" showname="Captured Time" value="1670607746.529293258" size="60"/>
  </proto>
  <proto name="frame" showname="Frame 5423: 60 bytes on wire (480 bits), 60 bytes captured (480 bits) on interface any, id 0" size="60" pos="0">
    <field name="filtered" value="frame" />
  </proto>
  <proto name="sll" showname="Linux cooked capture" size="16" pos="0">
    <field name="filtered" value="sll" />
  </proto>
  <proto name="ip" showname="Internet Protocol Version 4, Src: 127.0.0.4, Dst: 127.0.0.7" size="20" pos="16">
    <field name="filtered" value="ip" />
  </proto>
  <proto name="udp" showname="User Datagram Protocol, Src Port: 8805, Dst Port: 8805" size="8" pos="36">
    <field name="filtered" value="udp" />
  </proto>
  <proto name="pfcp" showname="Packet Forwarding Control Protocol" size="16" pos="44">
    <field name="pfcp.flags" showname="Flags: 0x20" size="1" pos="44" show="0x00000020" value="20">
      <field name="pfcp.version" showname="001. .... = Version: 1" size="1" pos="44" show="1" value="1" unmaskedvalue="20"/>
      <field name="pfcp.spare_b4" showname="...0 .... = Spare: 0" size="1" pos="44" show="0" value="0" unmaskedvalue="20"/>
      <field name="pfcp.spare_b3" showname=".... 0... = Spare: 0" size="1" pos="44" show="0" value="0" unmaskedvalue="20"/>
      <field name="pfcp.spare_b2" showname=".... .0.. = Spare: 0" size="1" pos="44" show="0" value="0" unmaskedvalue="20"/>
      <field name="pfcp.mp_flag" showname=".... ..0. = Message Priority (MP): False" size="1" pos="44" show="0" value="0" unmaskedvalue="20"/>
      <field name="pfcp.s" showname=".... ...0 = SEID (S): False" size="1" pos="44" show="0" value="0" unmaskedvalue="20"/>
    </field>
    <field name="pfcp.msg_type" showname="Message Type: PFCP Heartbeat Request (1)" size="1" pos="45" show="1" value="01"/>
    <field name="pfcp.length" showname="Length: 12" size="2" pos="46" show="12" value="000c"/>
    <field name="pfcp.seqno" showname="Sequence Number: 2719" size="3" pos="48" show="2719" value="000a9f"/>
    <field name="pfcp.spare_oct" showname="Spare: 0" size="1" pos="51" show="0" value="00"/>
    <field name="" show="Recovery Time Stamp : Dec  8, 2022 14:26:24.000000000 UTC" size="8" pos="52" value="00600004e73c7290">
      <field name="pfcp.ie_type" showname="IE Type: Recovery Time Stamp (96)" size="2" pos="52" show="96" value="0060"/>
      <field name="pfcp.ie_len" showname="IE Length: 4" size="2" pos="54" show="4" value="0004"/>
      <field name="pfcp.recovery_time_stamp" showname="Recovery Time Stamp: Dec  8, 2022 14:26:24.000000000 UTC" size="4" pos="56" show="Dec  8, 2022 15:26:24.000000000 CET" value="e73c7290"/>
    </field>
    <field name="pfcp.response_in" showname="Response In: 5424" size="0" pos="44" show="5424"/>
  </proto>
</packet>


<packet>
  <proto name="geninfo" pos="0" showname="General information" size="60">
    <field name="num" pos="0" show="5424" showname="Number" value="1530" size="60"/>
    <field name="len" pos="0" show="60" showname="Frame Length" value="3c" size="60"/>
    <field name="caplen" pos="0" show="60" showname="Captured Length" value="3c" size="60"/>
    <field name="timestamp" pos="0" show="Dec  9, 2022 18:42:26.529689524 CET" showname="Captured Time" value="1670607746.529689524" size="60"/>
  </proto>
  <proto name="frame" showname="Frame 5424: 60 bytes on wire (480 bits), 60 bytes captured (480 bits) on interface any, id 0" size="60" pos="0">
    <field name="filtered" value="frame" />
  </proto>
  <proto name="sll" showname="Linux cooked capture" size="16" pos="0">
    <field name="filtered" value="sll" />
  </proto>
  <proto name="ip" showname="Internet Protocol Version 4, Src: 127.0.0.7, Dst: 127.0.0.4" size="20" pos="16">
    <field name="filtered" value="ip" />
  </proto>
  <proto name="udp" showname="User Datagram Protocol, Src Port: 8805, Dst Port: 8805" size="8" pos="36">
    <field name="filtered" value="udp" />
  </proto>
  <proto name="pfcp" showname="Packet Forwarding Control Protocol" size="16" pos="44">
    <field name="pfcp.flags" showname="Flags: 0x20" size="1" pos="44" show="0x00000020" value="20">
      <field name="pfcp.version" showname="001. .... = Version: 1" size="1" pos="44" show="1" value="1" unmaskedvalue="20"/>
      <field name="pfcp.spare_b4" showname="...0 .... = Spare: 0" size="1" pos="44" show="0" value="0" unmaskedvalue="20"/>
      <field name="pfcp.spare_b3" showname=".... 0... = Spare: 0" size="1" pos="44" show="0" value="0" unmaskedvalue="20"/>
      <field name="pfcp.spare_b2" showname=".... .0.. = Spare: 0" size="1" pos="44" show="0" value="0" unmaskedvalue="20"/>
      <field name="pfcp.mp_flag" showname=".... ..0. = Message Priority (MP): False" size="1" pos="44" show="0" value="0" unmaskedvalue="20"/>
      <field name="pfcp.s" showname=".... ...0 = SEID (S): False" size="1" pos="44" show="0" value="0" unmaskedvalue="20"/>
    </field>
    <field name="pfcp.msg_type" showname="Message Type: PFCP Heartbeat Response (2)" size="1" pos="45" show="2" value="02"/>
    <field name="pfcp.length" showname="Length: 12" size="2" pos="46" show="12" value="000c"/>
    <field name="pfcp.seqno" showname="Sequence Number: 2719" size="3" pos="48" show="2719" value="000a9f"/>
    <field name="pfcp.spare_oct" showname="Spare: 0" size="1" pos="51" show="0" value="00"/>
    <field name="" show="Recovery Time Stamp : Dec  8, 2022 14:26:24.000000000 UTC" size="8" pos="52" value="00600004e73c7290">
      <field name="pfcp.ie_type" showname="IE Type: Recovery Time Stamp (96)" size="2" pos="52" show="96" value="0060"/>
      <field name="pfcp.ie_len" showname="IE Length: 4" size="2" pos="54" show="4" value="0004"/>
      <field name="pfcp.recovery_time_stamp" showname="Recovery Time Stamp: Dec  8, 2022 14:26:24.000000000 UTC" size="4" pos="56" show="Dec  8, 2022 15:26:24.000000000 CET" value="e73c7290"/>
    </field>
    <field name="pfcp.response_to" showname="Response To: 5423" size="0" pos="44" show="5423"/>
    <field name="pfcp.response_time" showname="Response Time: 0.000396266 seconds" size="0" pos="44" show="0.000396266"/>
  </proto>
</packet>


<packet>
  <proto name="geninfo" pos="0" showname="General information" size="60">
    <field name="num" pos="0" show="5425" showname="Number" value="1531" size="60"/>
    <field name="len" pos="0" show="60" showname="Frame Length" value="3c" size="60"/>
    <field name="caplen" pos="0" show="60" showname="Captured Length" value="3c" size="60"/>
    <field name="timestamp" pos="0" show="Dec  9, 2022 18:42:26.529928791 CET" showname="Captured Time" value="1670607746.529928791" size="60"/>
  </proto>
  <proto name="frame" showname="Frame 5425: 60 bytes on wire (480 bits), 60 bytes captured (480 bits) on interface any, id 0" size="60" pos="0">
    <field name="filtered" value="frame" />
  </proto>
  <proto name="sll" showname="Linux cooked capture" size="16" pos="0">
    <field name="filtered" value="sll" />
  </proto>
  <proto name="ip" showname="Internet Protocol Version 4, Src: 127.0.0.7, Dst: 127.0.0.4" size="20" pos="16">
    <field name="filtered" value="ip" />
  </proto>
  <proto name="udp" showname="User Datagram Protocol, Src Port: 8805, Dst Port: 8805" size="8" pos="36">
    <field name="filtered" value="udp" />
  </proto>
  <proto name="pfcp" showname="Packet Forwarding Control Protocol" size="16" pos="44">
    <field name="pfcp.flags" showname="Flags: 0x20" size="1" pos="44" show="0x00000020" value="20">
      <field name="pfcp.version" showname="001. .... = Version: 1" size="1" pos="44" show="1" value="1" unmaskedvalue="20"/>
      <field name="pfcp.spare_b4" showname="...0 .... = Spare: 0" size="1" pos="44" show="0" value="0" unmaskedvalue="20"/>
      <field name="pfcp.spare_b3" showname=".... 0... = Spare: 0" size="1" pos="44" show="0" value="0" unmaskedvalue="20"/>
      <field name="pfcp.spare_b2" showname=".... .0.. = Spare: 0" size="1" pos="44" show="0" value="0" unmaskedvalue="20"/>
      <field name="pfcp.mp_flag" showname=".... ..0. = Message Priority (MP): False" size="1" pos="44" show="0" value="0" unmaskedvalue="20"/>
      <field name="pfcp.s" showname=".... ...0 = SEID (S): False" size="1" pos="44" show="0" value="0" unmaskedvalue="20"/>
    </field>
    <field name="pfcp.msg_type" showname="Message Type: PFCP Heartbeat Request (1)" size="1" pos="45" show="1" value="01"/>
    <field name="pfcp.length" showname="Length: 12" size="2" pos="46" show="12" value="000c"/>
    <field name="pfcp.seqno" showname="Sequence Number: 2452" size="3" pos="48" show="2452" value="000994"/>
    <field name="pfcp.spare_oct" showname="Spare: 0" size="1" pos="51" show="0" value="00"/>
    <field name="" show="Recovery Time Stamp : Dec  8, 2022 14:26:24.000000000 UTC" size="8" pos="52" value="00600004e73c7290">
      <field name="pfcp.ie_type" showname="IE Type: Recovery Time Stamp (96)" size="2" pos="52" show="96" value="0060"/>
      <field name="pfcp.ie_len" showname="IE Length: 4" size="2" pos="54" show="4" value="0004"/>
      <field name="pfcp.recovery_time_stamp" showname="Recovery Time Stamp: Dec  8, 2022 14:26:24.000000000 UTC" size="4" pos="56" show="Dec  8, 2022 15:26:24.000000000 CET" value="e73c7290"/>
    </field>
    <field name="pfcp.response_in" showname="Response In: 5426" size="0" pos="44" show="5426"/>
  </proto>
</packet>


<packet>
  <proto name="geninfo" pos="0" showname="General information" size="60">
    <field name="num" pos="0" show="5426" showname="Number" value="1532" size="60"/>
    <field name="len" pos="0" show="60" showname="Frame Length" value="3c" size="60"/>
    <field name="caplen" pos="0" show="60" showname="Captured Length" value="3c" size="60"/>
    <field name="timestamp" pos="0" show="Dec  9, 2022 18:42:26.530734855 CET" showname="Captured Time" value="1670607746.530734855" size="60"/>
  </proto>
  <proto name="frame" showname="Frame 5426: 60 bytes on wire (480 bits), 60 bytes captured (480 bits) on interface any, id 0" size="60" pos="0">
    <field name="filtered" value="frame" />
  </proto>
  <proto name="sll" showname="Linux cooked capture" size="16" pos="0">
    <field name="filtered" value="sll" />
  </proto>
  <proto name="ip" showname="Internet Protocol Version 4, Src: 127.0.0.4, Dst: 127.0.0.7" size="20" pos="16">
    <field name="filtered" value="ip" />
  </proto>
  <proto name="udp" showname="User Datagram Protocol, Src Port: 8805, Dst Port: 8805" size="8" pos="36">
    <field name="filtered" value="udp" />
  </proto>
  <proto name="pfcp" showname="Packet Forwarding Control Protocol" size="16" pos="44">
    <field name="pfcp.flags" showname="Flags: 0x20" size="1" pos="44" show="0x00000020" value="20">
      <field name="pfcp.version" showname="001. .... = Version: 1" size="1" pos="44" show="1" value="1" unmaskedvalue="20"/>
      <field name="pfcp.spare_b4" showname="...0 .... = Spare: 0" size="1" pos="44" show="0" value="0" unmaskedvalue="20"/>
      <field name="pfcp.spare_b3" showname=".... 0... = Spare: 0" size="1" pos="44" show="0" value="0" unmaskedvalue="20"/>
      <field name="pfcp.spare_b2" showname=".... .0.. = Spare: 0" size="1" pos="44" show="0" value="0" unmaskedvalue="20"/>
      <field name="pfcp.mp_flag" showname=".... ..0. = Message Priority (MP): False" size="1" pos="44" show="0" value="0" unmaskedvalue="20"/>
      <field name="pfcp.s" showname=".... ...0 = SEID (S): False" size="1" pos="44" show="0" value="0" unmaskedvalue="20"/>
    </field>
    <field name="pfcp.msg_type" showname="Message Type: PFCP Heartbeat Response (2)" size="1" pos="45" show="2" value="02"/>
    <field name="pfcp.length" showname="Length: 12" size="2" pos="46" show="12" value="000c"/>
    <field name="pfcp.seqno" showname="Sequence Number: 2452" size="3" pos="48" show="2452" value="000994"/>
    <field name="pfcp.spare_oct" showname="Spare: 0" size="1" pos="51" show="0" value="00"/>
    <field name="" show="Recovery Time Stamp : Dec  8, 2022 14:26:24.000000000 UTC" size="8" pos="52" value="00600004e73c7290">
      <field name="pfcp.ie_type" showname="IE Type: Recovery Time Stamp (96)" size="2" pos="52" show="96" value="0060"/>
      <field name="pfcp.ie_len" showname="IE Length: 4" size="2" pos="54" show="4" value="0004"/>
      <field name="pfcp.recovery_time_stamp" showname="Recovery Time Stamp: Dec  8, 2022 14:26:24.000000000 UTC" size="4" pos="56" show="Dec  8, 2022 15:26:24.000000000 CET" value="e73c7290"/>
    </field>
    <field name="pfcp.response_to" showname="Response To: 5425" size="0" pos="44" show="5425"/>
    <field name="pfcp.response_time" showname="Response Time: 0.000806064 seconds" size="0" pos="44" show="0.000806064"/>
  </proto>
</packet>


<packet>
  <proto name="geninfo" pos="0" showname="General information" size="60">
    <field name="num" pos="0" show="5446" showname="Number" value="1546" size="60"/>
    <field name="len" pos="0" show="60" showname="Frame Length" value="3c" size="60"/>
    <field name="caplen" pos="0" show="60" showname="Captured Length" value="3c" size="60"/>
    <field name="timestamp" pos="0" show="Dec  9, 2022 18:42:26.557439234 CET" showname="Captured Time" value="1670607746.557439234" size="60"/>
  </proto>
  <proto name="frame" showname="Frame 5446: 60 bytes on wire (480 bits), 60 bytes captured (480 bits) on interface any, id 0" size="60" pos="0">
    <field name="filtered" value="frame" />
  </proto>
  <proto name="sll" showname="Linux cooked capture" size="16" pos="0">
    <field name="filtered" value="sll" />
  </proto>
  <proto name="ip" showname="Internet Protocol Version 4, Src: 127.0.0.6, Dst: 127.0.0.3" size="20" pos="16">
    <field name="filtered" value="ip" />
  </proto>
  <proto name="udp" showname="User Datagram Protocol, Src Port: 8805, Dst Port: 8805" size="8" pos="36">
    <field name="filtered" value="udp" />
  </proto>
  <proto name="pfcp" showname="Packet Forwarding Control Protocol" size="16" pos="44">
    <field name="pfcp.flags" showname="Flags: 0x20" size="1" pos="44" show="0x00000020" value="20">
      <field name="pfcp.version" showname="001. .... = Version: 1" size="1" pos="44" show="1" value="1" unmaskedvalue="20"/>
      <field name="pfcp.spare_b4" showname="...0 .... = Spare: 0" size="1" pos="44" show="0" value="0" unmaskedvalue="20"/>
      <field name="pfcp.spare_b3" showname=".... 0... = Spare: 0" size="1" pos="44" show="0" value="0" unmaskedvalue="20"/>
      <field name="pfcp.spare_b2" showname=".... .0.. = Spare: 0" size="1" pos="44" show="0" value="0" unmaskedvalue="20"/>
      <field name="pfcp.mp_flag" showname=".... ..0. = Message Priority (MP): False" size="1" pos="44" show="0" value="0" unmaskedvalue="20"/>
      <field name="pfcp.s" showname=".... ...0 = SEID (S): False" size="1" pos="44" show="0" value="0" unmaskedvalue="20"/>
    </field>
    <field name="pfcp.msg_type" showname="Message Type: PFCP Heartbeat Request (1)" size="1" pos="45" show="1" value="01"/>
    <field name="pfcp.length" showname="Length: 12" size="2" pos="46" show="12" value="000c"/>
    <field name="pfcp.seqno" showname="Sequence Number: 2456" size="3" pos="48" show="2456" value="000998"/>
    <field name="pfcp.spare_oct" showname="Spare: 0" size="1" pos="51" show="0" value="00"/>
    <field name="" show="Recovery Time Stamp : Dec  8, 2022 14:26:24.000000000 UTC" size="8" pos="52" value="00600004e73c7290">
      <field name="pfcp.ie_type" showname="IE Type: Recovery Time Stamp (96)" size="2" pos="52" show="96" value="0060"/>
      <field name="pfcp.ie_len" showname="IE Length: 4" size="2" pos="54" show="4" value="0004"/>
      <field name="pfcp.recovery_time_stamp" showname="Recovery Time Stamp: Dec  8, 2022 14:26:24.000000000 UTC" size="4" pos="56" show="Dec  8, 2022 15:26:24.000000000 CET" value="e73c7290"/>
    </field>
    <field name="pfcp.response_in" showname="Response In: 5447" size="0" pos="44" show="5447"/>
  </proto>
</packet>


<packet>
  <proto name="geninfo" pos="0" showname="General information" size="60">
    <field name="num" pos="0" show="5447" showname="Number" value="1547" size="60"/>
    <field name="len" pos="0" show="60" showname="Frame Length" value="3c" size="60"/>
    <field name="caplen" pos="0" show="60" showname="Captured Length" value="3c" size="60"/>
    <field name="timestamp" pos="0" show="Dec  9, 2022 18:42:26.557555870 CET" showname="Captured Time" value="1670607746.557555870" size="60"/>
  </proto>
  <proto name="frame" showname="Frame 5447: 60 bytes on wire (480 bits), 60 bytes captured (480 bits) on interface any, id 0" size="60" pos="0">
    <field name="filtered" value="frame" />
  </proto>
  <proto name="sll" showname="Linux cooked capture" size="16" pos="0">
    <field name="filtered" value="sll" />
  </proto>
  <proto name="ip" showname="Internet Protocol Version 4, Src: 127.0.0.3, Dst: 127.0.0.6" size="20" pos="16">
    <field name="filtered" value="ip" />
  </proto>
  <proto name="udp" showname="User Datagram Protocol, Src Port: 8805, Dst Port: 8805" size="8" pos="36">
    <field name="filtered" value="udp" />
  </proto>
  <proto name="pfcp" showname="Packet Forwarding Control Protocol" size="16" pos="44">
    <field name="pfcp.flags" showname="Flags: 0x20" size="1" pos="44" show="0x00000020" value="20">
      <field name="pfcp.version" showname="001. .... = Version: 1" size="1" pos="44" show="1" value="1" unmaskedvalue="20"/>
      <field name="pfcp.spare_b4" showname="...0 .... = Spare: 0" size="1" pos="44" show="0" value="0" unmaskedvalue="20"/>
      <field name="pfcp.spare_b3" showname=".... 0... = Spare: 0" size="1" pos="44" show="0" value="0" unmaskedvalue="20"/>
      <field name="pfcp.spare_b2" showname=".... .0.. = Spare: 0" size="1" pos="44" show="0" value="0" unmaskedvalue="20"/>
      <field name="pfcp.mp_flag" showname=".... ..0. = Message Priority (MP): False" size="1" pos="44" show="0" value="0" unmaskedvalue="20"/>
      <field name="pfcp.s" showname=".... ...0 = SEID (S): False" size="1" pos="44" show="0" value="0" unmaskedvalue="20"/>
    </field>
    <field name="pfcp.msg_type" showname="Message Type: PFCP Heartbeat Response (2)" size="1" pos="45" show="2" value="02"/>
    <field name="pfcp.length" showname="Length: 12" size="2" pos="46" show="12" value="000c"/>
    <field name="pfcp.seqno" showname="Sequence Number: 2456" size="3" pos="48" show="2456" value="000998"/>
    <field name="pfcp.spare_oct" showname="Spare: 0" size="1" pos="51" show="0" value="00"/>
    <field name="" show="Recovery Time Stamp : Dec  8, 2022 14:26:24.000000000 UTC" size="8" pos="52" value="00600004e73c7290">
      <field name="pfcp.ie_type" showname="IE Type: Recovery Time Stamp (96)" size="2" pos="52" show="96" value="0060"/>
      <field name="pfcp.ie_len" showname="IE Length: 4" size="2" pos="54" show="4" value="0004"/>
      <field name="pfcp.recovery_time_stamp" showname="Recovery Time Stamp: Dec  8, 2022 14:26:24.000000000 UTC" size="4" pos="56" show="Dec  8, 2022 15:26:24.000000000 CET" value="e73c7290"/>
    </field>
    <field name="pfcp.response_to" showname="Response To: 5446" size="0" pos="44" show="5446"/>
    <field name="pfcp.response_time" showname="Response Time: 0.000116636 seconds" size="0" pos="44" show="0.000116636"/>
  </proto>
</packet>


<packet>
  <proto name="geninfo" pos="0" showname="General information" size="60">
    <field name="num" pos="0" show="5448" showname="Number" value="1548" size="60"/>
    <field name="len" pos="0" show="60" showname="Frame Length" value="3c" size="60"/>
    <field name="caplen" pos="0" show="60" showname="Captured Length" value="3c" size="60"/>
    <field name="timestamp" pos="0" show="Dec  9, 2022 18:42:26.557585808 CET" showname="Captured Time" value="1670607746.557585808" size="60"/>
  </proto>
  <proto name="frame" showname="Frame 5448: 60 bytes on wire (480 bits), 60 bytes captured (480 bits) on interface any, id 0" size="60" pos="0">
    <field name="filtered" value="frame" />
  </proto>
  <proto name="sll" showname="Linux cooked capture" size="16" pos="0">
    <field name="filtered" value="sll" />
  </proto>
  <proto name="ip" showname="Internet Protocol Version 4, Src: 127.0.0.3, Dst: 127.0.0.6" size="20" pos="16">
    <field name="filtered" value="ip" />
  </proto>
  <proto name="udp" showname="User Datagram Protocol, Src Port: 8805, Dst Port: 8805" size="8" pos="36">
    <field name="filtered" value="udp" />
  </proto>
  <proto name="pfcp" showname="Packet Forwarding Control Protocol" size="16" pos="44">
    <field name="pfcp.flags" showname="Flags: 0x20" size="1" pos="44" show="0x00000020" value="20">
      <field name="pfcp.version" showname="001. .... = Version: 1" size="1" pos="44" show="1" value="1" unmaskedvalue="20"/>
      <field name="pfcp.spare_b4" showname="...0 .... = Spare: 0" size="1" pos="44" show="0" value="0" unmaskedvalue="20"/>
      <field name="pfcp.spare_b3" showname=".... 0... = Spare: 0" size="1" pos="44" show="0" value="0" unmaskedvalue="20"/>
      <field name="pfcp.spare_b2" showname=".... .0.. = Spare: 0" size="1" pos="44" show="0" value="0" unmaskedvalue="20"/>
      <field name="pfcp.mp_flag" showname=".... ..0. = Message Priority (MP): False" size="1" pos="44" show="0" value="0" unmaskedvalue="20"/>
      <field name="pfcp.s" showname=".... ...0 = SEID (S): False" size="1" pos="44" show="0" value="0" unmaskedvalue="20"/>
    </field>
    <field name="pfcp.msg_type" showname="Message Type: PFCP Heartbeat Request (1)" size="1" pos="45" show="1" value="01"/>
    <field name="pfcp.length" showname="Length: 12" size="2" pos="46" show="12" value="000c"/>
    <field name="pfcp.seqno" showname="Sequence Number: 2456" size="3" pos="48" show="2456" value="000998"/>
    <field name="pfcp.spare_oct" showname="Spare: 0" size="1" pos="51" show="0" value="00"/>
    <field name="" show="Recovery Time Stamp : Dec  8, 2022 14:26:24.000000000 UTC" size="8" pos="52" value="00600004e73c7290">
      <field name="pfcp.ie_type" showname="IE Type: Recovery Time Stamp (96)" size="2" pos="52" show="96" value="0060"/>
      <field name="pfcp.ie_len" showname="IE Length: 4" size="2" pos="54" show="4" value="0004"/>
      <field name="pfcp.recovery_time_stamp" showname="Recovery Time Stamp: Dec  8, 2022 14:26:24.000000000 UTC" size="4" pos="56" show="Dec  8, 2022 15:26:24.000000000 CET" value="e73c7290"/>
    </field>
    <field name="pfcp.response_in" showname="Response In: 5449" size="0" pos="44" show="5449"/>
  </proto>
</packet>


<packet>
  <proto name="geninfo" pos="0" showname="General information" size="60">
    <field name="num" pos="0" show="5449" showname="Number" value="1549" size="60"/>
    <field name="len" pos="0" show="60" showname="Frame Length" value="3c" size="60"/>
    <field name="caplen" pos="0" show="60" showname="Captured Length" value="3c" size="60"/>
    <field name="timestamp" pos="0" show="Dec  9, 2022 18:42:26.558003891 CET" showname="Captured Time" value="1670607746.558003891" size="60"/>
  </proto>
  <proto name="frame" showname="Frame 5449: 60 bytes on wire (480 bits), 60 bytes captured (480 bits) on interface any, id 0" size="60" pos="0">
    <field name="filtered" value="frame" />
  </proto>
  <proto name="sll" showname="Linux cooked capture" size="16" pos="0">
    <field name="filtered" value="sll" />
  </proto>
  <proto name="ip" showname="Internet Protocol Version 4, Src: 127.0.0.6, Dst: 127.0.0.3" size="20" pos="16">
    <field name="filtered" value="ip" />
  </proto>
  <proto name="udp" showname="User Datagram Protocol, Src Port: 8805, Dst Port: 8805" size="8" pos="36">
    <field name="filtered" value="udp" />
  </proto>
  <proto name="pfcp" showname="Packet Forwarding Control Protocol" size="16" pos="44">
    <field name="pfcp.flags" showname="Flags: 0x20" size="1" pos="44" show="0x00000020" value="20">
      <field name="pfcp.version" showname="001. .... = Version: 1" size="1" pos="44" show="1" value="1" unmaskedvalue="20"/>
      <field name="pfcp.spare_b4" showname="...0 .... = Spare: 0" size="1" pos="44" show="0" value="0" unmaskedvalue="20"/>
      <field name="pfcp.spare_b3" showname=".... 0... = Spare: 0" size="1" pos="44" show="0" value="0" unmaskedvalue="20"/>
      <field name="pfcp.spare_b2" showname=".... .0.. = Spare: 0" size="1" pos="44" show="0" value="0" unmaskedvalue="20"/>
      <field name="pfcp.mp_flag" showname=".... ..0. = Message Priority (MP): False" size="1" pos="44" show="0" value="0" unmaskedvalue="20"/>
      <field name="pfcp.s" showname=".... ...0 = SEID (S): False" size="1" pos="44" show="0" value="0" unmaskedvalue="20"/>
    </field>
    <field name="pfcp.msg_type" showname="Message Type: PFCP Heartbeat Response (2)" size="1" pos="45" show="2" value="02"/>
    <field name="pfcp.length" showname="Length: 12" size="2" pos="46" show="12" value="000c"/>
    <field name="pfcp.seqno" showname="Sequence Number: 2456" size="3" pos="48" show="2456" value="000998"/>
    <field name="pfcp.spare_oct" showname="Spare: 0" size="1" pos="51" show="0" value="00"/>
    <field name="" show="Recovery Time Stamp : Dec  8, 2022 14:26:24.000000000 UTC" size="8" pos="52" value="00600004e73c7290">
      <field name="pfcp.ie_type" showname="IE Type: Recovery Time Stamp (96)" size="2" pos="52" show="96" value="0060"/>
      <field name="pfcp.ie_len" showname="IE Length: 4" size="2" pos="54" show="4" value="0004"/>
      <field name="pfcp.recovery_time_stamp" showname="Recovery Time Stamp: Dec  8, 2022 14:26:24.000000000 UTC" size="4" pos="56" show="Dec  8, 2022 15:26:24.000000000 CET" value="e73c7290"/>
    </field>
    <field name="pfcp.response_to" showname="Response To: 5448" size="0" pos="44" show="5448"/>
    <field name="pfcp.response_time" showname="Response Time: 0.000418083 seconds" size="0" pos="44" show="0.000418083"/>
  </proto>
</packet>


<packet>
  <proto name="geninfo" pos="0" showname="General information" size="140">
    <field name="num" pos="0" show="9046" showname="Number" value="2356" size="140"/>
    <field name="len" pos="0" show="140" showname="Frame Length" value="8c" size="140"/>
    <field name="caplen" pos="0" show="140" showname="Captured Length" value="8c" size="140"/>
    <field name="timestamp" pos="0" show="Dec  9, 2022 18:42:34.836346015 CET" showname="Captured Time" value="1670607754.836346015" size="140"/>
  </proto>
  <proto name="frame" showname="Frame 9046: 140 bytes on wire (1120 bits), 140 bytes captured (1120 bits) on interface any, id 0" size="140" pos="0">
    <field name="filtered" value="frame" />
  </proto>
  <proto name="sll" showname="Linux cooked capture" size="16" pos="0">
    <field name="filtered" value="sll" />
  </proto>
  <proto name="ip" showname="Internet Protocol Version 4, Src: 127.0.0.2, Dst: 127.0.0.8" size="20" pos="16">
    <field name="filtered" value="ip" />
  </proto>
  <proto name="sctp" showname="Stream Control Transmission Protocol, Src Port: 54603 (54603), Dst Port: 3868 (3868)" size="28" pos="36">
    <field name="filtered" value="sctp" />
  </proto>
  <proto name="diameter" showname="Diameter Protocol" size="76" pos="64">
    <field name="diameter.version" showname="Version: 0x01" size="1" pos="64" show="0x00000001" value="01"/>
    <field name="diameter.length" showname="Length: 76" size="3" pos="65" show="76" value="00004c"/>
    <field name="diameter.flags" showname="Flags: 0x80, Request" size="1" pos="68" show="0x00000080" value="80">
      <field name="diameter.flags.request" showname="1... .... = Request: Set" size="1" pos="68" show="1" value="1" unmaskedvalue="80"/>
      <field name="diameter.flags.proxyable" showname=".0.. .... = Proxyable: Not set" size="1" pos="68" show="0" value="0" unmaskedvalue="80"/>
      <field name="diameter.flags.error" showname="..0. .... = Error: Not set" size="1" pos="68" show="0" value="0" unmaskedvalue="80"/>
      <field name="diameter.flags.T" showname="...0 .... = T(Potentially re-transmitted message): Not set" size="1" pos="68" show="0" value="0" unmaskedvalue="80"/>
      <field name="diameter.flags.reserved4" showname=".... 0... = Reserved: Not set" size="1" pos="68" show="0" value="0" unmaskedvalue="80"/>
      <field name="diameter.flags.reserved5" showname=".... .0.. = Reserved: Not set" size="1" pos="68" show="0" value="0" unmaskedvalue="80"/>
      <field name="diameter.flags.reserved6" showname=".... ..0. = Reserved: Not set" size="1" pos="68" show="0" value="0" unmaskedvalue="80"/>
      <field name="diameter.flags.reserved7" showname=".... ...0 = Reserved: Not set" size="1" pos="68" show="0" value="0" unmaskedvalue="80"/>
    </field>
    <field name="diameter.cmd.code" showname="Command Code: 280 Device-Watchdog" size="3" pos="69" show="280" value="000118"/>
    <field name="diameter.applicationId" showname="ApplicationId: Diameter Common Messages (0)" size="4" pos="72" show="0" value="00000000"/>
    <field name="diameter.hopbyhopid" showname="Hop-by-Hop Identifier: 0x55219bd8" size="4" pos="76" show="0x55219bd8" value="55219bd8"/>
    <field name="diameter.endtoendid" showname="End-to-End Identifier: 0xc66e9052" size="4" pos="80" show="0xc66e9052" value="c66e9052"/>
    <field name="diameter.answer_in" showname="Answer In: 9047" size="0" pos="64" show="9047"/>
    <field name="diameter.avp" showname="AVP: Origin-Host(264) l=23 f=-M- val=mme.localdomain" size="24" pos="84" show="00:00:01:08:40:00:00:17:6d:6d:65:2e:6c:6f:63:61:6c:64:6f:6d:61:69:6e:00" value="00000108400000176d6d652e6c6f63616c646f6d61696e00">
      <field name="diameter.avp.code" showname="AVP Code: 264 Origin-Host" size="4" pos="84" show="264" value="00000108"/>
      <field name="diameter.avp.flags" showname="AVP Flags: 0x40, Mandatory: Set" size="1" pos="88" show="0x00000040" value="40">
        <field name="diameter.flags.vendorspecific" showname="0... .... = Vendor-Specific: Not set" size="1" pos="88" show="0" value="0" unmaskedvalue="40"/>
        <field name="diameter.flags.mandatory" showname=".1.. .... = Mandatory: Set" size="1" pos="88" show="1" value="1" unmaskedvalue="40"/>
        <field name="diameter.avp.flags.protected" showname="..0. .... = Protected: Not set" size="1" pos="88" show="0" value="0" unmaskedvalue="40"/>
        <field name="diameter.avp.flags.reserved3" showname="...0 .... = Reserved: Not set" size="1" pos="88" show="0" value="0" unmaskedvalue="40"/>
        <field name="diameter.avp.flags.reserved4" showname=".... 0... = Reserved: Not set" size="1" pos="88" show="0" value="0" unmaskedvalue="40"/>
        <field name="diameter.avp.flags.reserved5" showname=".... .0.. = Reserved: Not set" size="1" pos="88" show="0" value="0" unmaskedvalue="40"/>
        <field name="diameter.avp.flags.reserved6" showname=".... ..0. = Reserved: Not set" size="1" pos="88" show="0" value="0" unmaskedvalue="40"/>
        <field name="diameter.avp.flags.reserved7" showname=".... ...0 = Reserved: Not set" size="1" pos="88" show="0" value="0" unmaskedvalue="40"/>
      </field>
      <field name="diameter.avp.len" showname="AVP Length: 23" size="3" pos="89" show="23" value="000017"/>
      <field name="diameter.Origin-Host" showname="Origin-Host: mme.localdomain" size="15" pos="92" show="mme.localdomain" value="6d6d652e6c6f63616c646f6d61696e"/>
      <field name="diameter.avp.pad" showname="Padding: 00" size="1" pos="107" show="00" value="00"/>
    </field>
    <field name="diameter.avp" showname="AVP: Origin-Realm(296) l=19 f=-M- val=localdomain" size="20" pos="108" show="00:00:01:28:40:00:00:13:6c:6f:63:61:6c:64:6f:6d:61:69:6e:00" value="00000128400000136c6f63616c646f6d61696e00">
      <field name="diameter.avp.code" showname="AVP Code: 296 Origin-Realm" size="4" pos="108" show="296" value="00000128"/>
      <field name="diameter.avp.flags" showname="AVP Flags: 0x40, Mandatory: Set" size="1" pos="112" show="0x00000040" value="40">
        <field name="diameter.flags.vendorspecific" showname="0... .... = Vendor-Specific: Not set" size="1" pos="112" show="0" value="0" unmaskedvalue="40"/>
        <field name="diameter.flags.mandatory" showname=".1.. .... = Mandatory: Set" size="1" pos="112" show="1" value="1" unmaskedvalue="40"/>
        <field name="diameter.avp.flags.protected" showname="..0. .... = Protected: Not set" size="1" pos="112" show="0" value="0" unmaskedvalue="40"/>
        <field name="diameter.avp.flags.reserved3" showname="...0 .... = Reserved: Not set" size="1" pos="112" show="0" value="0" unmaskedvalue="40"/>
        <field name="diameter.avp.flags.reserved4" showname=".... 0... = Reserved: Not set" size="1" pos="112" show="0" value="0" unmaskedvalue="40"/>
        <field name="diameter.avp.flags.reserved5" showname=".... .0.. = Reserved: Not set" size="1" pos="112" show="0" value="0" unmaskedvalue="40"/>
        <field name="diameter.avp.flags.reserved6" showname=".... ..0. = Reserved: Not set" size="1" pos="112" show="0" value="0" unmaskedvalue="40"/>
        <field name="diameter.avp.flags.reserved7" showname=".... ...0 = Reserved: Not set" size="1" pos="112" show="0" value="0" unmaskedvalue="40"/>
      </field>
      <field name="diameter.avp.len" showname="AVP Length: 19" size="3" pos="113" show="19" value="000013"/>
      <field name="diameter.Origin-Realm" showname="Origin-Realm: localdomain" size="11" pos="116" show="localdomain" value="6c6f63616c646f6d61696e"/>
      <field name="diameter.avp.pad" showname="Padding: 00" size="1" pos="127" show="00" value="00"/>
    </field>
    <field name="diameter.avp" showname="AVP: Origin-State-Id(278) l=12 f=-M- val=1670519910" size="12" pos="128" show="00:00:01:16:40:00:00:0c:63:92:1c:66" value="000001164000000c63921c66">
      <field name="diameter.avp.code" showname="AVP Code: 278 Origin-State-Id" size="4" pos="128" show="278" value="00000116"/>
      <field name="diameter.avp.flags" showname="AVP Flags: 0x40, Mandatory: Set" size="1" pos="132" show="0x00000040" value="40">
        <field name="diameter.flags.vendorspecific" showname="0... .... = Vendor-Specific: Not set" size="1" pos="132" show="0" value="0" unmaskedvalue="40"/>
        <field name="diameter.flags.mandatory" showname=".1.. .... = Mandatory: Set" size="1" pos="132" show="1" value="1" unmaskedvalue="40"/>
        <field name="diameter.avp.flags.protected" showname="..0. .... = Protected: Not set" size="1" pos="132" show="0" value="0" unmaskedvalue="40"/>
        <field name="diameter.avp.flags.reserved3" showname="...0 .... = Reserved: Not set" size="1" pos="132" show="0" value="0" unmaskedvalue="40"/>
        <field name="diameter.avp.flags.reserved4" showname=".... 0... = Reserved: Not set" size="1" pos="132" show="0" value="0" unmaskedvalue="40"/>
        <field name="diameter.avp.flags.reserved5" showname=".... .0.. = Reserved: Not set" size="1" pos="132" show="0" value="0" unmaskedvalue="40"/>
        <field name="diameter.avp.flags.reserved6" showname=".... ..0. = Reserved: Not set" size="1" pos="132" show="0" value="0" unmaskedvalue="40"/>
        <field name="diameter.avp.flags.reserved7" showname=".... ...0 = Reserved: Not set" size="1" pos="132" show="0" value="0" unmaskedvalue="40"/>
      </field>
      <field name="diameter.avp.len" showname="AVP Length: 12" size="3" pos="133" show="12" value="00000c"/>
      <field name="diameter.Origin-State-Id" showname="Origin-State-Id: 1670519910" size="4" pos="136" show="1670519910" value="63921c66"/>
    </field>
  </proto>
</packet>


<packet>
  <proto name="geninfo" pos="0" showname="General information" size="168">
    <field name="num" pos="0" show="9047" showname="Number" value="2357" size="168"/>
    <field name="len" pos="0" show="168" showname="Frame Length" value="a8" size="168"/>
    <field name="caplen" pos="0" show="168" showname="Captured Length" value="a8" size="168"/>
    <field name="timestamp" pos="0" show="Dec  9, 2022 18:42:34.836752515 CET" showname="Captured Time" value="1670607754.836752515" size="168"/>
  </proto>
  <proto name="frame" showname="Frame 9047: 168 bytes on wire (1344 bits), 168 bytes captured (1344 bits) on interface any, id 0" size="168" pos="0">
    <field name="filtered" value="frame" />
  </proto>
  <proto name="sll" showname="Linux cooked capture" size="16" pos="0">
    <field name="filtered" value="sll" />
  </proto>
  <proto name="ip" showname="Internet Protocol Version 4, Src: 127.0.0.8, Dst: 127.0.0.2" size="20" pos="16">
    <field name="filtered" value="ip" />
  </proto>
  <proto name="sctp" showname="Stream Control Transmission Protocol, Src Port: 3868 (3868), Dst Port: 54603 (54603)" size="44" pos="36">
    <field name="filtered" value="sctp" />
  </proto>
  <proto name="diameter" showname="Diameter Protocol" size="88" pos="80">
    <field name="diameter.version" showname="Version: 0x01" size="1" pos="80" show="0x00000001" value="01"/>
    <field name="diameter.length" showname="Length: 88" size="3" pos="81" show="88" value="000058"/>
    <field name="diameter.flags" showname="Flags: 0x00" size="1" pos="84" show="0x00000000" value="00">
      <field name="diameter.flags.request" showname="0... .... = Request: Not set" size="1" pos="84" show="0" value="0" unmaskedvalue="00"/>
      <field name="diameter.flags.proxyable" showname=".0.. .... = Proxyable: Not set" size="1" pos="84" show="0" value="0" unmaskedvalue="00"/>
      <field name="diameter.flags.error" showname="..0. .... = Error: Not set" size="1" pos="84" show="0" value="0" unmaskedvalue="00"/>
      <field name="diameter.flags.T" showname="...0 .... = T(Potentially re-transmitted message): Not set" size="1" pos="84" show="0" value="0" unmaskedvalue="00"/>
      <field name="diameter.flags.reserved4" showname=".... 0... = Reserved: Not set" size="1" pos="84" show="0" value="0" unmaskedvalue="00"/>
      <field name="diameter.flags.reserved5" showname=".... .0.. = Reserved: Not set" size="1" pos="84" show="0" value="0" unmaskedvalue="00"/>
      <field name="diameter.flags.reserved6" showname=".... ..0. = Reserved: Not set" size="1" pos="84" show="0" value="0" unmaskedvalue="00"/>
      <field name="diameter.flags.reserved7" showname=".... ...0 = Reserved: Not set" size="1" pos="84" show="0" value="0" unmaskedvalue="00"/>
    </field>
    <field name="diameter.cmd.code" showname="Command Code: 280 Device-Watchdog" size="3" pos="85" show="280" value="000118"/>
    <field name="diameter.applicationId" showname="ApplicationId: Diameter Common Messages (0)" size="4" pos="88" show="0" value="00000000"/>
    <field name="diameter.hopbyhopid" showname="Hop-by-Hop Identifier: 0x55219bd8" size="4" pos="92" show="0x55219bd8" value="55219bd8"/>
    <field name="diameter.endtoendid" showname="End-to-End Identifier: 0xc66e9052" size="4" pos="96" show="0xc66e9052" value="c66e9052"/>
    <field name="diameter.answer_to" showname="Request In: 9046" size="0" pos="80" show="9046"/>
    <field name="diameter.resp_time" showname="Response Time: 0.000406500 seconds" size="0" pos="80" show="0.000406500"/>
    <field name="diameter.avp" showname="AVP: Result-Code(268) l=12 f=-M- val=DIAMETER_SUCCESS (2001)" size="12" pos="100" show="00:00:01:0c:40:00:00:0c:00:00:07:d1" value="0000010c4000000c000007d1">
      <field name="diameter.avp.code" showname="AVP Code: 268 Result-Code" size="4" pos="100" show="268" value="0000010c"/>
      <field name="diameter.avp.flags" showname="AVP Flags: 0x40, Mandatory: Set" size="1" pos="104" show="0x00000040" value="40">
        <field name="diameter.flags.vendorspecific" showname="0... .... = Vendor-Specific: Not set" size="1" pos="104" show="0" value="0" unmaskedvalue="40"/>
        <field name="diameter.flags.mandatory" showname=".1.. .... = Mandatory: Set" size="1" pos="104" show="1" value="1" unmaskedvalue="40"/>
        <field name="diameter.avp.flags.protected" showname="..0. .... = Protected: Not set" size="1" pos="104" show="0" value="0" unmaskedvalue="40"/>
        <field name="diameter.avp.flags.reserved3" showname="...0 .... = Reserved: Not set" size="1" pos="104" show="0" value="0" unmaskedvalue="40"/>
        <field name="diameter.avp.flags.reserved4" showname=".... 0... = Reserved: Not set" size="1" pos="104" show="0" value="0" unmaskedvalue="40"/>
        <field name="diameter.avp.flags.reserved5" showname=".... .0.. = Reserved: Not set" size="1" pos="104" show="0" value="0" unmaskedvalue="40"/>
        <field name="diameter.avp.flags.reserved6" showname=".... ..0. = Reserved: Not set" size="1" pos="104" show="0" value="0" unmaskedvalue="40"/>
        <field name="diameter.avp.flags.reserved7" showname=".... ...0 = Reserved: Not set" size="1" pos="104" show="0" value="0" unmaskedvalue="40"/>
      </field>
      <field name="diameter.avp.len" showname="AVP Length: 12" size="3" pos="105" show="12" value="00000c"/>
      <field name="diameter.Result-Code" showname="Result-Code: DIAMETER_SUCCESS (2001)" size="4" pos="108" show="2001" value="000007d1"/>
    </field>
    <field name="diameter.avp" showname="AVP: Origin-Host(264) l=23 f=-M- val=hss.localdomain" size="24" pos="112" show="00:00:01:08:40:00:00:17:68:73:73:2e:6c:6f:63:61:6c:64:6f:6d:61:69:6e:00" value="00000108400000176873732e6c6f63616c646f6d61696e00">
      <field name="diameter.avp.code" showname="AVP Code: 264 Origin-Host" size="4" pos="112" show="264" value="00000108"/>
      <field name="diameter.avp.flags" showname="AVP Flags: 0x40, Mandatory: Set" size="1" pos="116" show="0x00000040" value="40">
        <field name="diameter.flags.vendorspecific" showname="0... .... = Vendor-Specific: Not set" size="1" pos="116" show="0" value="0" unmaskedvalue="40"/>
        <field name="diameter.flags.mandatory" showname=".1.. .... = Mandatory: Set" size="1" pos="116" show="1" value="1" unmaskedvalue="40"/>
        <field name="diameter.avp.flags.protected" showname="..0. .... = Protected: Not set" size="1" pos="116" show="0" value="0" unmaskedvalue="40"/>
        <field name="diameter.avp.flags.reserved3" showname="...0 .... = Reserved: Not set" size="1" pos="116" show="0" value="0" unmaskedvalue="40"/>
        <field name="diameter.avp.flags.reserved4" showname=".... 0... = Reserved: Not set" size="1" pos="116" show="0" value="0" unmaskedvalue="40"/>
        <field name="diameter.avp.flags.reserved5" showname=".... .0.. = Reserved: Not set" size="1" pos="116" show="0" value="0" unmaskedvalue="40"/>
        <field name="diameter.avp.flags.reserved6" showname=".... ..0. = Reserved: Not set" size="1" pos="116" show="0" value="0" unmaskedvalue="40"/>
        <field name="diameter.avp.flags.reserved7" showname=".... ...0 = Reserved: Not set" size="1" pos="116" show="0" value="0" unmaskedvalue="40"/>
      </field>
      <field name="diameter.avp.len" showname="AVP Length: 23" size="3" pos="117" show="23" value="000017"/>
      <field name="diameter.Origin-Host" showname="Origin-Host: hss.localdomain" size="15" pos="120" show="hss.localdomain" value="6873732e6c6f63616c646f6d61696e"/>
      <field name="diameter.avp.pad" showname="Padding: 00" size="1" pos="135" show="00" value="00"/>
    </field>
    <field name="diameter.avp" showname="AVP: Origin-Realm(296) l=19 f=-M- val=localdomain" size="20" pos="136" show="00:00:01:28:40:00:00:13:6c:6f:63:61:6c:64:6f:6d:61:69:6e:00" value="00000128400000136c6f63616c646f6d61696e00">
      <field name="diameter.avp.code" showname="AVP Code: 296 Origin-Realm" size="4" pos="136" show="296" value="00000128"/>
      <field name="diameter.avp.flags" showname="AVP Flags: 0x40, Mandatory: Set" size="1" pos="140" show="0x00000040" value="40">
        <field name="diameter.flags.vendorspecific" showname="0... .... = Vendor-Specific: Not set" size="1" pos="140" show="0" value="0" unmaskedvalue="40"/>
        <field name="diameter.flags.mandatory" showname=".1.. .... = Mandatory: Set" size="1" pos="140" show="1" value="1" unmaskedvalue="40"/>
        <field name="diameter.avp.flags.protected" showname="..0. .... = Protected: Not set" size="1" pos="140" show="0" value="0" unmaskedvalue="40"/>
        <field name="diameter.avp.flags.reserved3" showname="...0 .... = Reserved: Not set" size="1" pos="140" show="0" value="0" unmaskedvalue="40"/>
        <field name="diameter.avp.flags.reserved4" showname=".... 0... = Reserved: Not set" size="1" pos="140" show="0" value="0" unmaskedvalue="40"/>
        <field name="diameter.avp.flags.reserved5" showname=".... .0.. = Reserved: Not set" size="1" pos="140" show="0" value="0" unmaskedvalue="40"/>
        <field name="diameter.avp.flags.reserved6" showname=".... ..0. = Reserved: Not set" size="1" pos="140" show="0" value="0" unmaskedvalue="40"/>
        <field name="diameter.avp.flags.reserved7" showname=".... ...0 = Reserved: Not set" size="1" pos="140" show="0" value="0" unmaskedvalue="40"/>
      </field>
      <field name="diameter.avp.len" showname="AVP Length: 19" size="3" pos="141" show="19" value="000013"/>
      <field name="diameter.Origin-Realm" showname="Origin-Realm: localdomain" size="11" pos="144" show="localdomain" value="6c6f63616c646f6d61696e"/>
      <field name="diameter.avp.pad" showname="Padding: 00" size="1" pos="155" show="00" value="00"/>
    </field>
    <field name="diameter.avp" showname="AVP: Origin-State-Id(278) l=12 f=-M- val=1670509591" size="12" pos="156" show="00:00:01:16:40:00:00:0c:63:91:f4:17" value="000001164000000c6391f417">
      <field name="diameter.avp.code" showname="AVP Code: 278 Origin-State-Id" size="4" pos="156" show="278" value="00000116"/>
      <field name="diameter.avp.flags" showname="AVP Flags: 0x40, Mandatory: Set" size="1" pos="160" show="0x00000040" value="40">
        <field name="diameter.flags.vendorspecific" showname="0... .... = Vendor-Specific: Not set" size="1" pos="160" show="0" value="0" unmaskedvalue="40"/>
        <field name="diameter.flags.mandatory" showname=".1.. .... = Mandatory: Set" size="1" pos="160" show="1" value="1" unmaskedvalue="40"/>
        <field name="diameter.avp.flags.protected" showname="..0. .... = Protected: Not set" size="1" pos="160" show="0" value="0" unmaskedvalue="40"/>
        <field name="diameter.avp.flags.reserved3" showname="...0 .... = Reserved: Not set" size="1" pos="160" show="0" value="0" unmaskedvalue="40"/>
        <field name="diameter.avp.flags.reserved4" showname=".... 0... = Reserved: Not set" size="1" pos="160" show="0" value="0" unmaskedvalue="40"/>
        <field name="diameter.avp.flags.reserved5" showname=".... .0.. = Reserved: Not set" size="1" pos="160" show="0" value="0" unmaskedvalue="40"/>
        <field name="diameter.avp.flags.reserved6" showname=".... ..0. = Reserved: Not set" size="1" pos="160" show="0" value="0" unmaskedvalue="40"/>
        <field name="diameter.avp.flags.reserved7" showname=".... ...0 = Reserved: Not set" size="1" pos="160" show="0" value="0" unmaskedvalue="40"/>
      </field>
      <field name="diameter.avp.len" showname="AVP Length: 12" size="3" pos="161" show="12" value="00000c"/>
      <field name="diameter.Origin-State-Id" showname="Origin-State-Id: 1670509591" size="4" pos="164" show="1670509591" value="6391f417"/>
    </field>
  </proto>
</packet>


<packet>
  <proto name="geninfo" pos="0" showname="General information" size="60">
    <field name="num" pos="0" show="9510" showname="Number" value="2526" size="60"/>
    <field name="len" pos="0" show="60" showname="Frame Length" value="3c" size="60"/>
    <field name="caplen" pos="0" show="60" showname="Captured Length" value="3c" size="60"/>
    <field name="timestamp" pos="0" show="Dec  9, 2022 18:42:37.534026172 CET" showname="Captured Time" value="1670607757.534026172" size="60"/>
  </proto>
  <proto name="frame" showname="Frame 9510: 60 bytes on wire (480 bits), 60 bytes captured (480 bits) on interface any, id 0" size="60" pos="0">
    <field name="filtered" value="frame" />
  </proto>
  <proto name="sll" showname="Linux cooked capture" size="16" pos="0">
    <field name="filtered" value="sll" />
  </proto>
  <proto name="ip" showname="Internet Protocol Version 4, Src: 127.0.0.4, Dst: 127.0.0.7" size="20" pos="16">
    <field name="filtered" value="ip" />
  </proto>
  <proto name="udp" showname="User Datagram Protocol, Src Port: 8805, Dst Port: 8805" size="8" pos="36">
    <field name="filtered" value="udp" />
  </proto>
  <proto name="pfcp" showname="Packet Forwarding Control Protocol" size="16" pos="44">
    <field name="pfcp.flags" showname="Flags: 0x20" size="1" pos="44" show="0x00000020" value="20">
      <field name="pfcp.version" showname="001. .... = Version: 1" size="1" pos="44" show="1" value="1" unmaskedvalue="20"/>
      <field name="pfcp.spare_b4" showname="...0 .... = Spare: 0" size="1" pos="44" show="0" value="0" unmaskedvalue="20"/>
      <field name="pfcp.spare_b3" showname=".... 0... = Spare: 0" size="1" pos="44" show="0" value="0" unmaskedvalue="20"/>
      <field name="pfcp.spare_b2" showname=".... .0.. = Spare: 0" size="1" pos="44" show="0" value="0" unmaskedvalue="20"/>
      <field name="pfcp.mp_flag" showname=".... ..0. = Message Priority (MP): False" size="1" pos="44" show="0" value="0" unmaskedvalue="20"/>
      <field name="pfcp.s" showname=".... ...0 = SEID (S): False" size="1" pos="44" show="0" value="0" unmaskedvalue="20"/>
    </field>
    <field name="pfcp.msg_type" showname="Message Type: PFCP Heartbeat Request (1)" size="1" pos="45" show="1" value="01"/>
    <field name="pfcp.length" showname="Length: 12" size="2" pos="46" show="12" value="000c"/>
    <field name="pfcp.seqno" showname="Sequence Number: 2720" size="3" pos="48" show="2720" value="000aa0"/>
    <field name="pfcp.spare_oct" showname="Spare: 0" size="1" pos="51" show="0" value="00"/>
    <field name="" show="Recovery Time Stamp : Dec  8, 2022 14:26:24.000000000 UTC" size="8" pos="52" value="00600004e73c7290">
      <field name="pfcp.ie_type" showname="IE Type: Recovery Time Stamp (96)" size="2" pos="52" show="96" value="0060"/>
      <field name="pfcp.ie_len" showname="IE Length: 4" size="2" pos="54" show="4" value="0004"/>
      <field name="pfcp.recovery_time_stamp" showname="Recovery Time Stamp: Dec  8, 2022 14:26:24.000000000 UTC" size="4" pos="56" show="Dec  8, 2022 15:26:24.000000000 CET" value="e73c7290"/>
    </field>
    <field name="pfcp.response_in" showname="Response In: 9511" size="0" pos="44" show="9511"/>
  </proto>
</packet>


<packet>
  <proto name="geninfo" pos="0" showname="General information" size="60">
    <field name="num" pos="0" show="9511" showname="Number" value="2527" size="60"/>
    <field name="len" pos="0" show="60" showname="Frame Length" value="3c" size="60"/>
    <field name="caplen" pos="0" show="60" showname="Captured Length" value="3c" size="60"/>
    <field name="timestamp" pos="0" show="Dec  9, 2022 18:42:37.534195343 CET" showname="Captured Time" value="1670607757.534195343" size="60"/>
  </proto>
  <proto name="frame" showname="Frame 9511: 60 bytes on wire (480 bits), 60 bytes captured (480 bits) on interface any, id 0" size="60" pos="0">
    <field name="filtered" value="frame" />
  </proto>
  <proto name="sll" showname="Linux cooked capture" size="16" pos="0">
    <field name="filtered" value="sll" />
  </proto>
  <proto name="ip" showname="Internet Protocol Version 4, Src: 127.0.0.7, Dst: 127.0.0.4" size="20" pos="16">
    <field name="filtered" value="ip" />
  </proto>
  <proto name="udp" showname="User Datagram Protocol, Src Port: 8805, Dst Port: 8805" size="8" pos="36">
    <field name="filtered" value="udp" />
  </proto>
  <proto name="pfcp" showname="Packet Forwarding Control Protocol" size="16" pos="44">
    <field name="pfcp.flags" showname="Flags: 0x20" size="1" pos="44" show="0x00000020" value="20">
      <field name="pfcp.version" showname="001. .... = Version: 1" size="1" pos="44" show="1" value="1" unmaskedvalue="20"/>
      <field name="pfcp.spare_b4" showname="...0 .... = Spare: 0" size="1" pos="44" show="0" value="0" unmaskedvalue="20"/>
      <field name="pfcp.spare_b3" showname=".... 0... = Spare: 0" size="1" pos="44" show="0" value="0" unmaskedvalue="20"/>
      <field name="pfcp.spare_b2" showname=".... .0.. = Spare: 0" size="1" pos="44" show="0" value="0" unmaskedvalue="20"/>
      <field name="pfcp.mp_flag" showname=".... ..0. = Message Priority (MP): False" size="1" pos="44" show="0" value="0" unmaskedvalue="20"/>
      <field name="pfcp.s" showname=".... ...0 = SEID (S): False" size="1" pos="44" show="0" value="0" unmaskedvalue="20"/>
    </field>
    <field name="pfcp.msg_type" showname="Message Type: PFCP Heartbeat Response (2)" size="1" pos="45" show="2" value="02"/>
    <field name="pfcp.length" showname="Length: 12" size="2" pos="46" show="12" value="000c"/>
    <field name="pfcp.seqno" showname="Sequence Number: 2720" size="3" pos="48" show="2720" value="000aa0"/>
    <field name="pfcp.spare_oct" showname="Spare: 0" size="1" pos="51" show="0" value="00"/>
    <field name="" show="Recovery Time Stamp : Dec  8, 2022 14:26:24.000000000 UTC" size="8" pos="52" value="00600004e73c7290">
      <field name="pfcp.ie_type" showname="IE Type: Recovery Time Stamp (96)" size="2" pos="52" show="96" value="0060"/>
      <field name="pfcp.ie_len" showname="IE Length: 4" size="2" pos="54" show="4" value="0004"/>
      <field name="pfcp.recovery_time_stamp" showname="Recovery Time Stamp: Dec  8, 2022 14:26:24.000000000 UTC" size="4" pos="56" show="Dec  8, 2022 15:26:24.000000000 CET" value="e73c7290"/>
    </field>
    <field name="pfcp.response_to" showname="Response To: 9510" size="0" pos="44" show="9510"/>
    <field name="pfcp.response_time" showname="Response Time: 0.000169171 seconds" size="0" pos="44" show="0.000169171"/>
  </proto>
</packet>


<packet>
  <proto name="geninfo" pos="0" showname="General information" size="60">
    <field name="num" pos="0" show="9512" showname="Number" value="2528" size="60"/>
    <field name="len" pos="0" show="60" showname="Frame Length" value="3c" size="60"/>
    <field name="caplen" pos="0" show="60" showname="Captured Length" value="3c" size="60"/>
    <field name="timestamp" pos="0" show="Dec  9, 2022 18:42:37.534250881 CET" showname="Captured Time" value="1670607757.534250881" size="60"/>
  </proto>
  <proto name="frame" showname="Frame 9512: 60 bytes on wire (480 bits), 60 bytes captured (480 bits) on interface any, id 0" size="60" pos="0">
    <field name="filtered" value="frame" />
  </proto>
  <proto name="sll" showname="Linux cooked capture" size="16" pos="0">
    <field name="filtered" value="sll" />
  </proto>
  <proto name="ip" showname="Internet Protocol Version 4, Src: 127.0.0.7, Dst: 127.0.0.4" size="20" pos="16">
    <field name="filtered" value="ip" />
  </proto>
  <proto name="udp" showname="User Datagram Protocol, Src Port: 8805, Dst Port: 8805" size="8" pos="36">
    <field name="filtered" value="udp" />
  </proto>
  <proto name="pfcp" showname="Packet Forwarding Control Protocol" size="16" pos="44">
    <field name="pfcp.flags" showname="Flags: 0x20" size="1" pos="44" show="0x00000020" value="20">
      <field name="pfcp.version" showname="001. .... = Version: 1" size="1" pos="44" show="1" value="1" unmaskedvalue="20"/>
      <field name="pfcp.spare_b4" showname="...0 .... = Spare: 0" size="1" pos="44" show="0" value="0" unmaskedvalue="20"/>
      <field name="pfcp.spare_b3" showname=".... 0... = Spare: 0" size="1" pos="44" show="0" value="0" unmaskedvalue="20"/>
      <field name="pfcp.spare_b2" showname=".... .0.. = Spare: 0" size="1" pos="44" show="0" value="0" unmaskedvalue="20"/>
      <field name="pfcp.mp_flag" showname=".... ..0. = Message Priority (MP): False" size="1" pos="44" show="0" value="0" unmaskedvalue="20"/>
      <field name="pfcp.s" showname=".... ...0 = SEID (S): False" size="1" pos="44" show="0" value="0" unmaskedvalue="20"/>
    </field>
    <field name="pfcp.msg_type" showname="Message Type: PFCP Heartbeat Request (1)" size="1" pos="45" show="1" value="01"/>
    <field name="pfcp.length" showname="Length: 12" size="2" pos="46" show="12" value="000c"/>
    <field name="pfcp.seqno" showname="Sequence Number: 2453" size="3" pos="48" show="2453" value="000995"/>
    <field name="pfcp.spare_oct" showname="Spare: 0" size="1" pos="51" show="0" value="00"/>
    <field name="" show="Recovery Time Stamp : Dec  8, 2022 14:26:24.000000000 UTC" size="8" pos="52" value="00600004e73c7290">
      <field name="pfcp.ie_type" showname="IE Type: Recovery Time Stamp (96)" size="2" pos="52" show="96" value="0060"/>
      <field name="pfcp.ie_len" showname="IE Length: 4" size="2" pos="54" show="4" value="0004"/>
      <field name="pfcp.recovery_time_stamp" showname="Recovery Time Stamp: Dec  8, 2022 14:26:24.000000000 UTC" size="4" pos="56" show="Dec  8, 2022 15:26:24.000000000 CET" value="e73c7290"/>
    </field>
    <field name="pfcp.response_in" showname="Response In: 9513" size="0" pos="44" show="9513"/>
  </proto>
</packet>


<packet>
  <proto name="geninfo" pos="0" showname="General information" size="60">
    <field name="num" pos="0" show="9513" showname="Number" value="2529" size="60"/>
    <field name="len" pos="0" show="60" showname="Frame Length" value="3c" size="60"/>
    <field name="caplen" pos="0" show="60" showname="Captured Length" value="3c" size="60"/>
    <field name="timestamp" pos="0" show="Dec  9, 2022 18:42:37.534400465 CET" showname="Captured Time" value="1670607757.534400465" size="60"/>
  </proto>
  <proto name="frame" showname="Frame 9513: 60 bytes on wire (480 bits), 60 bytes captured (480 bits) on interface any, id 0" size="60" pos="0">
    <field name="filtered" value="frame" />
  </proto>
  <proto name="sll" showname="Linux cooked capture" size="16" pos="0">
    <field name="filtered" value="sll" />
  </proto>
  <proto name="ip" showname="Internet Protocol Version 4, Src: 127.0.0.4, Dst: 127.0.0.7" size="20" pos="16">
    <field name="filtered" value="ip" />
  </proto>
  <proto name="udp" showname="User Datagram Protocol, Src Port: 8805, Dst Port: 8805" size="8" pos="36">
    <field name="filtered" value="udp" />
  </proto>
  <proto name="pfcp" showname="Packet Forwarding Control Protocol" size="16" pos="44">
    <field name="pfcp.flags" showname="Flags: 0x20" size="1" pos="44" show="0x00000020" value="20">
      <field name="pfcp.version" showname="001. .... = Version: 1" size="1" pos="44" show="1" value="1" unmaskedvalue="20"/>
      <field name="pfcp.spare_b4" showname="...0 .... = Spare: 0" size="1" pos="44" show="0" value="0" unmaskedvalue="20"/>
      <field name="pfcp.spare_b3" showname=".... 0... = Spare: 0" size="1" pos="44" show="0" value="0" unmaskedvalue="20"/>
      <field name="pfcp.spare_b2" showname=".... .0.. = Spare: 0" size="1" pos="44" show="0" value="0" unmaskedvalue="20"/>
      <field name="pfcp.mp_flag" showname=".... ..0. = Message Priority (MP): False" size="1" pos="44" show="0" value="0" unmaskedvalue="20"/>
      <field name="pfcp.s" showname=".... ...0 = SEID (S): False" size="1" pos="44" show="0" value="0" unmaskedvalue="20"/>
    </field>
    <field name="pfcp.msg_type" showname="Message Type: PFCP Heartbeat Response (2)" size="1" pos="45" show="2" value="02"/>
    <field name="pfcp.length" showname="Length: 12" size="2" pos="46" show="12" value="000c"/>
    <field name="pfcp.seqno" showname="Sequence Number: 2453" size="3" pos="48" show="2453" value="000995"/>
    <field name="pfcp.spare_oct" showname="Spare: 0" size="1" pos="51" show="0" value="00"/>
    <field name="" show="Recovery Time Stamp : Dec  8, 2022 14:26:24.000000000 UTC" size="8" pos="52" value="00600004e73c7290">
      <field name="pfcp.ie_type" showname="IE Type: Recovery Time Stamp (96)" size="2" pos="52" show="96" value="0060"/>
      <field name="pfcp.ie_len" showname="IE Length: 4" size="2" pos="54" show="4" value="0004"/>
      <field name="pfcp.recovery_time_stamp" showname="Recovery Time Stamp: Dec  8, 2022 14:26:24.000000000 UTC" size="4" pos="56" show="Dec  8, 2022 15:26:24.000000000 CET" value="e73c7290"/>
    </field>
    <field name="pfcp.response_to" showname="Response To: 9512" size="0" pos="44" show="9512"/>
    <field name="pfcp.response_time" showname="Response Time: 0.000149584 seconds" size="0" pos="44" show="0.000149584"/>
  </proto>
</packet>


<packet>
  <proto name="geninfo" pos="0" showname="General information" size="60">
    <field name="num" pos="0" show="9514" showname="Number" value="252a" size="60"/>
    <field name="len" pos="0" show="60" showname="Frame Length" value="3c" size="60"/>
    <field name="caplen" pos="0" show="60" showname="Captured Length" value="3c" size="60"/>
    <field name="timestamp" pos="0" show="Dec  9, 2022 18:42:37.561709594 CET" showname="Captured Time" value="1670607757.561709594" size="60"/>
  </proto>
  <proto name="frame" showname="Frame 9514: 60 bytes on wire (480 bits), 60 bytes captured (480 bits) on interface any, id 0" size="60" pos="0">
    <field name="filtered" value="frame" />
  </proto>
  <proto name="sll" showname="Linux cooked capture" size="16" pos="0">
    <field name="filtered" value="sll" />
  </proto>
  <proto name="ip" showname="Internet Protocol Version 4, Src: 127.0.0.6, Dst: 127.0.0.3" size="20" pos="16">
    <field name="filtered" value="ip" />
  </proto>
  <proto name="udp" showname="User Datagram Protocol, Src Port: 8805, Dst Port: 8805" size="8" pos="36">
    <field name="filtered" value="udp" />
  </proto>
  <proto name="pfcp" showname="Packet Forwarding Control Protocol" size="16" pos="44">
    <field name="pfcp.flags" showname="Flags: 0x20" size="1" pos="44" show="0x00000020" value="20">
      <field name="pfcp.version" showname="001. .... = Version: 1" size="1" pos="44" show="1" value="1" unmaskedvalue="20"/>
      <field name="pfcp.spare_b4" showname="...0 .... = Spare: 0" size="1" pos="44" show="0" value="0" unmaskedvalue="20"/>
      <field name="pfcp.spare_b3" showname=".... 0... = Spare: 0" size="1" pos="44" show="0" value="0" unmaskedvalue="20"/>
      <field name="pfcp.spare_b2" showname=".... .0.. = Spare: 0" size="1" pos="44" show="0" value="0" unmaskedvalue="20"/>
      <field name="pfcp.mp_flag" showname=".... ..0. = Message Priority (MP): False" size="1" pos="44" show="0" value="0" unmaskedvalue="20"/>
      <field name="pfcp.s" showname=".... ...0 = SEID (S): False" size="1" pos="44" show="0" value="0" unmaskedvalue="20"/>
    </field>
    <field name="pfcp.msg_type" showname="Message Type: PFCP Heartbeat Request (1)" size="1" pos="45" show="1" value="01"/>
    <field name="pfcp.length" showname="Length: 12" size="2" pos="46" show="12" value="000c"/>
    <field name="pfcp.seqno" showname="Sequence Number: 2457" size="3" pos="48" show="2457" value="000999"/>
    <field name="pfcp.spare_oct" showname="Spare: 0" size="1" pos="51" show="0" value="00"/>
    <field name="" show="Recovery Time Stamp : Dec  8, 2022 14:26:24.000000000 UTC" size="8" pos="52" value="00600004e73c7290">
      <field name="pfcp.ie_type" showname="IE Type: Recovery Time Stamp (96)" size="2" pos="52" show="96" value="0060"/>
      <field name="pfcp.ie_len" showname="IE Length: 4" size="2" pos="54" show="4" value="0004"/>
      <field name="pfcp.recovery_time_stamp" showname="Recovery Time Stamp: Dec  8, 2022 14:26:24.000000000 UTC" size="4" pos="56" show="Dec  8, 2022 15:26:24.000000000 CET" value="e73c7290"/>
    </field>
    <field name="pfcp.response_in" showname="Response In: 9515" size="0" pos="44" show="9515"/>
  </proto>
</packet>


<packet>
  <proto name="geninfo" pos="0" showname="General information" size="60">
    <field name="num" pos="0" show="9515" showname="Number" value="252b" size="60"/>
    <field name="len" pos="0" show="60" showname="Frame Length" value="3c" size="60"/>
    <field name="caplen" pos="0" show="60" showname="Captured Length" value="3c" size="60"/>
    <field name="timestamp" pos="0" show="Dec  9, 2022 18:42:37.561891924 CET" showname="Captured Time" value="1670607757.561891924" size="60"/>
  </proto>
  <proto name="frame" showname="Frame 9515: 60 bytes on wire (480 bits), 60 bytes captured (480 bits) on interface any, id 0" size="60" pos="0">
    <field name="filtered" value="frame" />
  </proto>
  <proto name="sll" showname="Linux cooked capture" size="16" pos="0">
    <field name="filtered" value="sll" />
  </proto>
  <proto name="ip" showname="Internet Protocol Version 4, Src: 127.0.0.3, Dst: 127.0.0.6" size="20" pos="16">
    <field name="filtered" value="ip" />
  </proto>
  <proto name="udp" showname="User Datagram Protocol, Src Port: 8805, Dst Port: 8805" size="8" pos="36">
    <field name="filtered" value="udp" />
  </proto>
  <proto name="pfcp" showname="Packet Forwarding Control Protocol" size="16" pos="44">
    <field name="pfcp.flags" showname="Flags: 0x20" size="1" pos="44" show="0x00000020" value="20">
      <field name="pfcp.version" showname="001. .... = Version: 1" size="1" pos="44" show="1" value="1" unmaskedvalue="20"/>
      <field name="pfcp.spare_b4" showname="...0 .... = Spare: 0" size="1" pos="44" show="0" value="0" unmaskedvalue="20"/>
      <field name="pfcp.spare_b3" showname=".... 0... = Spare: 0" size="1" pos="44" show="0" value="0" unmaskedvalue="20"/>
      <field name="pfcp.spare_b2" showname=".... .0.. = Spare: 0" size="1" pos="44" show="0" value="0" unmaskedvalue="20"/>
      <field name="pfcp.mp_flag" showname=".... ..0. = Message Priority (MP): False" size="1" pos="44" show="0" value="0" unmaskedvalue="20"/>
      <field name="pfcp.s" showname=".... ...0 = SEID (S): False" size="1" pos="44" show="0" value="0" unmaskedvalue="20"/>
    </field>
    <field name="pfcp.msg_type" showname="Message Type: PFCP Heartbeat Response (2)" size="1" pos="45" show="2" value="02"/>
    <field name="pfcp.length" showname="Length: 12" size="2" pos="46" show="12" value="000c"/>
    <field name="pfcp.seqno" showname="Sequence Number: 2457" size="3" pos="48" show="2457" value="000999"/>
    <field name="pfcp.spare_oct" showname="Spare: 0" size="1" pos="51" show="0" value="00"/>
    <field name="" show="Recovery Time Stamp : Dec  8, 2022 14:26:24.000000000 UTC" size="8" pos="52" value="00600004e73c7290">
      <field name="pfcp.ie_type" showname="IE Type: Recovery Time Stamp (96)" size="2" pos="52" show="96" value="0060"/>
      <field name="pfcp.ie_len" showname="IE Length: 4" size="2" pos="54" show="4" value="0004"/>
      <field name="pfcp.recovery_time_stamp" showname="Recovery Time Stamp: Dec  8, 2022 14:26:24.000000000 UTC" size="4" pos="56" show="Dec  8, 2022 15:26:24.000000000 CET" value="e73c7290"/>
    </field>
    <field name="pfcp.response_to" showname="Response To: 9514" size="0" pos="44" show="9514"/>
    <field name="pfcp.response_time" showname="Response Time: 0.000182330 seconds" size="0" pos="44" show="0.000182330"/>
  </proto>
</packet>


<packet>
  <proto name="geninfo" pos="0" showname="General information" size="60">
    <field name="num" pos="0" show="9516" showname="Number" value="252c" size="60"/>
    <field name="len" pos="0" show="60" showname="Frame Length" value="3c" size="60"/>
    <field name="caplen" pos="0" show="60" showname="Captured Length" value="3c" size="60"/>
    <field name="timestamp" pos="0" show="Dec  9, 2022 18:42:37.561944005 CET" showname="Captured Time" value="1670607757.561944005" size="60"/>
  </proto>
  <proto name="frame" showname="Frame 9516: 60 bytes on wire (480 bits), 60 bytes captured (480 bits) on interface any, id 0" size="60" pos="0">
    <field name="filtered" value="frame" />
  </proto>
  <proto name="sll" showname="Linux cooked capture" size="16" pos="0">
    <field name="filtered" value="sll" />
  </proto>
  <proto name="ip" showname="Internet Protocol Version 4, Src: 127.0.0.3, Dst: 127.0.0.6" size="20" pos="16">
    <field name="filtered" value="ip" />
  </proto>
  <proto name="udp" showname="User Datagram Protocol, Src Port: 8805, Dst Port: 8805" size="8" pos="36">
    <field name="filtered" value="udp" />
  </proto>
  <proto name="pfcp" showname="Packet Forwarding Control Protocol" size="16" pos="44">
    <field name="pfcp.flags" showname="Flags: 0x20" size="1" pos="44" show="0x00000020" value="20">
      <field name="pfcp.version" showname="001. .... = Version: 1" size="1" pos="44" show="1" value="1" unmaskedvalue="20"/>
      <field name="pfcp.spare_b4" showname="...0 .... = Spare: 0" size="1" pos="44" show="0" value="0" unmaskedvalue="20"/>
      <field name="pfcp.spare_b3" showname=".... 0... = Spare: 0" size="1" pos="44" show="0" value="0" unmaskedvalue="20"/>
      <field name="pfcp.spare_b2" showname=".... .0.. = Spare: 0" size="1" pos="44" show="0" value="0" unmaskedvalue="20"/>
      <field name="pfcp.mp_flag" showname=".... ..0. = Message Priority (MP): False" size="1" pos="44" show="0" value="0" unmaskedvalue="20"/>
      <field name="pfcp.s" showname=".... ...0 = SEID (S): False" size="1" pos="44" show="0" value="0" unmaskedvalue="20"/>
    </field>
    <field name="pfcp.msg_type" showname="Message Type: PFCP Heartbeat Request (1)" size="1" pos="45" show="1" value="01"/>
    <field name="pfcp.length" showname="Length: 12" size="2" pos="46" show="12" value="000c"/>
    <field name="pfcp.seqno" showname="Sequence Number: 2457" size="3" pos="48" show="2457" value="000999"/>
    <field name="pfcp.spare_oct" showname="Spare: 0" size="1" pos="51" show="0" value="00"/>
    <field name="" show="Recovery Time Stamp : Dec  8, 2022 14:26:24.000000000 UTC" size="8" pos="52" value="00600004e73c7290">
      <field name="pfcp.ie_type" showname="IE Type: Recovery Time Stamp (96)" size="2" pos="52" show="96" value="0060"/>
      <field name="pfcp.ie_len" showname="IE Length: 4" size="2" pos="54" show="4" value="0004"/>
      <field name="pfcp.recovery_time_stamp" showname="Recovery Time Stamp: Dec  8, 2022 14:26:24.000000000 UTC" size="4" pos="56" show="Dec  8, 2022 15:26:24.000000000 CET" value="e73c7290"/>
    </field>
    <field name="pfcp.response_in" showname="Response In: 9517" size="0" pos="44" show="9517"/>
  </proto>
</packet>


<packet>
  <proto name="geninfo" pos="0" showname="General information" size="60">
    <field name="num" pos="0" show="9517" showname="Number" value="252d" size="60"/>
    <field name="len" pos="0" show="60" showname="Frame Length" value="3c" size="60"/>
    <field name="caplen" pos="0" show="60" showname="Captured Length" value="3c" size="60"/>
    <field name="timestamp" pos="0" show="Dec  9, 2022 18:42:37.562067811 CET" showname="Captured Time" value="1670607757.562067811" size="60"/>
  </proto>
  <proto name="frame" showname="Frame 9517: 60 bytes on wire (480 bits), 60 bytes captured (480 bits) on interface any, id 0" size="60" pos="0">
    <field name="filtered" value="frame" />
  </proto>
  <proto name="sll" showname="Linux cooked capture" size="16" pos="0">
    <field name="filtered" value="sll" />
  </proto>
  <proto name="ip" showname="Internet Protocol Version 4, Src: 127.0.0.6, Dst: 127.0.0.3" size="20" pos="16">
    <field name="filtered" value="ip" />
  </proto>
  <proto name="udp" showname="User Datagram Protocol, Src Port: 8805, Dst Port: 8805" size="8" pos="36">
    <field name="filtered" value="udp" />
  </proto>
  <proto name="pfcp" showname="Packet Forwarding Control Protocol" size="16" pos="44">
    <field name="pfcp.flags" showname="Flags: 0x20" size="1" pos="44" show="0x00000020" value="20">
      <field name="pfcp.version" showname="001. .... = Version: 1" size="1" pos="44" show="1" value="1" unmaskedvalue="20"/>
      <field name="pfcp.spare_b4" showname="...0 .... = Spare: 0" size="1" pos="44" show="0" value="0" unmaskedvalue="20"/>
      <field name="pfcp.spare_b3" showname=".... 0... = Spare: 0" size="1" pos="44" show="0" value="0" unmaskedvalue="20"/>
      <field name="pfcp.spare_b2" showname=".... .0.. = Spare: 0" size="1" pos="44" show="0" value="0" unmaskedvalue="20"/>
      <field name="pfcp.mp_flag" showname=".... ..0. = Message Priority (MP): False" size="1" pos="44" show="0" value="0" unmaskedvalue="20"/>
      <field name="pfcp.s" showname=".... ...0 = SEID (S): False" size="1" pos="44" show="0" value="0" unmaskedvalue="20"/>
    </field>
    <field name="pfcp.msg_type" showname="Message Type: PFCP Heartbeat Response (2)" size="1" pos="45" show="2" value="02"/>
    <field name="pfcp.length" showname="Length: 12" size="2" pos="46" show="12" value="000c"/>
    <field name="pfcp.seqno" showname="Sequence Number: 2457" size="3" pos="48" show="2457" value="000999"/>
    <field name="pfcp.spare_oct" showname="Spare: 0" size="1" pos="51" show="0" value="00"/>
    <field name="" show="Recovery Time Stamp : Dec  8, 2022 14:26:24.000000000 UTC" size="8" pos="52" value="00600004e73c7290">
      <field name="pfcp.ie_type" showname="IE Type: Recovery Time Stamp (96)" size="2" pos="52" show="96" value="0060"/>
      <field name="pfcp.ie_len" showname="IE Length: 4" size="2" pos="54" show="4" value="0004"/>
      <field name="pfcp.recovery_time_stamp" showname="Recovery Time Stamp: Dec  8, 2022 14:26:24.000000000 UTC" size="4" pos="56" show="Dec  8, 2022 15:26:24.000000000 CET" value="e73c7290"/>
    </field>
    <field name="pfcp.response_to" showname="Response To: 9516" size="0" pos="44" show="9516"/>
    <field name="pfcp.response_time" showname="Response Time: 0.000123806 seconds" size="0" pos="44" show="0.000123806"/>
  </proto>
</packet>


<packet>
  <proto name="geninfo" pos="0" showname="General information" size="140">
    <field name="num" pos="0" show="10389" showname="Number" value="2895" size="140"/>
    <field name="len" pos="0" show="140" showname="Frame Length" value="8c" size="140"/>
    <field name="caplen" pos="0" show="140" showname="Captured Length" value="8c" size="140"/>
    <field name="timestamp" pos="0" show="Dec  9, 2022 18:42:40.264941766 CET" showname="Captured Time" value="1670607760.264941766" size="140"/>
  </proto>
  <proto name="frame" showname="Frame 10389: 140 bytes on wire (1120 bits), 140 bytes captured (1120 bits) on interface any, id 0" size="140" pos="0">
    <field name="filtered" value="frame" />
  </proto>
  <proto name="sll" showname="Linux cooked capture" size="16" pos="0">
    <field name="filtered" value="sll" />
  </proto>
  <proto name="ip" showname="Internet Protocol Version 4, Src: 127.0.0.9, Dst: 127.0.0.4" size="20" pos="16">
    <field name="filtered" value="ip" />
  </proto>
  <proto name="sctp" showname="Stream Control Transmission Protocol, Src Port: 40193 (40193), Dst Port: 3868 (3868)" size="28" pos="36">
    <field name="filtered" value="sctp" />
  </proto>
  <proto name="diameter" showname="Diameter Protocol" size="76" pos="64">
    <field name="diameter.version" showname="Version: 0x01" size="1" pos="64" show="0x00000001" value="01"/>
    <field name="diameter.length" showname="Length: 76" size="3" pos="65" show="76" value="00004c"/>
    <field name="diameter.flags" showname="Flags: 0x80, Request" size="1" pos="68" show="0x00000080" value="80">
      <field name="diameter.flags.request" showname="1... .... = Request: Set" size="1" pos="68" show="1" value="1" unmaskedvalue="80"/>
      <field name="diameter.flags.proxyable" showname=".0.. .... = Proxyable: Not set" size="1" pos="68" show="0" value="0" unmaskedvalue="80"/>
      <field name="diameter.flags.error" showname="..0. .... = Error: Not set" size="1" pos="68" show="0" value="0" unmaskedvalue="80"/>
      <field name="diameter.flags.T" showname="...0 .... = T(Potentially re-transmitted message): Not set" size="1" pos="68" show="0" value="0" unmaskedvalue="80"/>
      <field name="diameter.flags.reserved4" showname=".... 0... = Reserved: Not set" size="1" pos="68" show="0" value="0" unmaskedvalue="80"/>
      <field name="diameter.flags.reserved5" showname=".... .0.. = Reserved: Not set" size="1" pos="68" show="0" value="0" unmaskedvalue="80"/>
      <field name="diameter.flags.reserved6" showname=".... ..0. = Reserved: Not set" size="1" pos="68" show="0" value="0" unmaskedvalue="80"/>
      <field name="diameter.flags.reserved7" showname=".... ...0 = Reserved: Not set" size="1" pos="68" show="0" value="0" unmaskedvalue="80"/>
    </field>
    <field name="diameter.cmd.code" showname="Command Code: 280 Device-Watchdog" size="3" pos="69" show="280" value="000118"/>
    <field name="diameter.applicationId" showname="ApplicationId: Diameter Common Messages (0)" size="4" pos="72" show="0" value="00000000"/>
    <field name="diameter.hopbyhopid" showname="Hop-by-Hop Identifier: 0x7f7fcd66" size="4" pos="76" show="0x7f7fcd66" value="7f7fcd66"/>
    <field name="diameter.endtoendid" showname="End-to-End Identifier: 0x41707f41" size="4" pos="80" show="0x41707f41" value="41707f41"/>
    <field name="diameter.answer_in" showname="Answer In: 10390" size="0" pos="64" show="10390"/>
    <field name="diameter.avp" showname="AVP: Origin-Host(264) l=24 f=-M- val=pcrf.localdomain" size="24" pos="84" show="00:00:01:08:40:00:00:18:70:63:72:66:2e:6c:6f:63:61:6c:64:6f:6d:61:69:6e" value="0000010840000018706372662e6c6f63616c646f6d61696e">
      <field name="diameter.avp.code" showname="AVP Code: 264 Origin-Host" size="4" pos="84" show="264" value="00000108"/>
      <field name="diameter.avp.flags" showname="AVP Flags: 0x40, Mandatory: Set" size="1" pos="88" show="0x00000040" value="40">
        <field name="diameter.flags.vendorspecific" showname="0... .... = Vendor-Specific: Not set" size="1" pos="88" show="0" value="0" unmaskedvalue="40"/>
        <field name="diameter.flags.mandatory" showname=".1.. .... = Mandatory: Set" size="1" pos="88" show="1" value="1" unmaskedvalue="40"/>
        <field name="diameter.avp.flags.protected" showname="..0. .... = Protected: Not set" size="1" pos="88" show="0" value="0" unmaskedvalue="40"/>
        <field name="diameter.avp.flags.reserved3" showname="...0 .... = Reserved: Not set" size="1" pos="88" show="0" value="0" unmaskedvalue="40"/>
        <field name="diameter.avp.flags.reserved4" showname=".... 0... = Reserved: Not set" size="1" pos="88" show="0" value="0" unmaskedvalue="40"/>
        <field name="diameter.avp.flags.reserved5" showname=".... .0.. = Reserved: Not set" size="1" pos="88" show="0" value="0" unmaskedvalue="40"/>
        <field name="diameter.avp.flags.reserved6" showname=".... ..0. = Reserved: Not set" size="1" pos="88" show="0" value="0" unmaskedvalue="40"/>
        <field name="diameter.avp.flags.reserved7" showname=".... ...0 = Reserved: Not set" size="1" pos="88" show="0" value="0" unmaskedvalue="40"/>
      </field>
      <field name="diameter.avp.len" showname="AVP Length: 24" size="3" pos="89" show="24" value="000018"/>
      <field name="diameter.Origin-Host" showname="Origin-Host: pcrf.localdomain" size="16" pos="92" show="pcrf.localdomain" value="706372662e6c6f63616c646f6d61696e"/>
    </field>
    <field name="diameter.avp" showname="AVP: Origin-Realm(296) l=19 f=-M- val=localdomain" size="20" pos="108" show="00:00:01:28:40:00:00:13:6c:6f:63:61:6c:64:6f:6d:61:69:6e:00" value="00000128400000136c6f63616c646f6d61696e00">
      <field name="diameter.avp.code" showname="AVP Code: 296 Origin-Realm" size="4" pos="108" show="296" value="00000128"/>
      <field name="diameter.avp.flags" showname="AVP Flags: 0x40, Mandatory: Set" size="1" pos="112" show="0x00000040" value="40">
        <field name="diameter.flags.vendorspecific" showname="0... .... = Vendor-Specific: Not set" size="1" pos="112" show="0" value="0" unmaskedvalue="40"/>
        <field name="diameter.flags.mandatory" showname=".1.. .... = Mandatory: Set" size="1" pos="112" show="1" value="1" unmaskedvalue="40"/>
        <field name="diameter.avp.flags.protected" showname="..0. .... = Protected: Not set" size="1" pos="112" show="0" value="0" unmaskedvalue="40"/>
        <field name="diameter.avp.flags.reserved3" showname="...0 .... = Reserved: Not set" size="1" pos="112" show="0" value="0" unmaskedvalue="40"/>
        <field name="diameter.avp.flags.reserved4" showname=".... 0... = Reserved: Not set" size="1" pos="112" show="0" value="0" unmaskedvalue="40"/>
        <field name="diameter.avp.flags.reserved5" showname=".... .0.. = Reserved: Not set" size="1" pos="112" show="0" value="0" unmaskedvalue="40"/>
        <field name="diameter.avp.flags.reserved6" showname=".... ..0. = Reserved: Not set" size="1" pos="112" show="0" value="0" unmaskedvalue="40"/>
        <field name="diameter.avp.flags.reserved7" showname=".... ...0 = Reserved: Not set" size="1" pos="112" show="0" value="0" unmaskedvalue="40"/>
      </field>
      <field name="diameter.avp.len" showname="AVP Length: 19" size="3" pos="113" show="19" value="000013"/>
      <field name="diameter.Origin-Realm" showname="Origin-Realm: localdomain" size="11" pos="116" show="localdomain" value="6c6f63616c646f6d61696e"/>
      <field name="diameter.avp.pad" showname="Padding: 00" size="1" pos="127" show="00" value="00"/>
    </field>
    <field name="diameter.avp" showname="AVP: Origin-State-Id(278) l=12 f=-M- val=1670509591" size="12" pos="128" show="00:00:01:16:40:00:00:0c:63:91:f4:17" value="000001164000000c6391f417">
      <field name="diameter.avp.code" showname="AVP Code: 278 Origin-State-Id" size="4" pos="128" show="278" value="00000116"/>
      <field name="diameter.avp.flags" showname="AVP Flags: 0x40, Mandatory: Set" size="1" pos="132" show="0x00000040" value="40">
        <field name="diameter.flags.vendorspecific" showname="0... .... = Vendor-Specific: Not set" size="1" pos="132" show="0" value="0" unmaskedvalue="40"/>
        <field name="diameter.flags.mandatory" showname=".1.. .... = Mandatory: Set" size="1" pos="132" show="1" value="1" unmaskedvalue="40"/>
        <field name="diameter.avp.flags.protected" showname="..0. .... = Protected: Not set" size="1" pos="132" show="0" value="0" unmaskedvalue="40"/>
        <field name="diameter.avp.flags.reserved3" showname="...0 .... = Reserved: Not set" size="1" pos="132" show="0" value="0" unmaskedvalue="40"/>
        <field name="diameter.avp.flags.reserved4" showname=".... 0... = Reserved: Not set" size="1" pos="132" show="0" value="0" unmaskedvalue="40"/>
        <field name="diameter.avp.flags.reserved5" showname=".... .0.. = Reserved: Not set" size="1" pos="132" show="0" value="0" unmaskedvalue="40"/>
        <field name="diameter.avp.flags.reserved6" showname=".... ..0. = Reserved: Not set" size="1" pos="132" show="0" value="0" unmaskedvalue="40"/>
        <field name="diameter.avp.flags.reserved7" showname=".... ...0 = Reserved: Not set" size="1" pos="132" show="0" value="0" unmaskedvalue="40"/>
      </field>
      <field name="diameter.avp.len" showname="AVP Length: 12" size="3" pos="133" show="12" value="00000c"/>
      <field name="diameter.Origin-State-Id" showname="Origin-State-Id: 1670509591" size="4" pos="136" show="1670509591" value="6391f417"/>
    </field>
  </proto>
</packet>


<packet>
  <proto name="geninfo" pos="0" showname="General information" size="168">
    <field name="num" pos="0" show="10390" showname="Number" value="2896" size="168"/>
    <field name="len" pos="0" show="168" showname="Frame Length" value="a8" size="168"/>
    <field name="caplen" pos="0" show="168" showname="Captured Length" value="a8" size="168"/>
    <field name="timestamp" pos="0" show="Dec  9, 2022 18:42:40.265547058 CET" showname="Captured Time" value="1670607760.265547058" size="168"/>
  </proto>
  <proto name="frame" showname="Frame 10390: 168 bytes on wire (1344 bits), 168 bytes captured (1344 bits) on interface any, id 0" size="168" pos="0">
    <field name="filtered" value="frame" />
  </proto>
  <proto name="sll" showname="Linux cooked capture" size="16" pos="0">
    <field name="filtered" value="sll" />
  </proto>
  <proto name="ip" showname="Internet Protocol Version 4, Src: 127.0.0.4, Dst: 127.0.0.9" size="20" pos="16">
    <field name="filtered" value="ip" />
  </proto>
  <proto name="sctp" showname="Stream Control Transmission Protocol, Src Port: 3868 (3868), Dst Port: 40193 (40193)" size="44" pos="36">
    <field name="filtered" value="sctp" />
  </proto>
  <proto name="diameter" showname="Diameter Protocol" size="88" pos="80">
    <field name="diameter.version" showname="Version: 0x01" size="1" pos="80" show="0x00000001" value="01"/>
    <field name="diameter.length" showname="Length: 88" size="3" pos="81" show="88" value="000058"/>
    <field name="diameter.flags" showname="Flags: 0x00" size="1" pos="84" show="0x00000000" value="00">
      <field name="diameter.flags.request" showname="0... .... = Request: Not set" size="1" pos="84" show="0" value="0" unmaskedvalue="00"/>
      <field name="diameter.flags.proxyable" showname=".0.. .... = Proxyable: Not set" size="1" pos="84" show="0" value="0" unmaskedvalue="00"/>
      <field name="diameter.flags.error" showname="..0. .... = Error: Not set" size="1" pos="84" show="0" value="0" unmaskedvalue="00"/>
      <field name="diameter.flags.T" showname="...0 .... = T(Potentially re-transmitted message): Not set" size="1" pos="84" show="0" value="0" unmaskedvalue="00"/>
      <field name="diameter.flags.reserved4" showname=".... 0... = Reserved: Not set" size="1" pos="84" show="0" value="0" unmaskedvalue="00"/>
      <field name="diameter.flags.reserved5" showname=".... .0.. = Reserved: Not set" size="1" pos="84" show="0" value="0" unmaskedvalue="00"/>
      <field name="diameter.flags.reserved6" showname=".... ..0. = Reserved: Not set" size="1" pos="84" show="0" value="0" unmaskedvalue="00"/>
      <field name="diameter.flags.reserved7" showname=".... ...0 = Reserved: Not set" size="1" pos="84" show="0" value="0" unmaskedvalue="00"/>
    </field>
    <field name="diameter.cmd.code" showname="Command Code: 280 Device-Watchdog" size="3" pos="85" show="280" value="000118"/>
    <field name="diameter.applicationId" showname="ApplicationId: Diameter Common Messages (0)" size="4" pos="88" show="0" value="00000000"/>
    <field name="diameter.hopbyhopid" showname="Hop-by-Hop Identifier: 0x7f7fcd66" size="4" pos="92" show="0x7f7fcd66" value="7f7fcd66"/>
    <field name="diameter.endtoendid" showname="End-to-End Identifier: 0x41707f41" size="4" pos="96" show="0x41707f41" value="41707f41"/>
    <field name="diameter.answer_to" showname="Request In: 10389" size="0" pos="80" show="10389"/>
    <field name="diameter.resp_time" showname="Response Time: 0.000605292 seconds" size="0" pos="80" show="0.000605292"/>
    <field name="diameter.avp" showname="AVP: Result-Code(268) l=12 f=-M- val=DIAMETER_SUCCESS (2001)" size="12" pos="100" show="00:00:01:0c:40:00:00:0c:00:00:07:d1" value="0000010c4000000c000007d1">
      <field name="diameter.avp.code" showname="AVP Code: 268 Result-Code" size="4" pos="100" show="268" value="0000010c"/>
      <field name="diameter.avp.flags" showname="AVP Flags: 0x40, Mandatory: Set" size="1" pos="104" show="0x00000040" value="40">
        <field name="diameter.flags.vendorspecific" showname="0... .... = Vendor-Specific: Not set" size="1" pos="104" show="0" value="0" unmaskedvalue="40"/>
        <field name="diameter.flags.mandatory" showname=".1.. .... = Mandatory: Set" size="1" pos="104" show="1" value="1" unmaskedvalue="40"/>
        <field name="diameter.avp.flags.protected" showname="..0. .... = Protected: Not set" size="1" pos="104" show="0" value="0" unmaskedvalue="40"/>
        <field name="diameter.avp.flags.reserved3" showname="...0 .... = Reserved: Not set" size="1" pos="104" show="0" value="0" unmaskedvalue="40"/>
        <field name="diameter.avp.flags.reserved4" showname=".... 0... = Reserved: Not set" size="1" pos="104" show="0" value="0" unmaskedvalue="40"/>
        <field name="diameter.avp.flags.reserved5" showname=".... .0.. = Reserved: Not set" size="1" pos="104" show="0" value="0" unmaskedvalue="40"/>
        <field name="diameter.avp.flags.reserved6" showname=".... ..0. = Reserved: Not set" size="1" pos="104" show="0" value="0" unmaskedvalue="40"/>
        <field name="diameter.avp.flags.reserved7" showname=".... ...0 = Reserved: Not set" size="1" pos="104" show="0" value="0" unmaskedvalue="40"/>
      </field>
      <field name="diameter.avp.len" showname="AVP Length: 12" size="3" pos="105" show="12" value="00000c"/>
      <field name="diameter.Result-Code" showname="Result-Code: DIAMETER_SUCCESS (2001)" size="4" pos="108" show="2001" value="000007d1"/>
    </field>
    <field name="diameter.avp" showname="AVP: Origin-Host(264) l=23 f=-M- val=smf.localdomain" size="24" pos="112" show="00:00:01:08:40:00:00:17:73:6d:66:2e:6c:6f:63:61:6c:64:6f:6d:61:69:6e:00" value="0000010840000017736d662e6c6f63616c646f6d61696e00">
      <field name="diameter.avp.code" showname="AVP Code: 264 Origin-Host" size="4" pos="112" show="264" value="00000108"/>
      <field name="diameter.avp.flags" showname="AVP Flags: 0x40, Mandatory: Set" size="1" pos="116" show="0x00000040" value="40">
        <field name="diameter.flags.vendorspecific" showname="0... .... = Vendor-Specific: Not set" size="1" pos="116" show="0" value="0" unmaskedvalue="40"/>
        <field name="diameter.flags.mandatory" showname=".1.. .... = Mandatory: Set" size="1" pos="116" show="1" value="1" unmaskedvalue="40"/>
        <field name="diameter.avp.flags.protected" showname="..0. .... = Protected: Not set" size="1" pos="116" show="0" value="0" unmaskedvalue="40"/>
        <field name="diameter.avp.flags.reserved3" showname="...0 .... = Reserved: Not set" size="1" pos="116" show="0" value="0" unmaskedvalue="40"/>
        <field name="diameter.avp.flags.reserved4" showname=".... 0... = Reserved: Not set" size="1" pos="116" show="0" value="0" unmaskedvalue="40"/>
        <field name="diameter.avp.flags.reserved5" showname=".... .0.. = Reserved: Not set" size="1" pos="116" show="0" value="0" unmaskedvalue="40"/>
        <field name="diameter.avp.flags.reserved6" showname=".... ..0. = Reserved: Not set" size="1" pos="116" show="0" value="0" unmaskedvalue="40"/>
        <field name="diameter.avp.flags.reserved7" showname=".... ...0 = Reserved: Not set" size="1" pos="116" show="0" value="0" unmaskedvalue="40"/>
      </field>
      <field name="diameter.avp.len" showname="AVP Length: 23" size="3" pos="117" show="23" value="000017"/>
      <field name="diameter.Origin-Host" showname="Origin-Host: smf.localdomain" size="15" pos="120" show="smf.localdomain" value="736d662e6c6f63616c646f6d61696e"/>
      <field name="diameter.avp.pad" showname="Padding: 00" size="1" pos="135" show="00" value="00"/>
    </field>
    <field name="diameter.avp" showname="AVP: Origin-Realm(296) l=19 f=-M- val=localdomain" size="20" pos="136" show="00:00:01:28:40:00:00:13:6c:6f:63:61:6c:64:6f:6d:61:69:6e:00" value="00000128400000136c6f63616c646f6d61696e00">
      <field name="diameter.avp.code" showname="AVP Code: 296 Origin-Realm" size="4" pos="136" show="296" value="00000128"/>
      <field name="diameter.avp.flags" showname="AVP Flags: 0x40, Mandatory: Set" size="1" pos="140" show="0x00000040" value="40">
        <field name="diameter.flags.vendorspecific" showname="0... .... = Vendor-Specific: Not set" size="1" pos="140" show="0" value="0" unmaskedvalue="40"/>
        <field name="diameter.flags.mandatory" showname=".1.. .... = Mandatory: Set" size="1" pos="140" show="1" value="1" unmaskedvalue="40"/>
        <field name="diameter.avp.flags.protected" showname="..0. .... = Protected: Not set" size="1" pos="140" show="0" value="0" unmaskedvalue="40"/>
        <field name="diameter.avp.flags.reserved3" showname="...0 .... = Reserved: Not set" size="1" pos="140" show="0" value="0" unmaskedvalue="40"/>
        <field name="diameter.avp.flags.reserved4" showname=".... 0... = Reserved: Not set" size="1" pos="140" show="0" value="0" unmaskedvalue="40"/>
        <field name="diameter.avp.flags.reserved5" showname=".... .0.. = Reserved: Not set" size="1" pos="140" show="0" value="0" unmaskedvalue="40"/>
        <field name="diameter.avp.flags.reserved6" showname=".... ..0. = Reserved: Not set" size="1" pos="140" show="0" value="0" unmaskedvalue="40"/>
        <field name="diameter.avp.flags.reserved7" showname=".... ...0 = Reserved: Not set" size="1" pos="140" show="0" value="0" unmaskedvalue="40"/>
      </field>
      <field name="diameter.avp.len" showname="AVP Length: 19" size="3" pos="141" show="19" value="000013"/>
      <field name="diameter.Origin-Realm" showname="Origin-Realm: localdomain" size="11" pos="144" show="localdomain" value="6c6f63616c646f6d61696e"/>
      <field name="diameter.avp.pad" showname="Padding: 00" size="1" pos="155" show="00" value="00"/>
    </field>
    <field name="diameter.avp" showname="AVP: Origin-State-Id(278) l=12 f=-M- val=1670509584" size="12" pos="156" show="00:00:01:16:40:00:00:0c:63:91:f4:10" value="000001164000000c6391f410">
      <field name="diameter.avp.code" showname="AVP Code: 278 Origin-State-Id" size="4" pos="156" show="278" value="00000116"/>
      <field name="diameter.avp.flags" showname="AVP Flags: 0x40, Mandatory: Set" size="1" pos="160" show="0x00000040" value="40">
        <field name="diameter.flags.vendorspecific" showname="0... .... = Vendor-Specific: Not set" size="1" pos="160" show="0" value="0" unmaskedvalue="40"/>
        <field name="diameter.flags.mandatory" showname=".1.. .... = Mandatory: Set" size="1" pos="160" show="1" value="1" unmaskedvalue="40"/>
        <field name="diameter.avp.flags.protected" showname="..0. .... = Protected: Not set" size="1" pos="160" show="0" value="0" unmaskedvalue="40"/>
        <field name="diameter.avp.flags.reserved3" showname="...0 .... = Reserved: Not set" size="1" pos="160" show="0" value="0" unmaskedvalue="40"/>
        <field name="diameter.avp.flags.reserved4" showname=".... 0... = Reserved: Not set" size="1" pos="160" show="0" value="0" unmaskedvalue="40"/>
        <field name="diameter.avp.flags.reserved5" showname=".... .0.. = Reserved: Not set" size="1" pos="160" show="0" value="0" unmaskedvalue="40"/>
        <field name="diameter.avp.flags.reserved6" showname=".... ..0. = Reserved: Not set" size="1" pos="160" show="0" value="0" unmaskedvalue="40"/>
        <field name="diameter.avp.flags.reserved7" showname=".... ...0 = Reserved: Not set" size="1" pos="160" show="0" value="0" unmaskedvalue="40"/>
      </field>
      <field name="diameter.avp.len" showname="AVP Length: 12" size="3" pos="161" show="12" value="00000c"/>
      <field name="diameter.Origin-State-Id" showname="Origin-State-Id: 1670509584" size="4" pos="164" show="1670509584" value="6391f410"/>
    </field>
  </proto>
</packet>


<packet>
  <proto name="geninfo" pos="0" showname="General information" size="60">
    <field name="num" pos="0" show="16616" showname="Number" value="40e8" size="60"/>
    <field name="len" pos="0" show="60" showname="Frame Length" value="3c" size="60"/>
    <field name="caplen" pos="0" show="60" showname="Captured Length" value="3c" size="60"/>
    <field name="timestamp" pos="0" show="Dec  9, 2022 18:42:48.537232706 CET" showname="Captured Time" value="1670607768.537232706" size="60"/>
  </proto>
  <proto name="frame" showname="Frame 16616: 60 bytes on wire (480 bits), 60 bytes captured (480 bits) on interface any, id 0" size="60" pos="0">
    <field name="filtered" value="frame" />
  </proto>
  <proto name="sll" showname="Linux cooked capture" size="16" pos="0">
    <field name="filtered" value="sll" />
  </proto>
  <proto name="ip" showname="Internet Protocol Version 4, Src: 127.0.0.4, Dst: 127.0.0.7" size="20" pos="16">
    <field name="filtered" value="ip" />
  </proto>
  <proto name="udp" showname="User Datagram Protocol, Src Port: 8805, Dst Port: 8805" size="8" pos="36">
    <field name="filtered" value="udp" />
  </proto>
  <proto name="pfcp" showname="Packet Forwarding Control Protocol" size="16" pos="44">
    <field name="pfcp.flags" showname="Flags: 0x20" size="1" pos="44" show="0x00000020" value="20">
      <field name="pfcp.version" showname="001. .... = Version: 1" size="1" pos="44" show="1" value="1" unmaskedvalue="20"/>
      <field name="pfcp.spare_b4" showname="...0 .... = Spare: 0" size="1" pos="44" show="0" value="0" unmaskedvalue="20"/>
      <field name="pfcp.spare_b3" showname=".... 0... = Spare: 0" size="1" pos="44" show="0" value="0" unmaskedvalue="20"/>
      <field name="pfcp.spare_b2" showname=".... .0.. = Spare: 0" size="1" pos="44" show="0" value="0" unmaskedvalue="20"/>
      <field name="pfcp.mp_flag" showname=".... ..0. = Message Priority (MP): False" size="1" pos="44" show="0" value="0" unmaskedvalue="20"/>
      <field name="pfcp.s" showname=".... ...0 = SEID (S): False" size="1" pos="44" show="0" value="0" unmaskedvalue="20"/>
    </field>
    <field name="pfcp.msg_type" showname="Message Type: PFCP Heartbeat Request (1)" size="1" pos="45" show="1" value="01"/>
    <field name="pfcp.length" showname="Length: 12" size="2" pos="46" show="12" value="000c"/>
    <field name="pfcp.seqno" showname="Sequence Number: 2721" size="3" pos="48" show="2721" value="000aa1"/>
    <field name="pfcp.spare_oct" showname="Spare: 0" size="1" pos="51" show="0" value="00"/>
    <field name="" show="Recovery Time Stamp : Dec  8, 2022 14:26:24.000000000 UTC" size="8" pos="52" value="00600004e73c7290">
      <field name="pfcp.ie_type" showname="IE Type: Recovery Time Stamp (96)" size="2" pos="52" show="96" value="0060"/>
      <field name="pfcp.ie_len" showname="IE Length: 4" size="2" pos="54" show="4" value="0004"/>
      <field name="pfcp.recovery_time_stamp" showname="Recovery Time Stamp: Dec  8, 2022 14:26:24.000000000 UTC" size="4" pos="56" show="Dec  8, 2022 15:26:24.000000000 CET" value="e73c7290"/>
    </field>
    <field name="pfcp.response_in" showname="Response In: 16617" size="0" pos="44" show="16617"/>
  </proto>
</packet>


<packet>
  <proto name="geninfo" pos="0" showname="General information" size="60">
    <field name="num" pos="0" show="16617" showname="Number" value="40e9" size="60"/>
    <field name="len" pos="0" show="60" showname="Frame Length" value="3c" size="60"/>
    <field name="caplen" pos="0" show="60" showname="Captured Length" value="3c" size="60"/>
    <field name="timestamp" pos="0" show="Dec  9, 2022 18:42:48.537347892 CET" showname="Captured Time" value="1670607768.537347892" size="60"/>
  </proto>
  <proto name="frame" showname="Frame 16617: 60 bytes on wire (480 bits), 60 bytes captured (480 bits) on interface any, id 0" size="60" pos="0">
    <field name="filtered" value="frame" />
  </proto>
  <proto name="sll" showname="Linux cooked capture" size="16" pos="0">
    <field name="filtered" value="sll" />
  </proto>
  <proto name="ip" showname="Internet Protocol Version 4, Src: 127.0.0.7, Dst: 127.0.0.4" size="20" pos="16">
    <field name="filtered" value="ip" />
  </proto>
  <proto name="udp" showname="User Datagram Protocol, Src Port: 8805, Dst Port: 8805" size="8" pos="36">
    <field name="filtered" value="udp" />
  </proto>
  <proto name="pfcp" showname="Packet Forwarding Control Protocol" size="16" pos="44">
    <field name="pfcp.flags" showname="Flags: 0x20" size="1" pos="44" show="0x00000020" value="20">
      <field name="pfcp.version" showname="001. .... = Version: 1" size="1" pos="44" show="1" value="1" unmaskedvalue="20"/>
      <field name="pfcp.spare_b4" showname="...0 .... = Spare: 0" size="1" pos="44" show="0" value="0" unmaskedvalue="20"/>
      <field name="pfcp.spare_b3" showname=".... 0... = Spare: 0" size="1" pos="44" show="0" value="0" unmaskedvalue="20"/>
      <field name="pfcp.spare_b2" showname=".... .0.. = Spare: 0" size="1" pos="44" show="0" value="0" unmaskedvalue="20"/>
      <field name="pfcp.mp_flag" showname=".... ..0. = Message Priority (MP): False" size="1" pos="44" show="0" value="0" unmaskedvalue="20"/>
      <field name="pfcp.s" showname=".... ...0 = SEID (S): False" size="1" pos="44" show="0" value="0" unmaskedvalue="20"/>
    </field>
    <field name="pfcp.msg_type" showname="Message Type: PFCP Heartbeat Response (2)" size="1" pos="45" show="2" value="02"/>
    <field name="pfcp.length" showname="Length: 12" size="2" pos="46" show="12" value="000c"/>
    <field name="pfcp.seqno" showname="Sequence Number: 2721" size="3" pos="48" show="2721" value="000aa1"/>
    <field name="pfcp.spare_oct" showname="Spare: 0" size="1" pos="51" show="0" value="00"/>
    <field name="" show="Recovery Time Stamp : Dec  8, 2022 14:26:24.000000000 UTC" size="8" pos="52" value="00600004e73c7290">
      <field name="pfcp.ie_type" showname="IE Type: Recovery Time Stamp (96)" size="2" pos="52" show="96" value="0060"/>
      <field name="pfcp.ie_len" showname="IE Length: 4" size="2" pos="54" show="4" value="0004"/>
      <field name="pfcp.recovery_time_stamp" showname="Recovery Time Stamp: Dec  8, 2022 14:26:24.000000000 UTC" size="4" pos="56" show="Dec  8, 2022 15:26:24.000000000 CET" value="e73c7290"/>
    </field>
    <field name="pfcp.response_to" showname="Response To: 16616" size="0" pos="44" show="16616"/>
    <field name="pfcp.response_time" showname="Response Time: 0.000115186 seconds" size="0" pos="44" show="0.000115186"/>
  </proto>
</packet>


<packet>
  <proto name="geninfo" pos="0" showname="General information" size="60">
    <field name="num" pos="0" show="16618" showname="Number" value="40ea" size="60"/>
    <field name="len" pos="0" show="60" showname="Frame Length" value="3c" size="60"/>
    <field name="caplen" pos="0" show="60" showname="Captured Length" value="3c" size="60"/>
    <field name="timestamp" pos="0" show="Dec  9, 2022 18:42:48.537388338 CET" showname="Captured Time" value="1670607768.537388338" size="60"/>
  </proto>
  <proto name="frame" showname="Frame 16618: 60 bytes on wire (480 bits), 60 bytes captured (480 bits) on interface any, id 0" size="60" pos="0">
    <field name="filtered" value="frame" />
  </proto>
  <proto name="sll" showname="Linux cooked capture" size="16" pos="0">
    <field name="filtered" value="sll" />
  </proto>
  <proto name="ip" showname="Internet Protocol Version 4, Src: 127.0.0.7, Dst: 127.0.0.4" size="20" pos="16">
    <field name="filtered" value="ip" />
  </proto>
  <proto name="udp" showname="User Datagram Protocol, Src Port: 8805, Dst Port: 8805" size="8" pos="36">
    <field name="filtered" value="udp" />
  </proto>
  <proto name="pfcp" showname="Packet Forwarding Control Protocol" size="16" pos="44">
    <field name="pfcp.flags" showname="Flags: 0x20" size="1" pos="44" show="0x00000020" value="20">
      <field name="pfcp.version" showname="001. .... = Version: 1" size="1" pos="44" show="1" value="1" unmaskedvalue="20"/>
      <field name="pfcp.spare_b4" showname="...0 .... = Spare: 0" size="1" pos="44" show="0" value="0" unmaskedvalue="20"/>
      <field name="pfcp.spare_b3" showname=".... 0... = Spare: 0" size="1" pos="44" show="0" value="0" unmaskedvalue="20"/>
      <field name="pfcp.spare_b2" showname=".... .0.. = Spare: 0" size="1" pos="44" show="0" value="0" unmaskedvalue="20"/>
      <field name="pfcp.mp_flag" showname=".... ..0. = Message Priority (MP): False" size="1" pos="44" show="0" value="0" unmaskedvalue="20"/>
      <field name="pfcp.s" showname=".... ...0 = SEID (S): False" size="1" pos="44" show="0" value="0" unmaskedvalue="20"/>
    </field>
    <field name="pfcp.msg_type" showname="Message Type: PFCP Heartbeat Request (1)" size="1" pos="45" show="1" value="01"/>
    <field name="pfcp.length" showname="Length: 12" size="2" pos="46" show="12" value="000c"/>
    <field name="pfcp.seqno" showname="Sequence Number: 2454" size="3" pos="48" show="2454" value="000996"/>
    <field name="pfcp.spare_oct" showname="Spare: 0" size="1" pos="51" show="0" value="00"/>
    <field name="" show="Recovery Time Stamp : Dec  8, 2022 14:26:24.000000000 UTC" size="8" pos="52" value="00600004e73c7290">
      <field name="pfcp.ie_type" showname="IE Type: Recovery Time Stamp (96)" size="2" pos="52" show="96" value="0060"/>
      <field name="pfcp.ie_len" showname="IE Length: 4" size="2" pos="54" show="4" value="0004"/>
      <field name="pfcp.recovery_time_stamp" showname="Recovery Time Stamp: Dec  8, 2022 14:26:24.000000000 UTC" size="4" pos="56" show="Dec  8, 2022 15:26:24.000000000 CET" value="e73c7290"/>
    </field>
    <field name="pfcp.response_in" showname="Response In: 16619" size="0" pos="44" show="16619"/>
  </proto>
</packet>


<packet>
  <proto name="geninfo" pos="0" showname="General information" size="60">
    <field name="num" pos="0" show="16619" showname="Number" value="40eb" size="60"/>
    <field name="len" pos="0" show="60" showname="Frame Length" value="3c" size="60"/>
    <field name="caplen" pos="0" show="60" showname="Captured Length" value="3c" size="60"/>
    <field name="timestamp" pos="0" show="Dec  9, 2022 18:42:48.537527614 CET" showname="Captured Time" value="1670607768.537527614" size="60"/>
  </proto>
  <proto name="frame" showname="Frame 16619: 60 bytes on wire (480 bits), 60 bytes captured (480 bits) on interface any, id 0" size="60" pos="0">
    <field name="filtered" value="frame" />
  </proto>
  <proto name="sll" showname="Linux cooked capture" size="16" pos="0">
    <field name="filtered" value="sll" />
  </proto>
  <proto name="ip" showname="Internet Protocol Version 4, Src: 127.0.0.4, Dst: 127.0.0.7" size="20" pos="16">
    <field name="filtered" value="ip" />
  </proto>
  <proto name="udp" showname="User Datagram Protocol, Src Port: 8805, Dst Port: 8805" size="8" pos="36">
    <field name="filtered" value="udp" />
  </proto>
  <proto name="pfcp" showname="Packet Forwarding Control Protocol" size="16" pos="44">
    <field name="pfcp.flags" showname="Flags: 0x20" size="1" pos="44" show="0x00000020" value="20">
      <field name="pfcp.version" showname="001. .... = Version: 1" size="1" pos="44" show="1" value="1" unmaskedvalue="20"/>
      <field name="pfcp.spare_b4" showname="...0 .... = Spare: 0" size="1" pos="44" show="0" value="0" unmaskedvalue="20"/>
      <field name="pfcp.spare_b3" showname=".... 0... = Spare: 0" size="1" pos="44" show="0" value="0" unmaskedvalue="20"/>
      <field name="pfcp.spare_b2" showname=".... .0.. = Spare: 0" size="1" pos="44" show="0" value="0" unmaskedvalue="20"/>
      <field name="pfcp.mp_flag" showname=".... ..0. = Message Priority (MP): False" size="1" pos="44" show="0" value="0" unmaskedvalue="20"/>
      <field name="pfcp.s" showname=".... ...0 = SEID (S): False" size="1" pos="44" show="0" value="0" unmaskedvalue="20"/>
    </field>
    <field name="pfcp.msg_type" showname="Message Type: PFCP Heartbeat Response (2)" size="1" pos="45" show="2" value="02"/>
    <field name="pfcp.length" showname="Length: 12" size="2" pos="46" show="12" value="000c"/>
    <field name="pfcp.seqno" showname="Sequence Number: 2454" size="3" pos="48" show="2454" value="000996"/>
    <field name="pfcp.spare_oct" showname="Spare: 0" size="1" pos="51" show="0" value="00"/>
    <field name="" show="Recovery Time Stamp : Dec  8, 2022 14:26:24.000000000 UTC" size="8" pos="52" value="00600004e73c7290">
      <field name="pfcp.ie_type" showname="IE Type: Recovery Time Stamp (96)" size="2" pos="52" show="96" value="0060"/>
      <field name="pfcp.ie_len" showname="IE Length: 4" size="2" pos="54" show="4" value="0004"/>
      <field name="pfcp.recovery_time_stamp" showname="Recovery Time Stamp: Dec  8, 2022 14:26:24.000000000 UTC" size="4" pos="56" show="Dec  8, 2022 15:26:24.000000000 CET" value="e73c7290"/>
    </field>
    <field name="pfcp.response_to" showname="Response To: 16618" size="0" pos="44" show="16618"/>
    <field name="pfcp.response_time" showname="Response Time: 0.000139276 seconds" size="0" pos="44" show="0.000139276"/>
  </proto>
</packet>


<packet>
  <proto name="geninfo" pos="0" showname="General information" size="60">
    <field name="num" pos="0" show="16648" showname="Number" value="4108" size="60"/>
    <field name="len" pos="0" show="60" showname="Frame Length" value="3c" size="60"/>
    <field name="caplen" pos="0" show="60" showname="Captured Length" value="3c" size="60"/>
    <field name="timestamp" pos="0" show="Dec  9, 2022 18:42:48.566564483 CET" showname="Captured Time" value="1670607768.566564483" size="60"/>
  </proto>
  <proto name="frame" showname="Frame 16648: 60 bytes on wire (480 bits), 60 bytes captured (480 bits) on interface any, id 0" size="60" pos="0">
    <field name="filtered" value="frame" />
  </proto>
  <proto name="sll" showname="Linux cooked capture" size="16" pos="0">
    <field name="filtered" value="sll" />
  </proto>
  <proto name="ip" showname="Internet Protocol Version 4, Src: 127.0.0.6, Dst: 127.0.0.3" size="20" pos="16">
    <field name="filtered" value="ip" />
  </proto>
  <proto name="udp" showname="User Datagram Protocol, Src Port: 8805, Dst Port: 8805" size="8" pos="36">
    <field name="filtered" value="udp" />
  </proto>
  <proto name="pfcp" showname="Packet Forwarding Control Protocol" size="16" pos="44">
    <field name="pfcp.flags" showname="Flags: 0x20" size="1" pos="44" show="0x00000020" value="20">
      <field name="pfcp.version" showname="001. .... = Version: 1" size="1" pos="44" show="1" value="1" unmaskedvalue="20"/>
      <field name="pfcp.spare_b4" showname="...0 .... = Spare: 0" size="1" pos="44" show="0" value="0" unmaskedvalue="20"/>
      <field name="pfcp.spare_b3" showname=".... 0... = Spare: 0" size="1" pos="44" show="0" value="0" unmaskedvalue="20"/>
      <field name="pfcp.spare_b2" showname=".... .0.. = Spare: 0" size="1" pos="44" show="0" value="0" unmaskedvalue="20"/>
      <field name="pfcp.mp_flag" showname=".... ..0. = Message Priority (MP): False" size="1" pos="44" show="0" value="0" unmaskedvalue="20"/>
      <field name="pfcp.s" showname=".... ...0 = SEID (S): False" size="1" pos="44" show="0" value="0" unmaskedvalue="20"/>
    </field>
    <field name="pfcp.msg_type" showname="Message Type: PFCP Heartbeat Request (1)" size="1" pos="45" show="1" value="01"/>
    <field name="pfcp.length" showname="Length: 12" size="2" pos="46" show="12" value="000c"/>
    <field name="pfcp.seqno" showname="Sequence Number: 2458" size="3" pos="48" show="2458" value="00099a"/>
    <field name="pfcp.spare_oct" showname="Spare: 0" size="1" pos="51" show="0" value="00"/>
    <field name="" show="Recovery Time Stamp : Dec  8, 2022 14:26:24.000000000 UTC" size="8" pos="52" value="00600004e73c7290">
      <field name="pfcp.ie_type" showname="IE Type: Recovery Time Stamp (96)" size="2" pos="52" show="96" value="0060"/>
      <field name="pfcp.ie_len" showname="IE Length: 4" size="2" pos="54" show="4" value="0004"/>
      <field name="pfcp.recovery_time_stamp" showname="Recovery Time Stamp: Dec  8, 2022 14:26:24.000000000 UTC" size="4" pos="56" show="Dec  8, 2022 15:26:24.000000000 CET" value="e73c7290"/>
    </field>
    <field name="pfcp.response_in" showname="Response In: 16649" size="0" pos="44" show="16649"/>
  </proto>
</packet>


<packet>
  <proto name="geninfo" pos="0" showname="General information" size="60">
    <field name="num" pos="0" show="16649" showname="Number" value="4109" size="60"/>
    <field name="len" pos="0" show="60" showname="Frame Length" value="3c" size="60"/>
    <field name="caplen" pos="0" show="60" showname="Captured Length" value="3c" size="60"/>
    <field name="timestamp" pos="0" show="Dec  9, 2022 18:42:48.566916921 CET" showname="Captured Time" value="1670607768.566916921" size="60"/>
  </proto>
  <proto name="frame" showname="Frame 16649: 60 bytes on wire (480 bits), 60 bytes captured (480 bits) on interface any, id 0" size="60" pos="0">
    <field name="filtered" value="frame" />
  </proto>
  <proto name="sll" showname="Linux cooked capture" size="16" pos="0">
    <field name="filtered" value="sll" />
  </proto>
  <proto name="ip" showname="Internet Protocol Version 4, Src: 127.0.0.3, Dst: 127.0.0.6" size="20" pos="16">
    <field name="filtered" value="ip" />
  </proto>
  <proto name="udp" showname="User Datagram Protocol, Src Port: 8805, Dst Port: 8805" size="8" pos="36">
    <field name="filtered" value="udp" />
  </proto>
  <proto name="pfcp" showname="Packet Forwarding Control Protocol" size="16" pos="44">
    <field name="pfcp.flags" showname="Flags: 0x20" size="1" pos="44" show="0x00000020" value="20">
      <field name="pfcp.version" showname="001. .... = Version: 1" size="1" pos="44" show="1" value="1" unmaskedvalue="20"/>
      <field name="pfcp.spare_b4" showname="...0 .... = Spare: 0" size="1" pos="44" show="0" value="0" unmaskedvalue="20"/>
      <field name="pfcp.spare_b3" showname=".... 0... = Spare: 0" size="1" pos="44" show="0" value="0" unmaskedvalue="20"/>
      <field name="pfcp.spare_b2" showname=".... .0.. = Spare: 0" size="1" pos="44" show="0" value="0" unmaskedvalue="20"/>
      <field name="pfcp.mp_flag" showname=".... ..0. = Message Priority (MP): False" size="1" pos="44" show="0" value="0" unmaskedvalue="20"/>
      <field name="pfcp.s" showname=".... ...0 = SEID (S): False" size="1" pos="44" show="0" value="0" unmaskedvalue="20"/>
    </field>
    <field name="pfcp.msg_type" showname="Message Type: PFCP Heartbeat Response (2)" size="1" pos="45" show="2" value="02"/>
    <field name="pfcp.length" showname="Length: 12" size="2" pos="46" show="12" value="000c"/>
    <field name="pfcp.seqno" showname="Sequence Number: 2458" size="3" pos="48" show="2458" value="00099a"/>
    <field name="pfcp.spare_oct" showname="Spare: 0" size="1" pos="51" show="0" value="00"/>
    <field name="" show="Recovery Time Stamp : Dec  8, 2022 14:26:24.000000000 UTC" size="8" pos="52" value="00600004e73c7290">
      <field name="pfcp.ie_type" showname="IE Type: Recovery Time Stamp (96)" size="2" pos="52" show="96" value="0060"/>
      <field name="pfcp.ie_len" showname="IE Length: 4" size="2" pos="54" show="4" value="0004"/>
      <field name="pfcp.recovery_time_stamp" showname="Recovery Time Stamp: Dec  8, 2022 14:26:24.000000000 UTC" size="4" pos="56" show="Dec  8, 2022 15:26:24.000000000 CET" value="e73c7290"/>
    </field>
    <field name="pfcp.response_to" showname="Response To: 16648" size="0" pos="44" show="16648"/>
    <field name="pfcp.response_time" showname="Response Time: 0.000352438 seconds" size="0" pos="44" show="0.000352438"/>
  </proto>
</packet>


<packet>
  <proto name="geninfo" pos="0" showname="General information" size="60">
    <field name="num" pos="0" show="16650" showname="Number" value="410a" size="60"/>
    <field name="len" pos="0" show="60" showname="Frame Length" value="3c" size="60"/>
    <field name="caplen" pos="0" show="60" showname="Captured Length" value="3c" size="60"/>
    <field name="timestamp" pos="0" show="Dec  9, 2022 18:42:48.566973833 CET" showname="Captured Time" value="1670607768.566973833" size="60"/>
  </proto>
  <proto name="frame" showname="Frame 16650: 60 bytes on wire (480 bits), 60 bytes captured (480 bits) on interface any, id 0" size="60" pos="0">
    <field name="filtered" value="frame" />
  </proto>
  <proto name="sll" showname="Linux cooked capture" size="16" pos="0">
    <field name="filtered" value="sll" />
  </proto>
  <proto name="ip" showname="Internet Protocol Version 4, Src: 127.0.0.3, Dst: 127.0.0.6" size="20" pos="16">
    <field name="filtered" value="ip" />
  </proto>
  <proto name="udp" showname="User Datagram Protocol, Src Port: 8805, Dst Port: 8805" size="8" pos="36">
    <field name="filtered" value="udp" />
  </proto>
  <proto name="pfcp" showname="Packet Forwarding Control Protocol" size="16" pos="44">
    <field name="pfcp.flags" showname="Flags: 0x20" size="1" pos="44" show="0x00000020" value="20">
      <field name="pfcp.version" showname="001. .... = Version: 1" size="1" pos="44" show="1" value="1" unmaskedvalue="20"/>
      <field name="pfcp.spare_b4" showname="...0 .... = Spare: 0" size="1" pos="44" show="0" value="0" unmaskedvalue="20"/>
      <field name="pfcp.spare_b3" showname=".... 0... = Spare: 0" size="1" pos="44" show="0" value="0" unmaskedvalue="20"/>
      <field name="pfcp.spare_b2" showname=".... .0.. = Spare: 0" size="1" pos="44" show="0" value="0" unmaskedvalue="20"/>
      <field name="pfcp.mp_flag" showname=".... ..0. = Message Priority (MP): False" size="1" pos="44" show="0" value="0" unmaskedvalue="20"/>
      <field name="pfcp.s" showname=".... ...0 = SEID (S): False" size="1" pos="44" show="0" value="0" unmaskedvalue="20"/>
    </field>
    <field name="pfcp.msg_type" showname="Message Type: PFCP Heartbeat Request (1)" size="1" pos="45" show="1" value="01"/>
    <field name="pfcp.length" showname="Length: 12" size="2" pos="46" show="12" value="000c"/>
    <field name="pfcp.seqno" showname="Sequence Number: 2458" size="3" pos="48" show="2458" value="00099a"/>
    <field name="pfcp.spare_oct" showname="Spare: 0" size="1" pos="51" show="0" value="00"/>
    <field name="" show="Recovery Time Stamp : Dec  8, 2022 14:26:24.000000000 UTC" size="8" pos="52" value="00600004e73c7290">
      <field name="pfcp.ie_type" showname="IE Type: Recovery Time Stamp (96)" size="2" pos="52" show="96" value="0060"/>
      <field name="pfcp.ie_len" showname="IE Length: 4" size="2" pos="54" show="4" value="0004"/>
      <field name="pfcp.recovery_time_stamp" showname="Recovery Time Stamp: Dec  8, 2022 14:26:24.000000000 UTC" size="4" pos="56" show="Dec  8, 2022 15:26:24.000000000 CET" value="e73c7290"/>
    </field>
    <field name="pfcp.response_in" showname="Response In: 16653" size="0" pos="44" show="16653"/>
  </proto>
</packet>


<packet>
  <proto name="geninfo" pos="0" showname="General information" size="60">
    <field name="num" pos="0" show="16653" showname="Number" value="410d" size="60"/>
    <field name="len" pos="0" show="60" showname="Frame Length" value="3c" size="60"/>
    <field name="caplen" pos="0" show="60" showname="Captured Length" value="3c" size="60"/>
    <field name="timestamp" pos="0" show="Dec  9, 2022 18:42:48.567555695 CET" showname="Captured Time" value="1670607768.567555695" size="60"/>
  </proto>
  <proto name="frame" showname="Frame 16653: 60 bytes on wire (480 bits), 60 bytes captured (480 bits) on interface any, id 0" size="60" pos="0">
    <field name="filtered" value="frame" />
  </proto>
  <proto name="sll" showname="Linux cooked capture" size="16" pos="0">
    <field name="filtered" value="sll" />
  </proto>
  <proto name="ip" showname="Internet Protocol Version 4, Src: 127.0.0.6, Dst: 127.0.0.3" size="20" pos="16">
    <field name="filtered" value="ip" />
  </proto>
  <proto name="udp" showname="User Datagram Protocol, Src Port: 8805, Dst Port: 8805" size="8" pos="36">
    <field name="filtered" value="udp" />
  </proto>
  <proto name="pfcp" showname="Packet Forwarding Control Protocol" size="16" pos="44">
    <field name="pfcp.flags" showname="Flags: 0x20" size="1" pos="44" show="0x00000020" value="20">
      <field name="pfcp.version" showname="001. .... = Version: 1" size="1" pos="44" show="1" value="1" unmaskedvalue="20"/>
      <field name="pfcp.spare_b4" showname="...0 .... = Spare: 0" size="1" pos="44" show="0" value="0" unmaskedvalue="20"/>
      <field name="pfcp.spare_b3" showname=".... 0... = Spare: 0" size="1" pos="44" show="0" value="0" unmaskedvalue="20"/>
      <field name="pfcp.spare_b2" showname=".... .0.. = Spare: 0" size="1" pos="44" show="0" value="0" unmaskedvalue="20"/>
      <field name="pfcp.mp_flag" showname=".... ..0. = Message Priority (MP): False" size="1" pos="44" show="0" value="0" unmaskedvalue="20"/>
      <field name="pfcp.s" showname=".... ...0 = SEID (S): False" size="1" pos="44" show="0" value="0" unmaskedvalue="20"/>
    </field>
    <field name="pfcp.msg_type" showname="Message Type: PFCP Heartbeat Response (2)" size="1" pos="45" show="2" value="02"/>
    <field name="pfcp.length" showname="Length: 12" size="2" pos="46" show="12" value="000c"/>
    <field name="pfcp.seqno" showname="Sequence Number: 2458" size="3" pos="48" show="2458" value="00099a"/>
    <field name="pfcp.spare_oct" showname="Spare: 0" size="1" pos="51" show="0" value="00"/>
    <field name="" show="Recovery Time Stamp : Dec  8, 2022 14:26:24.000000000 UTC" size="8" pos="52" value="00600004e73c7290">
      <field name="pfcp.ie_type" showname="IE Type: Recovery Time Stamp (96)" size="2" pos="52" show="96" value="0060"/>
      <field name="pfcp.ie_len" showname="IE Length: 4" size="2" pos="54" show="4" value="0004"/>
      <field name="pfcp.recovery_time_stamp" showname="Recovery Time Stamp: Dec  8, 2022 14:26:24.000000000 UTC" size="4" pos="56" show="Dec  8, 2022 15:26:24.000000000 CET" value="e73c7290"/>
    </field>
    <field name="pfcp.response_to" showname="Response To: 16650" size="0" pos="44" show="16650"/>
    <field name="pfcp.response_time" showname="Response Time: 0.000581862 seconds" size="0" pos="44" show="0.000581862"/>
  </proto>
</packet>


<packet>
  <proto name="geninfo" pos="0" showname="General information" size="60">
    <field name="num" pos="0" show="21012" showname="Number" value="5214" size="60"/>
    <field name="len" pos="0" show="60" showname="Frame Length" value="3c" size="60"/>
    <field name="caplen" pos="0" show="60" showname="Captured Length" value="3c" size="60"/>
    <field name="timestamp" pos="0" show="Dec  9, 2022 18:42:59.541424837 CET" showname="Captured Time" value="1670607779.541424837" size="60"/>
  </proto>
  <proto name="frame" showname="Frame 21012: 60 bytes on wire (480 bits), 60 bytes captured (480 bits) on interface any, id 0" size="60" pos="0">
    <field name="filtered" value="frame" />
  </proto>
  <proto name="sll" showname="Linux cooked capture" size="16" pos="0">
    <field name="filtered" value="sll" />
  </proto>
  <proto name="ip" showname="Internet Protocol Version 4, Src: 127.0.0.7, Dst: 127.0.0.4" size="20" pos="16">
    <field name="filtered" value="ip" />
  </proto>
  <proto name="udp" showname="User Datagram Protocol, Src Port: 8805, Dst Port: 8805" size="8" pos="36">
    <field name="filtered" value="udp" />
  </proto>
  <proto name="pfcp" showname="Packet Forwarding Control Protocol" size="16" pos="44">
    <field name="pfcp.flags" showname="Flags: 0x20" size="1" pos="44" show="0x00000020" value="20">
      <field name="pfcp.version" showname="001. .... = Version: 1" size="1" pos="44" show="1" value="1" unmaskedvalue="20"/>
      <field name="pfcp.spare_b4" showname="...0 .... = Spare: 0" size="1" pos="44" show="0" value="0" unmaskedvalue="20"/>
      <field name="pfcp.spare_b3" showname=".... 0... = Spare: 0" size="1" pos="44" show="0" value="0" unmaskedvalue="20"/>
      <field name="pfcp.spare_b2" showname=".... .0.. = Spare: 0" size="1" pos="44" show="0" value="0" unmaskedvalue="20"/>
      <field name="pfcp.mp_flag" showname=".... ..0. = Message Priority (MP): False" size="1" pos="44" show="0" value="0" unmaskedvalue="20"/>
      <field name="pfcp.s" showname=".... ...0 = SEID (S): False" size="1" pos="44" show="0" value="0" unmaskedvalue="20"/>
    </field>
    <field name="pfcp.msg_type" showname="Message Type: PFCP Heartbeat Request (1)" size="1" pos="45" show="1" value="01"/>
    <field name="pfcp.length" showname="Length: 12" size="2" pos="46" show="12" value="000c"/>
    <field name="pfcp.seqno" showname="Sequence Number: 2455" size="3" pos="48" show="2455" value="000997"/>
    <field name="pfcp.spare_oct" showname="Spare: 0" size="1" pos="51" show="0" value="00"/>
    <field name="" show="Recovery Time Stamp : Dec  8, 2022 14:26:24.000000000 UTC" size="8" pos="52" value="00600004e73c7290">
      <field name="pfcp.ie_type" showname="IE Type: Recovery Time Stamp (96)" size="2" pos="52" show="96" value="0060"/>
      <field name="pfcp.ie_len" showname="IE Length: 4" size="2" pos="54" show="4" value="0004"/>
      <field name="pfcp.recovery_time_stamp" showname="Recovery Time Stamp: Dec  8, 2022 14:26:24.000000000 UTC" size="4" pos="56" show="Dec  8, 2022 15:26:24.000000000 CET" value="e73c7290"/>
    </field>
    <field name="pfcp.response_in" showname="Response In: 21013" size="0" pos="44" show="21013"/>
  </proto>
</packet>


<packet>
  <proto name="geninfo" pos="0" showname="General information" size="60">
    <field name="num" pos="0" show="21013" showname="Number" value="5215" size="60"/>
    <field name="len" pos="0" show="60" showname="Frame Length" value="3c" size="60"/>
    <field name="caplen" pos="0" show="60" showname="Captured Length" value="3c" size="60"/>
    <field name="timestamp" pos="0" show="Dec  9, 2022 18:42:59.541632967 CET" showname="Captured Time" value="1670607779.541632967" size="60"/>
  </proto>
  <proto name="frame" showname="Frame 21013: 60 bytes on wire (480 bits), 60 bytes captured (480 bits) on interface any, id 0" size="60" pos="0">
    <field name="filtered" value="frame" />
  </proto>
  <proto name="sll" showname="Linux cooked capture" size="16" pos="0">
    <field name="filtered" value="sll" />
  </proto>
  <proto name="ip" showname="Internet Protocol Version 4, Src: 127.0.0.4, Dst: 127.0.0.7" size="20" pos="16">
    <field name="filtered" value="ip" />
  </proto>
  <proto name="udp" showname="User Datagram Protocol, Src Port: 8805, Dst Port: 8805" size="8" pos="36">
    <field name="filtered" value="udp" />
  </proto>
  <proto name="pfcp" showname="Packet Forwarding Control Protocol" size="16" pos="44">
    <field name="pfcp.flags" showname="Flags: 0x20" size="1" pos="44" show="0x00000020" value="20">
      <field name="pfcp.version" showname="001. .... = Version: 1" size="1" pos="44" show="1" value="1" unmaskedvalue="20"/>
      <field name="pfcp.spare_b4" showname="...0 .... = Spare: 0" size="1" pos="44" show="0" value="0" unmaskedvalue="20"/>
      <field name="pfcp.spare_b3" showname=".... 0... = Spare: 0" size="1" pos="44" show="0" value="0" unmaskedvalue="20"/>
      <field name="pfcp.spare_b2" showname=".... .0.. = Spare: 0" size="1" pos="44" show="0" value="0" unmaskedvalue="20"/>
      <field name="pfcp.mp_flag" showname=".... ..0. = Message Priority (MP): False" size="1" pos="44" show="0" value="0" unmaskedvalue="20"/>
      <field name="pfcp.s" showname=".... ...0 = SEID (S): False" size="1" pos="44" show="0" value="0" unmaskedvalue="20"/>
    </field>
    <field name="pfcp.msg_type" showname="Message Type: PFCP Heartbeat Response (2)" size="1" pos="45" show="2" value="02"/>
    <field name="pfcp.length" showname="Length: 12" size="2" pos="46" show="12" value="000c"/>
    <field name="pfcp.seqno" showname="Sequence Number: 2455" size="3" pos="48" show="2455" value="000997"/>
    <field name="pfcp.spare_oct" showname="Spare: 0" size="1" pos="51" show="0" value="00"/>
    <field name="" show="Recovery Time Stamp : Dec  8, 2022 14:26:24.000000000 UTC" size="8" pos="52" value="00600004e73c7290">
      <field name="pfcp.ie_type" showname="IE Type: Recovery Time Stamp (96)" size="2" pos="52" show="96" value="0060"/>
      <field name="pfcp.ie_len" showname="IE Length: 4" size="2" pos="54" show="4" value="0004"/>
      <field name="pfcp.recovery_time_stamp" showname="Recovery Time Stamp: Dec  8, 2022 14:26:24.000000000 UTC" size="4" pos="56" show="Dec  8, 2022 15:26:24.000000000 CET" value="e73c7290"/>
    </field>
    <field name="pfcp.response_to" showname="Response To: 21012" size="0" pos="44" show="21012"/>
    <field name="pfcp.response_time" showname="Response Time: 0.000208130 seconds" size="0" pos="44" show="0.000208130"/>
  </proto>
</packet>


<packet>
  <proto name="geninfo" pos="0" showname="General information" size="60">
    <field name="num" pos="0" show="21014" showname="Number" value="5216" size="60"/>
    <field name="len" pos="0" show="60" showname="Frame Length" value="3c" size="60"/>
    <field name="caplen" pos="0" show="60" showname="Captured Length" value="3c" size="60"/>
    <field name="timestamp" pos="0" show="Dec  9, 2022 18:42:59.541696645 CET" showname="Captured Time" value="1670607779.541696645" size="60"/>
  </proto>
  <proto name="frame" showname="Frame 21014: 60 bytes on wire (480 bits), 60 bytes captured (480 bits) on interface any, id 0" size="60" pos="0">
    <field name="filtered" value="frame" />
  </proto>
  <proto name="sll" showname="Linux cooked capture" size="16" pos="0">
    <field name="filtered" value="sll" />
  </proto>
  <proto name="ip" showname="Internet Protocol Version 4, Src: 127.0.0.4, Dst: 127.0.0.7" size="20" pos="16">
    <field name="filtered" value="ip" />
  </proto>
  <proto name="udp" showname="User Datagram Protocol, Src Port: 8805, Dst Port: 8805" size="8" pos="36">
    <field name="filtered" value="udp" />
  </proto>
  <proto name="pfcp" showname="Packet Forwarding Control Protocol" size="16" pos="44">
    <field name="pfcp.flags" showname="Flags: 0x20" size="1" pos="44" show="0x00000020" value="20">
      <field name="pfcp.version" showname="001. .... = Version: 1" size="1" pos="44" show="1" value="1" unmaskedvalue="20"/>
      <field name="pfcp.spare_b4" showname="...0 .... = Spare: 0" size="1" pos="44" show="0" value="0" unmaskedvalue="20"/>
      <field name="pfcp.spare_b3" showname=".... 0... = Spare: 0" size="1" pos="44" show="0" value="0" unmaskedvalue="20"/>
      <field name="pfcp.spare_b2" showname=".... .0.. = Spare: 0" size="1" pos="44" show="0" value="0" unmaskedvalue="20"/>
      <field name="pfcp.mp_flag" showname=".... ..0. = Message Priority (MP): False" size="1" pos="44" show="0" value="0" unmaskedvalue="20"/>
      <field name="pfcp.s" showname=".... ...0 = SEID (S): False" size="1" pos="44" show="0" value="0" unmaskedvalue="20"/>
    </field>
    <field name="pfcp.msg_type" showname="Message Type: PFCP Heartbeat Request (1)" size="1" pos="45" show="1" value="01"/>
    <field name="pfcp.length" showname="Length: 12" size="2" pos="46" show="12" value="000c"/>
    <field name="pfcp.seqno" showname="Sequence Number: 2722" size="3" pos="48" show="2722" value="000aa2"/>
    <field name="pfcp.spare_oct" showname="Spare: 0" size="1" pos="51" show="0" value="00"/>
    <field name="" show="Recovery Time Stamp : Dec  8, 2022 14:26:24.000000000 UTC" size="8" pos="52" value="00600004e73c7290">
      <field name="pfcp.ie_type" showname="IE Type: Recovery Time Stamp (96)" size="2" pos="52" show="96" value="0060"/>
      <field name="pfcp.ie_len" showname="IE Length: 4" size="2" pos="54" show="4" value="0004"/>
      <field name="pfcp.recovery_time_stamp" showname="Recovery Time Stamp: Dec  8, 2022 14:26:24.000000000 UTC" size="4" pos="56" show="Dec  8, 2022 15:26:24.000000000 CET" value="e73c7290"/>
    </field>
    <field name="pfcp.response_in" showname="Response In: 21015" size="0" pos="44" show="21015"/>
  </proto>
</packet>


<packet>
  <proto name="geninfo" pos="0" showname="General information" size="60">
    <field name="num" pos="0" show="21015" showname="Number" value="5217" size="60"/>
    <field name="len" pos="0" show="60" showname="Frame Length" value="3c" size="60"/>
    <field name="caplen" pos="0" show="60" showname="Captured Length" value="3c" size="60"/>
    <field name="timestamp" pos="0" show="Dec  9, 2022 18:42:59.541845733 CET" showname="Captured Time" value="1670607779.541845733" size="60"/>
  </proto>
  <proto name="frame" showname="Frame 21015: 60 bytes on wire (480 bits), 60 bytes captured (480 bits) on interface any, id 0" size="60" pos="0">
    <field name="filtered" value="frame" />
  </proto>
  <proto name="sll" showname="Linux cooked capture" size="16" pos="0">
    <field name="filtered" value="sll" />
  </proto>
  <proto name="ip" showname="Internet Protocol Version 4, Src: 127.0.0.7, Dst: 127.0.0.4" size="20" pos="16">
    <field name="filtered" value="ip" />
  </proto>
  <proto name="udp" showname="User Datagram Protocol, Src Port: 8805, Dst Port: 8805" size="8" pos="36">
    <field name="filtered" value="udp" />
  </proto>
  <proto name="pfcp" showname="Packet Forwarding Control Protocol" size="16" pos="44">
    <field name="pfcp.flags" showname="Flags: 0x20" size="1" pos="44" show="0x00000020" value="20">
      <field name="pfcp.version" showname="001. .... = Version: 1" size="1" pos="44" show="1" value="1" unmaskedvalue="20"/>
      <field name="pfcp.spare_b4" showname="...0 .... = Spare: 0" size="1" pos="44" show="0" value="0" unmaskedvalue="20"/>
      <field name="pfcp.spare_b3" showname=".... 0... = Spare: 0" size="1" pos="44" show="0" value="0" unmaskedvalue="20"/>
      <field name="pfcp.spare_b2" showname=".... .0.. = Spare: 0" size="1" pos="44" show="0" value="0" unmaskedvalue="20"/>
      <field name="pfcp.mp_flag" showname=".... ..0. = Message Priority (MP): False" size="1" pos="44" show="0" value="0" unmaskedvalue="20"/>
      <field name="pfcp.s" showname=".... ...0 = SEID (S): False" size="1" pos="44" show="0" value="0" unmaskedvalue="20"/>
    </field>
    <field name="pfcp.msg_type" showname="Message Type: PFCP Heartbeat Response (2)" size="1" pos="45" show="2" value="02"/>
    <field name="pfcp.length" showname="Length: 12" size="2" pos="46" show="12" value="000c"/>
    <field name="pfcp.seqno" showname="Sequence Number: 2722" size="3" pos="48" show="2722" value="000aa2"/>
    <field name="pfcp.spare_oct" showname="Spare: 0" size="1" pos="51" show="0" value="00"/>
    <field name="" show="Recovery Time Stamp : Dec  8, 2022 14:26:24.000000000 UTC" size="8" pos="52" value="00600004e73c7290">
      <field name="pfcp.ie_type" showname="IE Type: Recovery Time Stamp (96)" size="2" pos="52" show="96" value="0060"/>
      <field name="pfcp.ie_len" showname="IE Length: 4" size="2" pos="54" show="4" value="0004"/>
      <field name="pfcp.recovery_time_stamp" showname="Recovery Time Stamp: Dec  8, 2022 14:26:24.000000000 UTC" size="4" pos="56" show="Dec  8, 2022 15:26:24.000000000 CET" value="e73c7290"/>
    </field>
    <field name="pfcp.response_to" showname="Response To: 21014" size="0" pos="44" show="21014"/>
    <field name="pfcp.response_time" showname="Response Time: 0.000149088 seconds" size="0" pos="44" show="0.000149088"/>
  </proto>
</packet>


<packet>
  <proto name="geninfo" pos="0" showname="General information" size="60">
    <field name="num" pos="0" show="21016" showname="Number" value="5218" size="60"/>
    <field name="len" pos="0" show="60" showname="Frame Length" value="3c" size="60"/>
    <field name="caplen" pos="0" show="60" showname="Captured Length" value="3c" size="60"/>
    <field name="timestamp" pos="0" show="Dec  9, 2022 18:42:59.569341163 CET" showname="Captured Time" value="1670607779.569341163" size="60"/>
  </proto>
  <proto name="frame" showname="Frame 21016: 60 bytes on wire (480 bits), 60 bytes captured (480 bits) on interface any, id 0" size="60" pos="0">
    <field name="filtered" value="frame" />
  </proto>
  <proto name="sll" showname="Linux cooked capture" size="16" pos="0">
    <field name="filtered" value="sll" />
  </proto>
  <proto name="ip" showname="Internet Protocol Version 4, Src: 127.0.0.6, Dst: 127.0.0.3" size="20" pos="16">
    <field name="filtered" value="ip" />
  </proto>
  <proto name="udp" showname="User Datagram Protocol, Src Port: 8805, Dst Port: 8805" size="8" pos="36">
    <field name="filtered" value="udp" />
  </proto>
  <proto name="pfcp" showname="Packet Forwarding Control Protocol" size="16" pos="44">
    <field name="pfcp.flags" showname="Flags: 0x20" size="1" pos="44" show="0x00000020" value="20">
      <field name="pfcp.version" showname="001. .... = Version: 1" size="1" pos="44" show="1" value="1" unmaskedvalue="20"/>
      <field name="pfcp.spare_b4" showname="...0 .... = Spare: 0" size="1" pos="44" show="0" value="0" unmaskedvalue="20"/>
      <field name="pfcp.spare_b3" showname=".... 0... = Spare: 0" size="1" pos="44" show="0" value="0" unmaskedvalue="20"/>
      <field name="pfcp.spare_b2" showname=".... .0.. = Spare: 0" size="1" pos="44" show="0" value="0" unmaskedvalue="20"/>
      <field name="pfcp.mp_flag" showname=".... ..0. = Message Priority (MP): False" size="1" pos="44" show="0" value="0" unmaskedvalue="20"/>
      <field name="pfcp.s" showname=".... ...0 = SEID (S): False" size="1" pos="44" show="0" value="0" unmaskedvalue="20"/>
    </field>
    <field name="pfcp.msg_type" showname="Message Type: PFCP Heartbeat Request (1)" size="1" pos="45" show="1" value="01"/>
    <field name="pfcp.length" showname="Length: 12" size="2" pos="46" show="12" value="000c"/>
    <field name="pfcp.seqno" showname="Sequence Number: 2459" size="3" pos="48" show="2459" value="00099b"/>
    <field name="pfcp.spare_oct" showname="Spare: 0" size="1" pos="51" show="0" value="00"/>
    <field name="" show="Recovery Time Stamp : Dec  8, 2022 14:26:24.000000000 UTC" size="8" pos="52" value="00600004e73c7290">
      <field name="pfcp.ie_type" showname="IE Type: Recovery Time Stamp (96)" size="2" pos="52" show="96" value="0060"/>
      <field name="pfcp.ie_len" showname="IE Length: 4" size="2" pos="54" show="4" value="0004"/>
      <field name="pfcp.recovery_time_stamp" showname="Recovery Time Stamp: Dec  8, 2022 14:26:24.000000000 UTC" size="4" pos="56" show="Dec  8, 2022 15:26:24.000000000 CET" value="e73c7290"/>
    </field>
  </proto>
</packet>


<packet>
  <proto name="geninfo" pos="0" showname="General information" size="60">
    <field name="num" pos="0" show="21017" showname="Number" value="5219" size="60"/>
    <field name="len" pos="0" show="60" showname="Frame Length" value="3c" size="60"/>
    <field name="caplen" pos="0" show="60" showname="Captured Length" value="3c" size="60"/>
    <field name="timestamp" pos="0" show="Dec  9, 2022 18:42:59.569446255 CET" showname="Captured Time" value="1670607779.569446255" size="60"/>
  </proto>
  <proto name="frame" showname="Frame 21017: 60 bytes on wire (480 bits), 60 bytes captured (480 bits) on interface any, id 0" size="60" pos="0">
    <field name="filtered" value="frame" />
  </proto>
  <proto name="sll" showname="Linux cooked capture" size="16" pos="0">
    <field name="filtered" value="sll" />
  </proto>
  <proto name="ip" showname="Internet Protocol Version 4, Src: 127.0.0.3, Dst: 127.0.0.6" size="20" pos="16">
    <field name="filtered" value="ip" />
  </proto>
  <proto name="udp" showname="User Datagram Protocol, Src Port: 8805, Dst Port: 8805" size="8" pos="36">
    <field name="filtered" value="udp" />
  </proto>
  <proto name="pfcp" showname="Packet Forwarding Control Protocol" size="16" pos="44">
    <field name="pfcp.flags" showname="Flags: 0x20" size="1" pos="44" show="0x00000020" value="20">
      <field name="pfcp.version" showname="001. .... = Version: 1" size="1" pos="44" show="1" value="1" unmaskedvalue="20"/>
      <field name="pfcp.spare_b4" showname="...0 .... = Spare: 0" size="1" pos="44" show="0" value="0" unmaskedvalue="20"/>
      <field name="pfcp.spare_b3" showname=".... 0... = Spare: 0" size="1" pos="44" show="0" value="0" unmaskedvalue="20"/>
      <field name="pfcp.spare_b2" showname=".... .0.. = Spare: 0" size="1" pos="44" show="0" value="0" unmaskedvalue="20"/>
      <field name="pfcp.mp_flag" showname=".... ..0. = Message Priority (MP): False" size="1" pos="44" show="0" value="0" unmaskedvalue="20"/>
      <field name="pfcp.s" showname=".... ...0 = SEID (S): False" size="1" pos="44" show="0" value="0" unmaskedvalue="20"/>
    </field>
    <field name="pfcp.msg_type" showname="Message Type: PFCP Heartbeat Request (1)" size="1" pos="45" show="1" value="01"/>
    <field name="pfcp.length" showname="Length: 12" size="2" pos="46" show="12" value="000c"/>
    <field name="pfcp.seqno" showname="Sequence Number: 2459" size="3" pos="48" show="2459" value="00099b"/>
    <field name="pfcp.spare_oct" showname="Spare: 0" size="1" pos="51" show="0" value="00"/>
    <field name="" show="Recovery Time Stamp : Dec  8, 2022 14:26:24.000000000 UTC" size="8" pos="52" value="00600004e73c7290">
      <field name="pfcp.ie_type" showname="IE Type: Recovery Time Stamp (96)" size="2" pos="52" show="96" value="0060"/>
      <field name="pfcp.ie_len" showname="IE Length: 4" size="2" pos="54" show="4" value="0004"/>
      <field name="pfcp.recovery_time_stamp" showname="Recovery Time Stamp: Dec  8, 2022 14:26:24.000000000 UTC" size="4" pos="56" show="Dec  8, 2022 15:26:24.000000000 CET" value="e73c7290"/>
    </field>
    <field name="pfcp.response_in" showname="Response In: 21018" size="0" pos="44" show="21018"/>
  </proto>
</packet>


<packet>
  <proto name="geninfo" pos="0" showname="General information" size="60">
    <field name="num" pos="0" show="21018" showname="Number" value="521a" size="60"/>
    <field name="len" pos="0" show="60" showname="Frame Length" value="3c" size="60"/>
    <field name="caplen" pos="0" show="60" showname="Captured Length" value="3c" size="60"/>
    <field name="timestamp" pos="0" show="Dec  9, 2022 18:42:59.569586085 CET" showname="Captured Time" value="1670607779.569586085" size="60"/>
  </proto>
  <proto name="frame" showname="Frame 21018: 60 bytes on wire (480 bits), 60 bytes captured (480 bits) on interface any, id 0" size="60" pos="0">
    <field name="filtered" value="frame" />
  </proto>
  <proto name="sll" showname="Linux cooked capture" size="16" pos="0">
    <field name="filtered" value="sll" />
  </proto>
  <proto name="ip" showname="Internet Protocol Version 4, Src: 127.0.0.3, Dst: 127.0.0.6" size="20" pos="16">
    <field name="filtered" value="ip" />
  </proto>
  <proto name="udp" showname="User Datagram Protocol, Src Port: 8805, Dst Port: 8805" size="8" pos="36">
    <field name="filtered" value="udp" />
  </proto>
  <proto name="pfcp" showname="Packet Forwarding Control Protocol" size="16" pos="44">
    <field name="pfcp.flags" showname="Flags: 0x20" size="1" pos="44" show="0x00000020" value="20">
      <field name="pfcp.version" showname="001. .... = Version: 1" size="1" pos="44" show="1" value="1" unmaskedvalue="20"/>
      <field name="pfcp.spare_b4" showname="...0 .... = Spare: 0" size="1" pos="44" show="0" value="0" unmaskedvalue="20"/>
      <field name="pfcp.spare_b3" showname=".... 0... = Spare: 0" size="1" pos="44" show="0" value="0" unmaskedvalue="20"/>
      <field name="pfcp.spare_b2" showname=".... .0.. = Spare: 0" size="1" pos="44" show="0" value="0" unmaskedvalue="20"/>
      <field name="pfcp.mp_flag" showname=".... ..0. = Message Priority (MP): False" size="1" pos="44" show="0" value="0" unmaskedvalue="20"/>
      <field name="pfcp.s" showname=".... ...0 = SEID (S): False" size="1" pos="44" show="0" value="0" unmaskedvalue="20"/>
    </field>
    <field name="pfcp.msg_type" showname="Message Type: PFCP Heartbeat Response (2)" size="1" pos="45" show="2" value="02"/>
    <field name="pfcp.length" showname="Length: 12" size="2" pos="46" show="12" value="000c"/>
    <field name="pfcp.seqno" showname="Sequence Number: 2459" size="3" pos="48" show="2459" value="00099b"/>
    <field name="pfcp.spare_oct" showname="Spare: 0" size="1" pos="51" show="0" value="00"/>
    <field name="" show="Recovery Time Stamp : Dec  8, 2022 14:26:24.000000000 UTC" size="8" pos="52" value="00600004e73c7290">
      <field name="pfcp.ie_type" showname="IE Type: Recovery Time Stamp (96)" size="2" pos="52" show="96" value="0060"/>
      <field name="pfcp.ie_len" showname="IE Length: 4" size="2" pos="54" show="4" value="0004"/>
      <field name="pfcp.recovery_time_stamp" showname="Recovery Time Stamp: Dec  8, 2022 14:26:24.000000000 UTC" size="4" pos="56" show="Dec  8, 2022 15:26:24.000000000 CET" value="e73c7290"/>
    </field>
    <field name="pfcp.response_to" showname="Response To: 21017" size="0" pos="44" show="21017"/>
    <field name="pfcp.response_time" showname="Response Time: 0.000139830 seconds" size="0" pos="44" show="0.000139830"/>
  </proto>
</packet>


<packet>
  <proto name="geninfo" pos="0" showname="General information" size="60">
    <field name="num" pos="0" show="21019" showname="Number" value="521b" size="60"/>
    <field name="len" pos="0" show="60" showname="Frame Length" value="3c" size="60"/>
    <field name="caplen" pos="0" show="60" showname="Captured Length" value="3c" size="60"/>
    <field name="timestamp" pos="0" show="Dec  9, 2022 18:42:59.569674458 CET" showname="Captured Time" value="1670607779.569674458" size="60"/>
  </proto>
  <proto name="frame" showname="Frame 21019: 60 bytes on wire (480 bits), 60 bytes captured (480 bits) on interface any, id 0" size="60" pos="0">
    <field name="filtered" value="frame" />
  </proto>
  <proto name="sll" showname="Linux cooked capture" size="16" pos="0">
    <field name="filtered" value="sll" />
  </proto>
  <proto name="ip" showname="Internet Protocol Version 4, Src: 127.0.0.6, Dst: 127.0.0.3" size="20" pos="16">
    <field name="filtered" value="ip" />
  </proto>
  <proto name="udp" showname="User Datagram Protocol, Src Port: 8805, Dst Port: 8805" size="8" pos="36">
    <field name="filtered" value="udp" />
  </proto>
  <proto name="pfcp" showname="Packet Forwarding Control Protocol" size="16" pos="44">
    <field name="pfcp.flags" showname="Flags: 0x20" size="1" pos="44" show="0x00000020" value="20">
      <field name="pfcp.version" showname="001. .... = Version: 1" size="1" pos="44" show="1" value="1" unmaskedvalue="20"/>
      <field name="pfcp.spare_b4" showname="...0 .... = Spare: 0" size="1" pos="44" show="0" value="0" unmaskedvalue="20"/>
      <field name="pfcp.spare_b3" showname=".... 0... = Spare: 0" size="1" pos="44" show="0" value="0" unmaskedvalue="20"/>
      <field name="pfcp.spare_b2" showname=".... .0.. = Spare: 0" size="1" pos="44" show="0" value="0" unmaskedvalue="20"/>
      <field name="pfcp.mp_flag" showname=".... ..0. = Message Priority (MP): False" size="1" pos="44" show="0" value="0" unmaskedvalue="20"/>
      <field name="pfcp.s" showname=".... ...0 = SEID (S): False" size="1" pos="44" show="0" value="0" unmaskedvalue="20"/>
    </field>
    <field name="pfcp.msg_type" showname="Message Type: PFCP Heartbeat Response (2)" size="1" pos="45" show="2" value="02"/>
    <field name="pfcp.length" showname="Length: 12" size="2" pos="46" show="12" value="000c"/>
    <field name="pfcp.seqno" showname="Sequence Number: 2459" size="3" pos="48" show="2459" value="00099b"/>
    <field name="pfcp.spare_oct" showname="Spare: 0" size="1" pos="51" show="0" value="00"/>
    <field name="" show="Recovery Time Stamp : Dec  8, 2022 14:26:24.000000000 UTC" size="8" pos="52" value="00600004e73c7290">
      <field name="pfcp.ie_type" showname="IE Type: Recovery Time Stamp (96)" size="2" pos="52" show="96" value="0060"/>
      <field name="pfcp.ie_len" showname="IE Length: 4" size="2" pos="54" show="4" value="0004"/>
      <field name="pfcp.recovery_time_stamp" showname="Recovery Time Stamp: Dec  8, 2022 14:26:24.000000000 UTC" size="4" pos="56" show="Dec  8, 2022 15:26:24.000000000 CET" value="e73c7290"/>
    </field>
    <field name="pfcp.response_to" showname="Response To: 21016" size="0" pos="44" show="21016"/>
    <field name="pfcp.response_time" showname="Response Time: 0.000333295 seconds" size="0" pos="44" show="0.000333295"/>
  </proto>
</packet>


<packet>
  <proto name="geninfo" pos="0" showname="General information" size="140">
    <field name="num" pos="0" show="22782" showname="Number" value="58fe" size="140"/>
    <field name="len" pos="0" show="140" showname="Frame Length" value="8c" size="140"/>
    <field name="caplen" pos="0" show="140" showname="Captured Length" value="8c" size="140"/>
    <field name="timestamp" pos="0" show="Dec  9, 2022 18:43:04.412166817 CET" showname="Captured Time" value="1670607784.412166817" size="140"/>
  </proto>
  <proto name="frame" showname="Frame 22782: 140 bytes on wire (1120 bits), 140 bytes captured (1120 bits) on interface any, id 0" size="140" pos="0">
    <field name="filtered" value="frame" />
  </proto>
  <proto name="sll" showname="Linux cooked capture" size="16" pos="0">
    <field name="filtered" value="sll" />
  </proto>
  <proto name="ip" showname="Internet Protocol Version 4, Src: 127.0.0.8, Dst: 127.0.0.2" size="20" pos="16">
    <field name="filtered" value="ip" />
  </proto>
  <proto name="sctp" showname="Stream Control Transmission Protocol, Src Port: 3868 (3868), Dst Port: 54603 (54603)" size="28" pos="36">
    <field name="filtered" value="sctp" />
  </proto>
  <proto name="diameter" showname="Diameter Protocol" size="76" pos="64">
    <field name="diameter.version" showname="Version: 0x01" size="1" pos="64" show="0x00000001" value="01"/>
    <field name="diameter.length" showname="Length: 76" size="3" pos="65" show="76" value="00004c"/>
    <field name="diameter.flags" showname="Flags: 0x80, Request" size="1" pos="68" show="0x00000080" value="80">
      <field name="diameter.flags.request" showname="1... .... = Request: Set" size="1" pos="68" show="1" value="1" unmaskedvalue="80"/>
      <field name="diameter.flags.proxyable" showname=".0.. .... = Proxyable: Not set" size="1" pos="68" show="0" value="0" unmaskedvalue="80"/>
      <field name="diameter.flags.error" showname="..0. .... = Error: Not set" size="1" pos="68" show="0" value="0" unmaskedvalue="80"/>
      <field name="diameter.flags.T" showname="...0 .... = T(Potentially re-transmitted message): Not set" size="1" pos="68" show="0" value="0" unmaskedvalue="80"/>
      <field name="diameter.flags.reserved4" showname=".... 0... = Reserved: Not set" size="1" pos="68" show="0" value="0" unmaskedvalue="80"/>
      <field name="diameter.flags.reserved5" showname=".... .0.. = Reserved: Not set" size="1" pos="68" show="0" value="0" unmaskedvalue="80"/>
      <field name="diameter.flags.reserved6" showname=".... ..0. = Reserved: Not set" size="1" pos="68" show="0" value="0" unmaskedvalue="80"/>
      <field name="diameter.flags.reserved7" showname=".... ...0 = Reserved: Not set" size="1" pos="68" show="0" value="0" unmaskedvalue="80"/>
    </field>
    <field name="diameter.cmd.code" showname="Command Code: 280 Device-Watchdog" size="3" pos="69" show="280" value="000118"/>
    <field name="diameter.applicationId" showname="ApplicationId: Diameter Common Messages (0)" size="4" pos="72" show="0" value="00000000"/>
    <field name="diameter.hopbyhopid" showname="Hop-by-Hop Identifier: 0x7f7fcd59" size="4" pos="76" show="0x7f7fcd59" value="7f7fcd59"/>
    <field name="diameter.endtoendid" showname="End-to-End Identifier: 0x41707f34" size="4" pos="80" show="0x41707f34" value="41707f34"/>
    <field name="diameter.answer_in" showname="Answer In: 22783" size="0" pos="64" show="22783"/>
    <field name="diameter.avp" showname="AVP: Origin-Host(264) l=23 f=-M- val=hss.localdomain" size="24" pos="84" show="00:00:01:08:40:00:00:17:68:73:73:2e:6c:6f:63:61:6c:64:6f:6d:61:69:6e:00" value="00000108400000176873732e6c6f63616c646f6d61696e00">
      <field name="diameter.avp.code" showname="AVP Code: 264 Origin-Host" size="4" pos="84" show="264" value="00000108"/>
      <field name="diameter.avp.flags" showname="AVP Flags: 0x40, Mandatory: Set" size="1" pos="88" show="0x00000040" value="40">
        <field name="diameter.flags.vendorspecific" showname="0... .... = Vendor-Specific: Not set" size="1" pos="88" show="0" value="0" unmaskedvalue="40"/>
        <field name="diameter.flags.mandatory" showname=".1.. .... = Mandatory: Set" size="1" pos="88" show="1" value="1" unmaskedvalue="40"/>
        <field name="diameter.avp.flags.protected" showname="..0. .... = Protected: Not set" size="1" pos="88" show="0" value="0" unmaskedvalue="40"/>
        <field name="diameter.avp.flags.reserved3" showname="...0 .... = Reserved: Not set" size="1" pos="88" show="0" value="0" unmaskedvalue="40"/>
        <field name="diameter.avp.flags.reserved4" showname=".... 0... = Reserved: Not set" size="1" pos="88" show="0" value="0" unmaskedvalue="40"/>
        <field name="diameter.avp.flags.reserved5" showname=".... .0.. = Reserved: Not set" size="1" pos="88" show="0" value="0" unmaskedvalue="40"/>
        <field name="diameter.avp.flags.reserved6" showname=".... ..0. = Reserved: Not set" size="1" pos="88" show="0" value="0" unmaskedvalue="40"/>
        <field name="diameter.avp.flags.reserved7" showname=".... ...0 = Reserved: Not set" size="1" pos="88" show="0" value="0" unmaskedvalue="40"/>
      </field>
      <field name="diameter.avp.len" showname="AVP Length: 23" size="3" pos="89" show="23" value="000017"/>
      <field name="diameter.Origin-Host" showname="Origin-Host: hss.localdomain" size="15" pos="92" show="hss.localdomain" value="6873732e6c6f63616c646f6d61696e"/>
      <field name="diameter.avp.pad" showname="Padding: 00" size="1" pos="107" show="00" value="00"/>
    </field>
    <field name="diameter.avp" showname="AVP: Origin-Realm(296) l=19 f=-M- val=localdomain" size="20" pos="108" show="00:00:01:28:40:00:00:13:6c:6f:63:61:6c:64:6f:6d:61:69:6e:00" value="00000128400000136c6f63616c646f6d61696e00">
      <field name="diameter.avp.code" showname="AVP Code: 296 Origin-Realm" size="4" pos="108" show="296" value="00000128"/>
      <field name="diameter.avp.flags" showname="AVP Flags: 0x40, Mandatory: Set" size="1" pos="112" show="0x00000040" value="40">
        <field name="diameter.flags.vendorspecific" showname="0... .... = Vendor-Specific: Not set" size="1" pos="112" show="0" value="0" unmaskedvalue="40"/>
        <field name="diameter.flags.mandatory" showname=".1.. .... = Mandatory: Set" size="1" pos="112" show="1" value="1" unmaskedvalue="40"/>
        <field name="diameter.avp.flags.protected" showname="..0. .... = Protected: Not set" size="1" pos="112" show="0" value="0" unmaskedvalue="40"/>
        <field name="diameter.avp.flags.reserved3" showname="...0 .... = Reserved: Not set" size="1" pos="112" show="0" value="0" unmaskedvalue="40"/>
        <field name="diameter.avp.flags.reserved4" showname=".... 0... = Reserved: Not set" size="1" pos="112" show="0" value="0" unmaskedvalue="40"/>
        <field name="diameter.avp.flags.reserved5" showname=".... .0.. = Reserved: Not set" size="1" pos="112" show="0" value="0" unmaskedvalue="40"/>
        <field name="diameter.avp.flags.reserved6" showname=".... ..0. = Reserved: Not set" size="1" pos="112" show="0" value="0" unmaskedvalue="40"/>
        <field name="diameter.avp.flags.reserved7" showname=".... ...0 = Reserved: Not set" size="1" pos="112" show="0" value="0" unmaskedvalue="40"/>
      </field>
      <field name="diameter.avp.len" showname="AVP Length: 19" size="3" pos="113" show="19" value="000013"/>
      <field name="diameter.Origin-Realm" showname="Origin-Realm: localdomain" size="11" pos="116" show="localdomain" value="6c6f63616c646f6d61696e"/>
      <field name="diameter.avp.pad" showname="Padding: 00" size="1" pos="127" show="00" value="00"/>
    </field>
    <field name="diameter.avp" showname="AVP: Origin-State-Id(278) l=12 f=-M- val=1670509591" size="12" pos="128" show="00:00:01:16:40:00:00:0c:63:91:f4:17" value="000001164000000c6391f417">
      <field name="diameter.avp.code" showname="AVP Code: 278 Origin-State-Id" size="4" pos="128" show="278" value="00000116"/>
      <field name="diameter.avp.flags" showname="AVP Flags: 0x40, Mandatory: Set" size="1" pos="132" show="0x00000040" value="40">
        <field name="diameter.flags.vendorspecific" showname="0... .... = Vendor-Specific: Not set" size="1" pos="132" show="0" value="0" unmaskedvalue="40"/>
        <field name="diameter.flags.mandatory" showname=".1.. .... = Mandatory: Set" size="1" pos="132" show="1" value="1" unmaskedvalue="40"/>
        <field name="diameter.avp.flags.protected" showname="..0. .... = Protected: Not set" size="1" pos="132" show="0" value="0" unmaskedvalue="40"/>
        <field name="diameter.avp.flags.reserved3" showname="...0 .... = Reserved: Not set" size="1" pos="132" show="0" value="0" unmaskedvalue="40"/>
        <field name="diameter.avp.flags.reserved4" showname=".... 0... = Reserved: Not set" size="1" pos="132" show="0" value="0" unmaskedvalue="40"/>
        <field name="diameter.avp.flags.reserved5" showname=".... .0.. = Reserved: Not set" size="1" pos="132" show="0" value="0" unmaskedvalue="40"/>
        <field name="diameter.avp.flags.reserved6" showname=".... ..0. = Reserved: Not set" size="1" pos="132" show="0" value="0" unmaskedvalue="40"/>
        <field name="diameter.avp.flags.reserved7" showname=".... ...0 = Reserved: Not set" size="1" pos="132" show="0" value="0" unmaskedvalue="40"/>
      </field>
      <field name="diameter.avp.len" showname="AVP Length: 12" size="3" pos="133" show="12" value="00000c"/>
      <field name="diameter.Origin-State-Id" showname="Origin-State-Id: 1670509591" size="4" pos="136" show="1670509591" value="6391f417"/>
    </field>
  </proto>
</packet>


<packet>
  <proto name="geninfo" pos="0" showname="General information" size="168">
    <field name="num" pos="0" show="22783" showname="Number" value="58ff" size="168"/>
    <field name="len" pos="0" show="168" showname="Frame Length" value="a8" size="168"/>
    <field name="caplen" pos="0" show="168" showname="Captured Length" value="a8" size="168"/>
    <field name="timestamp" pos="0" show="Dec  9, 2022 18:43:04.412642377 CET" showname="Captured Time" value="1670607784.412642377" size="168"/>
  </proto>
  <proto name="frame" showname="Frame 22783: 168 bytes on wire (1344 bits), 168 bytes captured (1344 bits) on interface any, id 0" size="168" pos="0">
    <field name="filtered" value="frame" />
  </proto>
  <proto name="sll" showname="Linux cooked capture" size="16" pos="0">
    <field name="filtered" value="sll" />
  </proto>
  <proto name="ip" showname="Internet Protocol Version 4, Src: 127.0.0.2, Dst: 127.0.0.8" size="20" pos="16">
    <field name="filtered" value="ip" />
  </proto>
  <proto name="sctp" showname="Stream Control Transmission Protocol, Src Port: 54603 (54603), Dst Port: 3868 (3868)" size="44" pos="36">
    <field name="filtered" value="sctp" />
  </proto>
  <proto name="diameter" showname="Diameter Protocol" size="88" pos="80">
    <field name="diameter.version" showname="Version: 0x01" size="1" pos="80" show="0x00000001" value="01"/>
    <field name="diameter.length" showname="Length: 88" size="3" pos="81" show="88" value="000058"/>
    <field name="diameter.flags" showname="Flags: 0x00" size="1" pos="84" show="0x00000000" value="00">
      <field name="diameter.flags.request" showname="0... .... = Request: Not set" size="1" pos="84" show="0" value="0" unmaskedvalue="00"/>
      <field name="diameter.flags.proxyable" showname=".0.. .... = Proxyable: Not set" size="1" pos="84" show="0" value="0" unmaskedvalue="00"/>
      <field name="diameter.flags.error" showname="..0. .... = Error: Not set" size="1" pos="84" show="0" value="0" unmaskedvalue="00"/>
      <field name="diameter.flags.T" showname="...0 .... = T(Potentially re-transmitted message): Not set" size="1" pos="84" show="0" value="0" unmaskedvalue="00"/>
      <field name="diameter.flags.reserved4" showname=".... 0... = Reserved: Not set" size="1" pos="84" show="0" value="0" unmaskedvalue="00"/>
      <field name="diameter.flags.reserved5" showname=".... .0.. = Reserved: Not set" size="1" pos="84" show="0" value="0" unmaskedvalue="00"/>
      <field name="diameter.flags.reserved6" showname=".... ..0. = Reserved: Not set" size="1" pos="84" show="0" value="0" unmaskedvalue="00"/>
      <field name="diameter.flags.reserved7" showname=".... ...0 = Reserved: Not set" size="1" pos="84" show="0" value="0" unmaskedvalue="00"/>
    </field>
    <field name="diameter.cmd.code" showname="Command Code: 280 Device-Watchdog" size="3" pos="85" show="280" value="000118"/>
    <field name="diameter.applicationId" showname="ApplicationId: Diameter Common Messages (0)" size="4" pos="88" show="0" value="00000000"/>
    <field name="diameter.hopbyhopid" showname="Hop-by-Hop Identifier: 0x7f7fcd59" size="4" pos="92" show="0x7f7fcd59" value="7f7fcd59"/>
    <field name="diameter.endtoendid" showname="End-to-End Identifier: 0x41707f34" size="4" pos="96" show="0x41707f34" value="41707f34"/>
    <field name="diameter.answer_to" showname="Request In: 22782" size="0" pos="80" show="22782"/>
    <field name="diameter.resp_time" showname="Response Time: 0.000475560 seconds" size="0" pos="80" show="0.000475560"/>
    <field name="diameter.avp" showname="AVP: Result-Code(268) l=12 f=-M- val=DIAMETER_SUCCESS (2001)" size="12" pos="100" show="00:00:01:0c:40:00:00:0c:00:00:07:d1" value="0000010c4000000c000007d1">
      <field name="diameter.avp.code" showname="AVP Code: 268 Result-Code" size="4" pos="100" show="268" value="0000010c"/>
      <field name="diameter.avp.flags" showname="AVP Flags: 0x40, Mandatory: Set" size="1" pos="104" show="0x00000040" value="40">
        <field name="diameter.flags.vendorspecific" showname="0... .... = Vendor-Specific: Not set" size="1" pos="104" show="0" value="0" unmaskedvalue="40"/>
        <field name="diameter.flags.mandatory" showname=".1.. .... = Mandatory: Set" size="1" pos="104" show="1" value="1" unmaskedvalue="40"/>
        <field name="diameter.avp.flags.protected" showname="..0. .... = Protected: Not set" size="1" pos="104" show="0" value="0" unmaskedvalue="40"/>
        <field name="diameter.avp.flags.reserved3" showname="...0 .... = Reserved: Not set" size="1" pos="104" show="0" value="0" unmaskedvalue="40"/>
        <field name="diameter.avp.flags.reserved4" showname=".... 0... = Reserved: Not set" size="1" pos="104" show="0" value="0" unmaskedvalue="40"/>
        <field name="diameter.avp.flags.reserved5" showname=".... .0.. = Reserved: Not set" size="1" pos="104" show="0" value="0" unmaskedvalue="40"/>
        <field name="diameter.avp.flags.reserved6" showname=".... ..0. = Reserved: Not set" size="1" pos="104" show="0" value="0" unmaskedvalue="40"/>
        <field name="diameter.avp.flags.reserved7" showname=".... ...0 = Reserved: Not set" size="1" pos="104" show="0" value="0" unmaskedvalue="40"/>
      </field>
      <field name="diameter.avp.len" showname="AVP Length: 12" size="3" pos="105" show="12" value="00000c"/>
      <field name="diameter.Result-Code" showname="Result-Code: DIAMETER_SUCCESS (2001)" size="4" pos="108" show="2001" value="000007d1"/>
    </field>
    <field name="diameter.avp" showname="AVP: Origin-Host(264) l=23 f=-M- val=mme.localdomain" size="24" pos="112" show="00:00:01:08:40:00:00:17:6d:6d:65:2e:6c:6f:63:61:6c:64:6f:6d:61:69:6e:00" value="00000108400000176d6d652e6c6f63616c646f6d61696e00">
      <field name="diameter.avp.code" showname="AVP Code: 264 Origin-Host" size="4" pos="112" show="264" value="00000108"/>
      <field name="diameter.avp.flags" showname="AVP Flags: 0x40, Mandatory: Set" size="1" pos="116" show="0x00000040" value="40">
        <field name="diameter.flags.vendorspecific" showname="0... .... = Vendor-Specific: Not set" size="1" pos="116" show="0" value="0" unmaskedvalue="40"/>
        <field name="diameter.flags.mandatory" showname=".1.. .... = Mandatory: Set" size="1" pos="116" show="1" value="1" unmaskedvalue="40"/>
        <field name="diameter.avp.flags.protected" showname="..0. .... = Protected: Not set" size="1" pos="116" show="0" value="0" unmaskedvalue="40"/>
        <field name="diameter.avp.flags.reserved3" showname="...0 .... = Reserved: Not set" size="1" pos="116" show="0" value="0" unmaskedvalue="40"/>
        <field name="diameter.avp.flags.reserved4" showname=".... 0... = Reserved: Not set" size="1" pos="116" show="0" value="0" unmaskedvalue="40"/>
        <field name="diameter.avp.flags.reserved5" showname=".... .0.. = Reserved: Not set" size="1" pos="116" show="0" value="0" unmaskedvalue="40"/>
        <field name="diameter.avp.flags.reserved6" showname=".... ..0. = Reserved: Not set" size="1" pos="116" show="0" value="0" unmaskedvalue="40"/>
        <field name="diameter.avp.flags.reserved7" showname=".... ...0 = Reserved: Not set" size="1" pos="116" show="0" value="0" unmaskedvalue="40"/>
      </field>
      <field name="diameter.avp.len" showname="AVP Length: 23" size="3" pos="117" show="23" value="000017"/>
      <field name="diameter.Origin-Host" showname="Origin-Host: mme.localdomain" size="15" pos="120" show="mme.localdomain" value="6d6d652e6c6f63616c646f6d61696e"/>
      <field name="diameter.avp.pad" showname="Padding: 00" size="1" pos="135" show="00" value="00"/>
    </field>
    <field name="diameter.avp" showname="AVP: Origin-Realm(296) l=19 f=-M- val=localdomain" size="20" pos="136" show="00:00:01:28:40:00:00:13:6c:6f:63:61:6c:64:6f:6d:61:69:6e:00" value="00000128400000136c6f63616c646f6d61696e00">
      <field name="diameter.avp.code" showname="AVP Code: 296 Origin-Realm" size="4" pos="136" show="296" value="00000128"/>
      <field name="diameter.avp.flags" showname="AVP Flags: 0x40, Mandatory: Set" size="1" pos="140" show="0x00000040" value="40">
        <field name="diameter.flags.vendorspecific" showname="0... .... = Vendor-Specific: Not set" size="1" pos="140" show="0" value="0" unmaskedvalue="40"/>
        <field name="diameter.flags.mandatory" showname=".1.. .... = Mandatory: Set" size="1" pos="140" show="1" value="1" unmaskedvalue="40"/>
        <field name="diameter.avp.flags.protected" showname="..0. .... = Protected: Not set" size="1" pos="140" show="0" value="0" unmaskedvalue="40"/>
        <field name="diameter.avp.flags.reserved3" showname="...0 .... = Reserved: Not set" size="1" pos="140" show="0" value="0" unmaskedvalue="40"/>
        <field name="diameter.avp.flags.reserved4" showname=".... 0... = Reserved: Not set" size="1" pos="140" show="0" value="0" unmaskedvalue="40"/>
        <field name="diameter.avp.flags.reserved5" showname=".... .0.. = Reserved: Not set" size="1" pos="140" show="0" value="0" unmaskedvalue="40"/>
        <field name="diameter.avp.flags.reserved6" showname=".... ..0. = Reserved: Not set" size="1" pos="140" show="0" value="0" unmaskedvalue="40"/>
        <field name="diameter.avp.flags.reserved7" showname=".... ...0 = Reserved: Not set" size="1" pos="140" show="0" value="0" unmaskedvalue="40"/>
      </field>
      <field name="diameter.avp.len" showname="AVP Length: 19" size="3" pos="141" show="19" value="000013"/>
      <field name="diameter.Origin-Realm" showname="Origin-Realm: localdomain" size="11" pos="144" show="localdomain" value="6c6f63616c646f6d61696e"/>
      <field name="diameter.avp.pad" showname="Padding: 00" size="1" pos="155" show="00" value="00"/>
    </field>
    <field name="diameter.avp" showname="AVP: Origin-State-Id(278) l=12 f=-M- val=1670519910" size="12" pos="156" show="00:00:01:16:40:00:00:0c:63:92:1c:66" value="000001164000000c63921c66">
      <field name="diameter.avp.code" showname="AVP Code: 278 Origin-State-Id" size="4" pos="156" show="278" value="00000116"/>
      <field name="diameter.avp.flags" showname="AVP Flags: 0x40, Mandatory: Set" size="1" pos="160" show="0x00000040" value="40">
        <field name="diameter.flags.vendorspecific" showname="0... .... = Vendor-Specific: Not set" size="1" pos="160" show="0" value="0" unmaskedvalue="40"/>
        <field name="diameter.flags.mandatory" showname=".1.. .... = Mandatory: Set" size="1" pos="160" show="1" value="1" unmaskedvalue="40"/>
        <field name="diameter.avp.flags.protected" showname="..0. .... = Protected: Not set" size="1" pos="160" show="0" value="0" unmaskedvalue="40"/>
        <field name="diameter.avp.flags.reserved3" showname="...0 .... = Reserved: Not set" size="1" pos="160" show="0" value="0" unmaskedvalue="40"/>
        <field name="diameter.avp.flags.reserved4" showname=".... 0... = Reserved: Not set" size="1" pos="160" show="0" value="0" unmaskedvalue="40"/>
        <field name="diameter.avp.flags.reserved5" showname=".... .0.. = Reserved: Not set" size="1" pos="160" show="0" value="0" unmaskedvalue="40"/>
        <field name="diameter.avp.flags.reserved6" showname=".... ..0. = Reserved: Not set" size="1" pos="160" show="0" value="0" unmaskedvalue="40"/>
        <field name="diameter.avp.flags.reserved7" showname=".... ...0 = Reserved: Not set" size="1" pos="160" show="0" value="0" unmaskedvalue="40"/>
      </field>
      <field name="diameter.avp.len" showname="AVP Length: 12" size="3" pos="161" show="12" value="00000c"/>
      <field name="diameter.Origin-State-Id" showname="Origin-State-Id: 1670519910" size="4" pos="164" show="1670519910" value="63921c66"/>
    </field>
  </proto>
</packet>


<packet>
  <proto name="geninfo" pos="0" showname="General information" size="140">
    <field name="num" pos="0" show="24154" showname="Number" value="5e5a" size="140"/>
    <field name="len" pos="0" show="140" showname="Frame Length" value="8c" size="140"/>
    <field name="caplen" pos="0" show="140" showname="Captured Length" value="8c" size="140"/>
    <field name="timestamp" pos="0" show="Dec  9, 2022 18:43:09.406450309 CET" showname="Captured Time" value="1670607789.406450309" size="140"/>
  </proto>
  <proto name="frame" showname="Frame 24154: 140 bytes on wire (1120 bits), 140 bytes captured (1120 bits) on interface any, id 0" size="140" pos="0">
    <field name="filtered" value="frame" />
  </proto>
  <proto name="sll" showname="Linux cooked capture" size="16" pos="0">
    <field name="filtered" value="sll" />
  </proto>
  <proto name="ip" showname="Internet Protocol Version 4, Src: 127.0.0.9, Dst: 127.0.0.4" size="20" pos="16">
    <field name="filtered" value="ip" />
  </proto>
  <proto name="sctp" showname="Stream Control Transmission Protocol, Src Port: 40193 (40193), Dst Port: 3868 (3868)" size="28" pos="36">
    <field name="filtered" value="sctp" />
  </proto>
  <proto name="diameter" showname="Diameter Protocol" size="76" pos="64">
    <field name="diameter.version" showname="Version: 0x01" size="1" pos="64" show="0x00000001" value="01"/>
    <field name="diameter.length" showname="Length: 76" size="3" pos="65" show="76" value="00004c"/>
    <field name="diameter.flags" showname="Flags: 0x80, Request" size="1" pos="68" show="0x00000080" value="80">
      <field name="diameter.flags.request" showname="1... .... = Request: Set" size="1" pos="68" show="1" value="1" unmaskedvalue="80"/>
      <field name="diameter.flags.proxyable" showname=".0.. .... = Proxyable: Not set" size="1" pos="68" show="0" value="0" unmaskedvalue="80"/>
      <field name="diameter.flags.error" showname="..0. .... = Error: Not set" size="1" pos="68" show="0" value="0" unmaskedvalue="80"/>
      <field name="diameter.flags.T" showname="...0 .... = T(Potentially re-transmitted message): Not set" size="1" pos="68" show="0" value="0" unmaskedvalue="80"/>
      <field name="diameter.flags.reserved4" showname=".... 0... = Reserved: Not set" size="1" pos="68" show="0" value="0" unmaskedvalue="80"/>
      <field name="diameter.flags.reserved5" showname=".... .0.. = Reserved: Not set" size="1" pos="68" show="0" value="0" unmaskedvalue="80"/>
      <field name="diameter.flags.reserved6" showname=".... ..0. = Reserved: Not set" size="1" pos="68" show="0" value="0" unmaskedvalue="80"/>
      <field name="diameter.flags.reserved7" showname=".... ...0 = Reserved: Not set" size="1" pos="68" show="0" value="0" unmaskedvalue="80"/>
    </field>
    <field name="diameter.cmd.code" showname="Command Code: 280 Device-Watchdog" size="3" pos="69" show="280" value="000118"/>
    <field name="diameter.applicationId" showname="ApplicationId: Diameter Common Messages (0)" size="4" pos="72" show="0" value="00000000"/>
    <field name="diameter.hopbyhopid" showname="Hop-by-Hop Identifier: 0x7f7fcd67" size="4" pos="76" show="0x7f7fcd67" value="7f7fcd67"/>
    <field name="diameter.endtoendid" showname="End-to-End Identifier: 0x41707f42" size="4" pos="80" show="0x41707f42" value="41707f42"/>
    <field name="diameter.answer_in" showname="Answer In: 24156" size="0" pos="64" show="24156"/>
    <field name="diameter.avp" showname="AVP: Origin-Host(264) l=24 f=-M- val=pcrf.localdomain" size="24" pos="84" show="00:00:01:08:40:00:00:18:70:63:72:66:2e:6c:6f:63:61:6c:64:6f:6d:61:69:6e" value="0000010840000018706372662e6c6f63616c646f6d61696e">
      <field name="diameter.avp.code" showname="AVP Code: 264 Origin-Host" size="4" pos="84" show="264" value="00000108"/>
      <field name="diameter.avp.flags" showname="AVP Flags: 0x40, Mandatory: Set" size="1" pos="88" show="0x00000040" value="40">
        <field name="diameter.flags.vendorspecific" showname="0... .... = Vendor-Specific: Not set" size="1" pos="88" show="0" value="0" unmaskedvalue="40"/>
        <field name="diameter.flags.mandatory" showname=".1.. .... = Mandatory: Set" size="1" pos="88" show="1" value="1" unmaskedvalue="40"/>
        <field name="diameter.avp.flags.protected" showname="..0. .... = Protected: Not set" size="1" pos="88" show="0" value="0" unmaskedvalue="40"/>
        <field name="diameter.avp.flags.reserved3" showname="...0 .... = Reserved: Not set" size="1" pos="88" show="0" value="0" unmaskedvalue="40"/>
        <field name="diameter.avp.flags.reserved4" showname=".... 0... = Reserved: Not set" size="1" pos="88" show="0" value="0" unmaskedvalue="40"/>
        <field name="diameter.avp.flags.reserved5" showname=".... .0.. = Reserved: Not set" size="1" pos="88" show="0" value="0" unmaskedvalue="40"/>
        <field name="diameter.avp.flags.reserved6" showname=".... ..0. = Reserved: Not set" size="1" pos="88" show="0" value="0" unmaskedvalue="40"/>
        <field name="diameter.avp.flags.reserved7" showname=".... ...0 = Reserved: Not set" size="1" pos="88" show="0" value="0" unmaskedvalue="40"/>
      </field>
      <field name="diameter.avp.len" showname="AVP Length: 24" size="3" pos="89" show="24" value="000018"/>
      <field name="diameter.Origin-Host" showname="Origin-Host: pcrf.localdomain" size="16" pos="92" show="pcrf.localdomain" value="706372662e6c6f63616c646f6d61696e"/>
    </field>
    <field name="diameter.avp" showname="AVP: Origin-Realm(296) l=19 f=-M- val=localdomain" size="20" pos="108" show="00:00:01:28:40:00:00:13:6c:6f:63:61:6c:64:6f:6d:61:69:6e:00" value="00000128400000136c6f63616c646f6d61696e00">
      <field name="diameter.avp.code" showname="AVP Code: 296 Origin-Realm" size="4" pos="108" show="296" value="00000128"/>
      <field name="diameter.avp.flags" showname="AVP Flags: 0x40, Mandatory: Set" size="1" pos="112" show="0x00000040" value="40">
        <field name="diameter.flags.vendorspecific" showname="0... .... = Vendor-Specific: Not set" size="1" pos="112" show="0" value="0" unmaskedvalue="40"/>
        <field name="diameter.flags.mandatory" showname=".1.. .... = Mandatory: Set" size="1" pos="112" show="1" value="1" unmaskedvalue="40"/>
        <field name="diameter.avp.flags.protected" showname="..0. .... = Protected: Not set" size="1" pos="112" show="0" value="0" unmaskedvalue="40"/>
        <field name="diameter.avp.flags.reserved3" showname="...0 .... = Reserved: Not set" size="1" pos="112" show="0" value="0" unmaskedvalue="40"/>
        <field name="diameter.avp.flags.reserved4" showname=".... 0... = Reserved: Not set" size="1" pos="112" show="0" value="0" unmaskedvalue="40"/>
        <field name="diameter.avp.flags.reserved5" showname=".... .0.. = Reserved: Not set" size="1" pos="112" show="0" value="0" unmaskedvalue="40"/>
        <field name="diameter.avp.flags.reserved6" showname=".... ..0. = Reserved: Not set" size="1" pos="112" show="0" value="0" unmaskedvalue="40"/>
        <field name="diameter.avp.flags.reserved7" showname=".... ...0 = Reserved: Not set" size="1" pos="112" show="0" value="0" unmaskedvalue="40"/>
      </field>
      <field name="diameter.avp.len" showname="AVP Length: 19" size="3" pos="113" show="19" value="000013"/>
      <field name="diameter.Origin-Realm" showname="Origin-Realm: localdomain" size="11" pos="116" show="localdomain" value="6c6f63616c646f6d61696e"/>
      <field name="diameter.avp.pad" showname="Padding: 00" size="1" pos="127" show="00" value="00"/>
    </field>
    <field name="diameter.avp" showname="AVP: Origin-State-Id(278) l=12 f=-M- val=1670509591" size="12" pos="128" show="00:00:01:16:40:00:00:0c:63:91:f4:17" value="000001164000000c6391f417">
      <field name="diameter.avp.code" showname="AVP Code: 278 Origin-State-Id" size="4" pos="128" show="278" value="00000116"/>
      <field name="diameter.avp.flags" showname="AVP Flags: 0x40, Mandatory: Set" size="1" pos="132" show="0x00000040" value="40">
        <field name="diameter.flags.vendorspecific" showname="0... .... = Vendor-Specific: Not set" size="1" pos="132" show="0" value="0" unmaskedvalue="40"/>
        <field name="diameter.flags.mandatory" showname=".1.. .... = Mandatory: Set" size="1" pos="132" show="1" value="1" unmaskedvalue="40"/>
        <field name="diameter.avp.flags.protected" showname="..0. .... = Protected: Not set" size="1" pos="132" show="0" value="0" unmaskedvalue="40"/>
        <field name="diameter.avp.flags.reserved3" showname="...0 .... = Reserved: Not set" size="1" pos="132" show="0" value="0" unmaskedvalue="40"/>
        <field name="diameter.avp.flags.reserved4" showname=".... 0... = Reserved: Not set" size="1" pos="132" show="0" value="0" unmaskedvalue="40"/>
        <field name="diameter.avp.flags.reserved5" showname=".... .0.. = Reserved: Not set" size="1" pos="132" show="0" value="0" unmaskedvalue="40"/>
        <field name="diameter.avp.flags.reserved6" showname=".... ..0. = Reserved: Not set" size="1" pos="132" show="0" value="0" unmaskedvalue="40"/>
        <field name="diameter.avp.flags.reserved7" showname=".... ...0 = Reserved: Not set" size="1" pos="132" show="0" value="0" unmaskedvalue="40"/>
      </field>
      <field name="diameter.avp.len" showname="AVP Length: 12" size="3" pos="133" show="12" value="00000c"/>
      <field name="diameter.Origin-State-Id" showname="Origin-State-Id: 1670509591" size="4" pos="136" show="1670509591" value="6391f417"/>
    </field>
  </proto>
</packet>


<packet>
  <proto name="geninfo" pos="0" showname="General information" size="168">
    <field name="num" pos="0" show="24156" showname="Number" value="5e5c" size="168"/>
    <field name="len" pos="0" show="168" showname="Frame Length" value="a8" size="168"/>
    <field name="caplen" pos="0" show="168" showname="Captured Length" value="a8" size="168"/>
    <field name="timestamp" pos="0" show="Dec  9, 2022 18:43:09.407665503 CET" showname="Captured Time" value="1670607789.407665503" size="168"/>
  </proto>
  <proto name="frame" showname="Frame 24156: 168 bytes on wire (1344 bits), 168 bytes captured (1344 bits) on interface any, id 0" size="168" pos="0">
    <field name="filtered" value="frame" />
  </proto>
  <proto name="sll" showname="Linux cooked capture" size="16" pos="0">
    <field name="filtered" value="sll" />
  </proto>
  <proto name="ip" showname="Internet Protocol Version 4, Src: 127.0.0.4, Dst: 127.0.0.9" size="20" pos="16">
    <field name="filtered" value="ip" />
  </proto>
  <proto name="sctp" showname="Stream Control Transmission Protocol, Src Port: 3868 (3868), Dst Port: 40193 (40193)" size="44" pos="36">
    <field name="filtered" value="sctp" />
  </proto>
  <proto name="diameter" showname="Diameter Protocol" size="88" pos="80">
    <field name="diameter.version" showname="Version: 0x01" size="1" pos="80" show="0x00000001" value="01"/>
    <field name="diameter.length" showname="Length: 88" size="3" pos="81" show="88" value="000058"/>
    <field name="diameter.flags" showname="Flags: 0x00" size="1" pos="84" show="0x00000000" value="00">
      <field name="diameter.flags.request" showname="0... .... = Request: Not set" size="1" pos="84" show="0" value="0" unmaskedvalue="00"/>
      <field name="diameter.flags.proxyable" showname=".0.. .... = Proxyable: Not set" size="1" pos="84" show="0" value="0" unmaskedvalue="00"/>
      <field name="diameter.flags.error" showname="..0. .... = Error: Not set" size="1" pos="84" show="0" value="0" unmaskedvalue="00"/>
      <field name="diameter.flags.T" showname="...0 .... = T(Potentially re-transmitted message): Not set" size="1" pos="84" show="0" value="0" unmaskedvalue="00"/>
      <field name="diameter.flags.reserved4" showname=".... 0... = Reserved: Not set" size="1" pos="84" show="0" value="0" unmaskedvalue="00"/>
      <field name="diameter.flags.reserved5" showname=".... .0.. = Reserved: Not set" size="1" pos="84" show="0" value="0" unmaskedvalue="00"/>
      <field name="diameter.flags.reserved6" showname=".... ..0. = Reserved: Not set" size="1" pos="84" show="0" value="0" unmaskedvalue="00"/>
      <field name="diameter.flags.reserved7" showname=".... ...0 = Reserved: Not set" size="1" pos="84" show="0" value="0" unmaskedvalue="00"/>
    </field>
    <field name="diameter.cmd.code" showname="Command Code: 280 Device-Watchdog" size="3" pos="85" show="280" value="000118"/>
    <field name="diameter.applicationId" showname="ApplicationId: Diameter Common Messages (0)" size="4" pos="88" show="0" value="00000000"/>
    <field name="diameter.hopbyhopid" showname="Hop-by-Hop Identifier: 0x7f7fcd67" size="4" pos="92" show="0x7f7fcd67" value="7f7fcd67"/>
    <field name="diameter.endtoendid" showname="End-to-End Identifier: 0x41707f42" size="4" pos="96" show="0x41707f42" value="41707f42"/>
    <field name="diameter.answer_to" showname="Request In: 24154" size="0" pos="80" show="24154"/>
    <field name="diameter.resp_time" showname="Response Time: 0.001215194 seconds" size="0" pos="80" show="0.001215194"/>
    <field name="diameter.avp" showname="AVP: Result-Code(268) l=12 f=-M- val=DIAMETER_SUCCESS (2001)" size="12" pos="100" show="00:00:01:0c:40:00:00:0c:00:00:07:d1" value="0000010c4000000c000007d1">
      <field name="diameter.avp.code" showname="AVP Code: 268 Result-Code" size="4" pos="100" show="268" value="0000010c"/>
      <field name="diameter.avp.flags" showname="AVP Flags: 0x40, Mandatory: Set" size="1" pos="104" show="0x00000040" value="40">
        <field name="diameter.flags.vendorspecific" showname="0... .... = Vendor-Specific: Not set" size="1" pos="104" show="0" value="0" unmaskedvalue="40"/>
        <field name="diameter.flags.mandatory" showname=".1.. .... = Mandatory: Set" size="1" pos="104" show="1" value="1" unmaskedvalue="40"/>
        <field name="diameter.avp.flags.protected" showname="..0. .... = Protected: Not set" size="1" pos="104" show="0" value="0" unmaskedvalue="40"/>
        <field name="diameter.avp.flags.reserved3" showname="...0 .... = Reserved: Not set" size="1" pos="104" show="0" value="0" unmaskedvalue="40"/>
        <field name="diameter.avp.flags.reserved4" showname=".... 0... = Reserved: Not set" size="1" pos="104" show="0" value="0" unmaskedvalue="40"/>
        <field name="diameter.avp.flags.reserved5" showname=".... .0.. = Reserved: Not set" size="1" pos="104" show="0" value="0" unmaskedvalue="40"/>
        <field name="diameter.avp.flags.reserved6" showname=".... ..0. = Reserved: Not set" size="1" pos="104" show="0" value="0" unmaskedvalue="40"/>
        <field name="diameter.avp.flags.reserved7" showname=".... ...0 = Reserved: Not set" size="1" pos="104" show="0" value="0" unmaskedvalue="40"/>
      </field>
      <field name="diameter.avp.len" showname="AVP Length: 12" size="3" pos="105" show="12" value="00000c"/>
      <field name="diameter.Result-Code" showname="Result-Code: DIAMETER_SUCCESS (2001)" size="4" pos="108" show="2001" value="000007d1"/>
    </field>
    <field name="diameter.avp" showname="AVP: Origin-Host(264) l=23 f=-M- val=smf.localdomain" size="24" pos="112" show="00:00:01:08:40:00:00:17:73:6d:66:2e:6c:6f:63:61:6c:64:6f:6d:61:69:6e:00" value="0000010840000017736d662e6c6f63616c646f6d61696e00">
      <field name="diameter.avp.code" showname="AVP Code: 264 Origin-Host" size="4" pos="112" show="264" value="00000108"/>
      <field name="diameter.avp.flags" showname="AVP Flags: 0x40, Mandatory: Set" size="1" pos="116" show="0x00000040" value="40">
        <field name="diameter.flags.vendorspecific" showname="0... .... = Vendor-Specific: Not set" size="1" pos="116" show="0" value="0" unmaskedvalue="40"/>
        <field name="diameter.flags.mandatory" showname=".1.. .... = Mandatory: Set" size="1" pos="116" show="1" value="1" unmaskedvalue="40"/>
        <field name="diameter.avp.flags.protected" showname="..0. .... = Protected: Not set" size="1" pos="116" show="0" value="0" unmaskedvalue="40"/>
        <field name="diameter.avp.flags.reserved3" showname="...0 .... = Reserved: Not set" size="1" pos="116" show="0" value="0" unmaskedvalue="40"/>
        <field name="diameter.avp.flags.reserved4" showname=".... 0... = Reserved: Not set" size="1" pos="116" show="0" value="0" unmaskedvalue="40"/>
        <field name="diameter.avp.flags.reserved5" showname=".... .0.. = Reserved: Not set" size="1" pos="116" show="0" value="0" unmaskedvalue="40"/>
        <field name="diameter.avp.flags.reserved6" showname=".... ..0. = Reserved: Not set" size="1" pos="116" show="0" value="0" unmaskedvalue="40"/>
        <field name="diameter.avp.flags.reserved7" showname=".... ...0 = Reserved: Not set" size="1" pos="116" show="0" value="0" unmaskedvalue="40"/>
      </field>
      <field name="diameter.avp.len" showname="AVP Length: 23" size="3" pos="117" show="23" value="000017"/>
      <field name="diameter.Origin-Host" showname="Origin-Host: smf.localdomain" size="15" pos="120" show="smf.localdomain" value="736d662e6c6f63616c646f6d61696e"/>
      <field name="diameter.avp.pad" showname="Padding: 00" size="1" pos="135" show="00" value="00"/>
    </field>
    <field name="diameter.avp" showname="AVP: Origin-Realm(296) l=19 f=-M- val=localdomain" size="20" pos="136" show="00:00:01:28:40:00:00:13:6c:6f:63:61:6c:64:6f:6d:61:69:6e:00" value="00000128400000136c6f63616c646f6d61696e00">
      <field name="diameter.avp.code" showname="AVP Code: 296 Origin-Realm" size="4" pos="136" show="296" value="00000128"/>
      <field name="diameter.avp.flags" showname="AVP Flags: 0x40, Mandatory: Set" size="1" pos="140" show="0x00000040" value="40">
        <field name="diameter.flags.vendorspecific" showname="0... .... = Vendor-Specific: Not set" size="1" pos="140" show="0" value="0" unmaskedvalue="40"/>
        <field name="diameter.flags.mandatory" showname=".1.. .... = Mandatory: Set" size="1" pos="140" show="1" value="1" unmaskedvalue="40"/>
        <field name="diameter.avp.flags.protected" showname="..0. .... = Protected: Not set" size="1" pos="140" show="0" value="0" unmaskedvalue="40"/>
        <field name="diameter.avp.flags.reserved3" showname="...0 .... = Reserved: Not set" size="1" pos="140" show="0" value="0" unmaskedvalue="40"/>
        <field name="diameter.avp.flags.reserved4" showname=".... 0... = Reserved: Not set" size="1" pos="140" show="0" value="0" unmaskedvalue="40"/>
        <field name="diameter.avp.flags.reserved5" showname=".... .0.. = Reserved: Not set" size="1" pos="140" show="0" value="0" unmaskedvalue="40"/>
        <field name="diameter.avp.flags.reserved6" showname=".... ..0. = Reserved: Not set" size="1" pos="140" show="0" value="0" unmaskedvalue="40"/>
        <field name="diameter.avp.flags.reserved7" showname=".... ...0 = Reserved: Not set" size="1" pos="140" show="0" value="0" unmaskedvalue="40"/>
      </field>
      <field name="diameter.avp.len" showname="AVP Length: 19" size="3" pos="141" show="19" value="000013"/>
      <field name="diameter.Origin-Realm" showname="Origin-Realm: localdomain" size="11" pos="144" show="localdomain" value="6c6f63616c646f6d61696e"/>
      <field name="diameter.avp.pad" showname="Padding: 00" size="1" pos="155" show="00" value="00"/>
    </field>
    <field name="diameter.avp" showname="AVP: Origin-State-Id(278) l=12 f=-M- val=1670509584" size="12" pos="156" show="00:00:01:16:40:00:00:0c:63:91:f4:10" value="000001164000000c6391f410">
      <field name="diameter.avp.code" showname="AVP Code: 278 Origin-State-Id" size="4" pos="156" show="278" value="00000116"/>
      <field name="diameter.avp.flags" showname="AVP Flags: 0x40, Mandatory: Set" size="1" pos="160" show="0x00000040" value="40">
        <field name="diameter.flags.vendorspecific" showname="0... .... = Vendor-Specific: Not set" size="1" pos="160" show="0" value="0" unmaskedvalue="40"/>
        <field name="diameter.flags.mandatory" showname=".1.. .... = Mandatory: Set" size="1" pos="160" show="1" value="1" unmaskedvalue="40"/>
        <field name="diameter.avp.flags.protected" showname="..0. .... = Protected: Not set" size="1" pos="160" show="0" value="0" unmaskedvalue="40"/>
        <field name="diameter.avp.flags.reserved3" showname="...0 .... = Reserved: Not set" size="1" pos="160" show="0" value="0" unmaskedvalue="40"/>
        <field name="diameter.avp.flags.reserved4" showname=".... 0... = Reserved: Not set" size="1" pos="160" show="0" value="0" unmaskedvalue="40"/>
        <field name="diameter.avp.flags.reserved5" showname=".... .0.. = Reserved: Not set" size="1" pos="160" show="0" value="0" unmaskedvalue="40"/>
        <field name="diameter.avp.flags.reserved6" showname=".... ..0. = Reserved: Not set" size="1" pos="160" show="0" value="0" unmaskedvalue="40"/>
        <field name="diameter.avp.flags.reserved7" showname=".... ...0 = Reserved: Not set" size="1" pos="160" show="0" value="0" unmaskedvalue="40"/>
      </field>
      <field name="diameter.avp.len" showname="AVP Length: 12" size="3" pos="161" show="12" value="00000c"/>
      <field name="diameter.Origin-State-Id" showname="Origin-State-Id: 1670509584" size="4" pos="164" show="1670509584" value="6391f410"/>
    </field>
  </proto>
</packet>


<packet>
  <proto name="geninfo" pos="0" showname="General information" size="60">
    <field name="num" pos="0" show="24237" showname="Number" value="5ead" size="60"/>
    <field name="len" pos="0" show="60" showname="Frame Length" value="3c" size="60"/>
    <field name="caplen" pos="0" show="60" showname="Captured Length" value="3c" size="60"/>
    <field name="timestamp" pos="0" show="Dec  9, 2022 18:43:10.545171549 CET" showname="Captured Time" value="1670607790.545171549" size="60"/>
  </proto>
  <proto name="frame" showname="Frame 24237: 60 bytes on wire (480 bits), 60 bytes captured (480 bits) on interface any, id 0" size="60" pos="0">
    <field name="filtered" value="frame" />
  </proto>
  <proto name="sll" showname="Linux cooked capture" size="16" pos="0">
    <field name="filtered" value="sll" />
  </proto>
  <proto name="ip" showname="Internet Protocol Version 4, Src: 127.0.0.4, Dst: 127.0.0.7" size="20" pos="16">
    <field name="filtered" value="ip" />
  </proto>
  <proto name="udp" showname="User Datagram Protocol, Src Port: 8805, Dst Port: 8805" size="8" pos="36">
    <field name="filtered" value="udp" />
  </proto>
  <proto name="pfcp" showname="Packet Forwarding Control Protocol" size="16" pos="44">
    <field name="pfcp.flags" showname="Flags: 0x20" size="1" pos="44" show="0x00000020" value="20">
      <field name="pfcp.version" showname="001. .... = Version: 1" size="1" pos="44" show="1" value="1" unmaskedvalue="20"/>
      <field name="pfcp.spare_b4" showname="...0 .... = Spare: 0" size="1" pos="44" show="0" value="0" unmaskedvalue="20"/>
      <field name="pfcp.spare_b3" showname=".... 0... = Spare: 0" size="1" pos="44" show="0" value="0" unmaskedvalue="20"/>
      <field name="pfcp.spare_b2" showname=".... .0.. = Spare: 0" size="1" pos="44" show="0" value="0" unmaskedvalue="20"/>
      <field name="pfcp.mp_flag" showname=".... ..0. = Message Priority (MP): False" size="1" pos="44" show="0" value="0" unmaskedvalue="20"/>
      <field name="pfcp.s" showname=".... ...0 = SEID (S): False" size="1" pos="44" show="0" value="0" unmaskedvalue="20"/>
    </field>
    <field name="pfcp.msg_type" showname="Message Type: PFCP Heartbeat Request (1)" size="1" pos="45" show="1" value="01"/>
    <field name="pfcp.length" showname="Length: 12" size="2" pos="46" show="12" value="000c"/>
    <field name="pfcp.seqno" showname="Sequence Number: 2723" size="3" pos="48" show="2723" value="000aa3"/>
    <field name="pfcp.spare_oct" showname="Spare: 0" size="1" pos="51" show="0" value="00"/>
    <field name="" show="Recovery Time Stamp : Dec  8, 2022 14:26:24.000000000 UTC" size="8" pos="52" value="00600004e73c7290">
      <field name="pfcp.ie_type" showname="IE Type: Recovery Time Stamp (96)" size="2" pos="52" show="96" value="0060"/>
      <field name="pfcp.ie_len" showname="IE Length: 4" size="2" pos="54" show="4" value="0004"/>
      <field name="pfcp.recovery_time_stamp" showname="Recovery Time Stamp: Dec  8, 2022 14:26:24.000000000 UTC" size="4" pos="56" show="Dec  8, 2022 15:26:24.000000000 CET" value="e73c7290"/>
    </field>
    <field name="pfcp.response_in" showname="Response In: 24238" size="0" pos="44" show="24238"/>
  </proto>
</packet>


<packet>
  <proto name="geninfo" pos="0" showname="General information" size="60">
    <field name="num" pos="0" show="24238" showname="Number" value="5eae" size="60"/>
    <field name="len" pos="0" show="60" showname="Frame Length" value="3c" size="60"/>
    <field name="caplen" pos="0" show="60" showname="Captured Length" value="3c" size="60"/>
    <field name="timestamp" pos="0" show="Dec  9, 2022 18:43:10.545309714 CET" showname="Captured Time" value="1670607790.545309714" size="60"/>
  </proto>
  <proto name="frame" showname="Frame 24238: 60 bytes on wire (480 bits), 60 bytes captured (480 bits) on interface any, id 0" size="60" pos="0">
    <field name="filtered" value="frame" />
  </proto>
  <proto name="sll" showname="Linux cooked capture" size="16" pos="0">
    <field name="filtered" value="sll" />
  </proto>
  <proto name="ip" showname="Internet Protocol Version 4, Src: 127.0.0.7, Dst: 127.0.0.4" size="20" pos="16">
    <field name="filtered" value="ip" />
  </proto>
  <proto name="udp" showname="User Datagram Protocol, Src Port: 8805, Dst Port: 8805" size="8" pos="36">
    <field name="filtered" value="udp" />
  </proto>
  <proto name="pfcp" showname="Packet Forwarding Control Protocol" size="16" pos="44">
    <field name="pfcp.flags" showname="Flags: 0x20" size="1" pos="44" show="0x00000020" value="20">
      <field name="pfcp.version" showname="001. .... = Version: 1" size="1" pos="44" show="1" value="1" unmaskedvalue="20"/>
      <field name="pfcp.spare_b4" showname="...0 .... = Spare: 0" size="1" pos="44" show="0" value="0" unmaskedvalue="20"/>
      <field name="pfcp.spare_b3" showname=".... 0... = Spare: 0" size="1" pos="44" show="0" value="0" unmaskedvalue="20"/>
      <field name="pfcp.spare_b2" showname=".... .0.. = Spare: 0" size="1" pos="44" show="0" value="0" unmaskedvalue="20"/>
      <field name="pfcp.mp_flag" showname=".... ..0. = Message Priority (MP): False" size="1" pos="44" show="0" value="0" unmaskedvalue="20"/>
      <field name="pfcp.s" showname=".... ...0 = SEID (S): False" size="1" pos="44" show="0" value="0" unmaskedvalue="20"/>
    </field>
    <field name="pfcp.msg_type" showname="Message Type: PFCP Heartbeat Response (2)" size="1" pos="45" show="2" value="02"/>
    <field name="pfcp.length" showname="Length: 12" size="2" pos="46" show="12" value="000c"/>
    <field name="pfcp.seqno" showname="Sequence Number: 2723" size="3" pos="48" show="2723" value="000aa3"/>
    <field name="pfcp.spare_oct" showname="Spare: 0" size="1" pos="51" show="0" value="00"/>
    <field name="" show="Recovery Time Stamp : Dec  8, 2022 14:26:24.000000000 UTC" size="8" pos="52" value="00600004e73c7290">
      <field name="pfcp.ie_type" showname="IE Type: Recovery Time Stamp (96)" size="2" pos="52" show="96" value="0060"/>
      <field name="pfcp.ie_len" showname="IE Length: 4" size="2" pos="54" show="4" value="0004"/>
      <field name="pfcp.recovery_time_stamp" showname="Recovery Time Stamp: Dec  8, 2022 14:26:24.000000000 UTC" size="4" pos="56" show="Dec  8, 2022 15:26:24.000000000 CET" value="e73c7290"/>
    </field>
    <field name="pfcp.response_to" showname="Response To: 24237" size="0" pos="44" show="24237"/>
    <field name="pfcp.response_time" showname="Response Time: 0.000138165 seconds" size="0" pos="44" show="0.000138165"/>
  </proto>
</packet>


<packet>
  <proto name="geninfo" pos="0" showname="General information" size="60">
    <field name="num" pos="0" show="24239" showname="Number" value="5eaf" size="60"/>
    <field name="len" pos="0" show="60" showname="Frame Length" value="3c" size="60"/>
    <field name="caplen" pos="0" show="60" showname="Captured Length" value="3c" size="60"/>
    <field name="timestamp" pos="0" show="Dec  9, 2022 18:43:10.545371941 CET" showname="Captured Time" value="1670607790.545371941" size="60"/>
  </proto>
  <proto name="frame" showname="Frame 24239: 60 bytes on wire (480 bits), 60 bytes captured (480 bits) on interface any, id 0" size="60" pos="0">
    <field name="filtered" value="frame" />
  </proto>
  <proto name="sll" showname="Linux cooked capture" size="16" pos="0">
    <field name="filtered" value="sll" />
  </proto>
  <proto name="ip" showname="Internet Protocol Version 4, Src: 127.0.0.7, Dst: 127.0.0.4" size="20" pos="16">
    <field name="filtered" value="ip" />
  </proto>
  <proto name="udp" showname="User Datagram Protocol, Src Port: 8805, Dst Port: 8805" size="8" pos="36">
    <field name="filtered" value="udp" />
  </proto>
  <proto name="pfcp" showname="Packet Forwarding Control Protocol" size="16" pos="44">
    <field name="pfcp.flags" showname="Flags: 0x20" size="1" pos="44" show="0x00000020" value="20">
      <field name="pfcp.version" showname="001. .... = Version: 1" size="1" pos="44" show="1" value="1" unmaskedvalue="20"/>
      <field name="pfcp.spare_b4" showname="...0 .... = Spare: 0" size="1" pos="44" show="0" value="0" unmaskedvalue="20"/>
      <field name="pfcp.spare_b3" showname=".... 0... = Spare: 0" size="1" pos="44" show="0" value="0" unmaskedvalue="20"/>
      <field name="pfcp.spare_b2" showname=".... .0.. = Spare: 0" size="1" pos="44" show="0" value="0" unmaskedvalue="20"/>
      <field name="pfcp.mp_flag" showname=".... ..0. = Message Priority (MP): False" size="1" pos="44" show="0" value="0" unmaskedvalue="20"/>
      <field name="pfcp.s" showname=".... ...0 = SEID (S): False" size="1" pos="44" show="0" value="0" unmaskedvalue="20"/>
    </field>
    <field name="pfcp.msg_type" showname="Message Type: PFCP Heartbeat Request (1)" size="1" pos="45" show="1" value="01"/>
    <field name="pfcp.length" showname="Length: 12" size="2" pos="46" show="12" value="000c"/>
    <field name="pfcp.seqno" showname="Sequence Number: 2456" size="3" pos="48" show="2456" value="000998"/>
    <field name="pfcp.spare_oct" showname="Spare: 0" size="1" pos="51" show="0" value="00"/>
    <field name="" show="Recovery Time Stamp : Dec  8, 2022 14:26:24.000000000 UTC" size="8" pos="52" value="00600004e73c7290">
      <field name="pfcp.ie_type" showname="IE Type: Recovery Time Stamp (96)" size="2" pos="52" show="96" value="0060"/>
      <field name="pfcp.ie_len" showname="IE Length: 4" size="2" pos="54" show="4" value="0004"/>
      <field name="pfcp.recovery_time_stamp" showname="Recovery Time Stamp: Dec  8, 2022 14:26:24.000000000 UTC" size="4" pos="56" show="Dec  8, 2022 15:26:24.000000000 CET" value="e73c7290"/>
    </field>
    <field name="pfcp.response_in" showname="Response In: 24240" size="0" pos="44" show="24240"/>
  </proto>
</packet>


<packet>
  <proto name="geninfo" pos="0" showname="General information" size="60">
    <field name="num" pos="0" show="24240" showname="Number" value="5eb0" size="60"/>
    <field name="len" pos="0" show="60" showname="Frame Length" value="3c" size="60"/>
    <field name="caplen" pos="0" show="60" showname="Captured Length" value="3c" size="60"/>
    <field name="timestamp" pos="0" show="Dec  9, 2022 18:43:10.545468076 CET" showname="Captured Time" value="1670607790.545468076" size="60"/>
  </proto>
  <proto name="frame" showname="Frame 24240: 60 bytes on wire (480 bits), 60 bytes captured (480 bits) on interface any, id 0" size="60" pos="0">
    <field name="filtered" value="frame" />
  </proto>
  <proto name="sll" showname="Linux cooked capture" size="16" pos="0">
    <field name="filtered" value="sll" />
  </proto>
  <proto name="ip" showname="Internet Protocol Version 4, Src: 127.0.0.4, Dst: 127.0.0.7" size="20" pos="16">
    <field name="filtered" value="ip" />
  </proto>
  <proto name="udp" showname="User Datagram Protocol, Src Port: 8805, Dst Port: 8805" size="8" pos="36">
    <field name="filtered" value="udp" />
  </proto>
  <proto name="pfcp" showname="Packet Forwarding Control Protocol" size="16" pos="44">
    <field name="pfcp.flags" showname="Flags: 0x20" size="1" pos="44" show="0x00000020" value="20">
      <field name="pfcp.version" showname="001. .... = Version: 1" size="1" pos="44" show="1" value="1" unmaskedvalue="20"/>
      <field name="pfcp.spare_b4" showname="...0 .... = Spare: 0" size="1" pos="44" show="0" value="0" unmaskedvalue="20"/>
      <field name="pfcp.spare_b3" showname=".... 0... = Spare: 0" size="1" pos="44" show="0" value="0" unmaskedvalue="20"/>
      <field name="pfcp.spare_b2" showname=".... .0.. = Spare: 0" size="1" pos="44" show="0" value="0" unmaskedvalue="20"/>
      <field name="pfcp.mp_flag" showname=".... ..0. = Message Priority (MP): False" size="1" pos="44" show="0" value="0" unmaskedvalue="20"/>
      <field name="pfcp.s" showname=".... ...0 = SEID (S): False" size="1" pos="44" show="0" value="0" unmaskedvalue="20"/>
    </field>
    <field name="pfcp.msg_type" showname="Message Type: PFCP Heartbeat Response (2)" size="1" pos="45" show="2" value="02"/>
    <field name="pfcp.length" showname="Length: 12" size="2" pos="46" show="12" value="000c"/>
    <field name="pfcp.seqno" showname="Sequence Number: 2456" size="3" pos="48" show="2456" value="000998"/>
    <field name="pfcp.spare_oct" showname="Spare: 0" size="1" pos="51" show="0" value="00"/>
    <field name="" show="Recovery Time Stamp : Dec  8, 2022 14:26:24.000000000 UTC" size="8" pos="52" value="00600004e73c7290">
      <field name="pfcp.ie_type" showname="IE Type: Recovery Time Stamp (96)" size="2" pos="52" show="96" value="0060"/>
      <field name="pfcp.ie_len" showname="IE Length: 4" size="2" pos="54" show="4" value="0004"/>
      <field name="pfcp.recovery_time_stamp" showname="Recovery Time Stamp: Dec  8, 2022 14:26:24.000000000 UTC" size="4" pos="56" show="Dec  8, 2022 15:26:24.000000000 CET" value="e73c7290"/>
    </field>
    <field name="pfcp.response_to" showname="Response To: 24239" size="0" pos="44" show="24239"/>
    <field name="pfcp.response_time" showname="Response Time: 0.000096135 seconds" size="0" pos="44" show="0.000096135"/>
  </proto>
</packet>


<packet>
  <proto name="geninfo" pos="0" showname="General information" size="60">
    <field name="num" pos="0" show="24241" showname="Number" value="5eb1" size="60"/>
    <field name="len" pos="0" show="60" showname="Frame Length" value="3c" size="60"/>
    <field name="caplen" pos="0" show="60" showname="Captured Length" value="3c" size="60"/>
    <field name="timestamp" pos="0" show="Dec  9, 2022 18:43:10.573401969 CET" showname="Captured Time" value="1670607790.573401969" size="60"/>
  </proto>
  <proto name="frame" showname="Frame 24241: 60 bytes on wire (480 bits), 60 bytes captured (480 bits) on interface any, id 0" size="60" pos="0">
    <field name="filtered" value="frame" />
  </proto>
  <proto name="sll" showname="Linux cooked capture" size="16" pos="0">
    <field name="filtered" value="sll" />
  </proto>
  <proto name="ip" showname="Internet Protocol Version 4, Src: 127.0.0.6, Dst: 127.0.0.3" size="20" pos="16">
    <field name="filtered" value="ip" />
  </proto>
  <proto name="udp" showname="User Datagram Protocol, Src Port: 8805, Dst Port: 8805" size="8" pos="36">
    <field name="filtered" value="udp" />
  </proto>
  <proto name="pfcp" showname="Packet Forwarding Control Protocol" size="16" pos="44">
    <field name="pfcp.flags" showname="Flags: 0x20" size="1" pos="44" show="0x00000020" value="20">
      <field name="pfcp.version" showname="001. .... = Version: 1" size="1" pos="44" show="1" value="1" unmaskedvalue="20"/>
      <field name="pfcp.spare_b4" showname="...0 .... = Spare: 0" size="1" pos="44" show="0" value="0" unmaskedvalue="20"/>
      <field name="pfcp.spare_b3" showname=".... 0... = Spare: 0" size="1" pos="44" show="0" value="0" unmaskedvalue="20"/>
      <field name="pfcp.spare_b2" showname=".... .0.. = Spare: 0" size="1" pos="44" show="0" value="0" unmaskedvalue="20"/>
      <field name="pfcp.mp_flag" showname=".... ..0. = Message Priority (MP): False" size="1" pos="44" show="0" value="0" unmaskedvalue="20"/>
      <field name="pfcp.s" showname=".... ...0 = SEID (S): False" size="1" pos="44" show="0" value="0" unmaskedvalue="20"/>
    </field>
    <field name="pfcp.msg_type" showname="Message Type: PFCP Heartbeat Request (1)" size="1" pos="45" show="1" value="01"/>
    <field name="pfcp.length" showname="Length: 12" size="2" pos="46" show="12" value="000c"/>
    <field name="pfcp.seqno" showname="Sequence Number: 2460" size="3" pos="48" show="2460" value="00099c"/>
    <field name="pfcp.spare_oct" showname="Spare: 0" size="1" pos="51" show="0" value="00"/>
    <field name="" show="Recovery Time Stamp : Dec  8, 2022 14:26:24.000000000 UTC" size="8" pos="52" value="00600004e73c7290">
      <field name="pfcp.ie_type" showname="IE Type: Recovery Time Stamp (96)" size="2" pos="52" show="96" value="0060"/>
      <field name="pfcp.ie_len" showname="IE Length: 4" size="2" pos="54" show="4" value="0004"/>
      <field name="pfcp.recovery_time_stamp" showname="Recovery Time Stamp: Dec  8, 2022 14:26:24.000000000 UTC" size="4" pos="56" show="Dec  8, 2022 15:26:24.000000000 CET" value="e73c7290"/>
    </field>
    <field name="pfcp.response_in" showname="Response In: 24242" size="0" pos="44" show="24242"/>
  </proto>
</packet>


<packet>
  <proto name="geninfo" pos="0" showname="General information" size="60">
    <field name="num" pos="0" show="24242" showname="Number" value="5eb2" size="60"/>
    <field name="len" pos="0" show="60" showname="Frame Length" value="3c" size="60"/>
    <field name="caplen" pos="0" show="60" showname="Captured Length" value="3c" size="60"/>
    <field name="timestamp" pos="0" show="Dec  9, 2022 18:43:10.573576109 CET" showname="Captured Time" value="1670607790.573576109" size="60"/>
  </proto>
  <proto name="frame" showname="Frame 24242: 60 bytes on wire (480 bits), 60 bytes captured (480 bits) on interface any, id 0" size="60" pos="0">
    <field name="filtered" value="frame" />
  </proto>
  <proto name="sll" showname="Linux cooked capture" size="16" pos="0">
    <field name="filtered" value="sll" />
  </proto>
  <proto name="ip" showname="Internet Protocol Version 4, Src: 127.0.0.3, Dst: 127.0.0.6" size="20" pos="16">
    <field name="filtered" value="ip" />
  </proto>
  <proto name="udp" showname="User Datagram Protocol, Src Port: 8805, Dst Port: 8805" size="8" pos="36">
    <field name="filtered" value="udp" />
  </proto>
  <proto name="pfcp" showname="Packet Forwarding Control Protocol" size="16" pos="44">
    <field name="pfcp.flags" showname="Flags: 0x20" size="1" pos="44" show="0x00000020" value="20">
      <field name="pfcp.version" showname="001. .... = Version: 1" size="1" pos="44" show="1" value="1" unmaskedvalue="20"/>
      <field name="pfcp.spare_b4" showname="...0 .... = Spare: 0" size="1" pos="44" show="0" value="0" unmaskedvalue="20"/>
      <field name="pfcp.spare_b3" showname=".... 0... = Spare: 0" size="1" pos="44" show="0" value="0" unmaskedvalue="20"/>
      <field name="pfcp.spare_b2" showname=".... .0.. = Spare: 0" size="1" pos="44" show="0" value="0" unmaskedvalue="20"/>
      <field name="pfcp.mp_flag" showname=".... ..0. = Message Priority (MP): False" size="1" pos="44" show="0" value="0" unmaskedvalue="20"/>
      <field name="pfcp.s" showname=".... ...0 = SEID (S): False" size="1" pos="44" show="0" value="0" unmaskedvalue="20"/>
    </field>
    <field name="pfcp.msg_type" showname="Message Type: PFCP Heartbeat Response (2)" size="1" pos="45" show="2" value="02"/>
    <field name="pfcp.length" showname="Length: 12" size="2" pos="46" show="12" value="000c"/>
    <field name="pfcp.seqno" showname="Sequence Number: 2460" size="3" pos="48" show="2460" value="00099c"/>
    <field name="pfcp.spare_oct" showname="Spare: 0" size="1" pos="51" show="0" value="00"/>
    <field name="" show="Recovery Time Stamp : Dec  8, 2022 14:26:24.000000000 UTC" size="8" pos="52" value="00600004e73c7290">
      <field name="pfcp.ie_type" showname="IE Type: Recovery Time Stamp (96)" size="2" pos="52" show="96" value="0060"/>
      <field name="pfcp.ie_len" showname="IE Length: 4" size="2" pos="54" show="4" value="0004"/>
      <field name="pfcp.recovery_time_stamp" showname="Recovery Time Stamp: Dec  8, 2022 14:26:24.000000000 UTC" size="4" pos="56" show="Dec  8, 2022 15:26:24.000000000 CET" value="e73c7290"/>
    </field>
    <field name="pfcp.response_to" showname="Response To: 24241" size="0" pos="44" show="24241"/>
    <field name="pfcp.response_time" showname="Response Time: 0.000174140 seconds" size="0" pos="44" show="0.000174140"/>
  </proto>
</packet>


<packet>
  <proto name="geninfo" pos="0" showname="General information" size="60">
    <field name="num" pos="0" show="24243" showname="Number" value="5eb3" size="60"/>
    <field name="len" pos="0" show="60" showname="Frame Length" value="3c" size="60"/>
    <field name="caplen" pos="0" show="60" showname="Captured Length" value="3c" size="60"/>
    <field name="timestamp" pos="0" show="Dec  9, 2022 18:43:10.573626553 CET" showname="Captured Time" value="1670607790.573626553" size="60"/>
  </proto>
  <proto name="frame" showname="Frame 24243: 60 bytes on wire (480 bits), 60 bytes captured (480 bits) on interface any, id 0" size="60" pos="0">
    <field name="filtered" value="frame" />
  </proto>
  <proto name="sll" showname="Linux cooked capture" size="16" pos="0">
    <field name="filtered" value="sll" />
  </proto>
  <proto name="ip" showname="Internet Protocol Version 4, Src: 127.0.0.3, Dst: 127.0.0.6" size="20" pos="16">
    <field name="filtered" value="ip" />
  </proto>
  <proto name="udp" showname="User Datagram Protocol, Src Port: 8805, Dst Port: 8805" size="8" pos="36">
    <field name="filtered" value="udp" />
  </proto>
  <proto name="pfcp" showname="Packet Forwarding Control Protocol" size="16" pos="44">
    <field name="pfcp.flags" showname="Flags: 0x20" size="1" pos="44" show="0x00000020" value="20">
      <field name="pfcp.version" showname="001. .... = Version: 1" size="1" pos="44" show="1" value="1" unmaskedvalue="20"/>
      <field name="pfcp.spare_b4" showname="...0 .... = Spare: 0" size="1" pos="44" show="0" value="0" unmaskedvalue="20"/>
      <field name="pfcp.spare_b3" showname=".... 0... = Spare: 0" size="1" pos="44" show="0" value="0" unmaskedvalue="20"/>
      <field name="pfcp.spare_b2" showname=".... .0.. = Spare: 0" size="1" pos="44" show="0" value="0" unmaskedvalue="20"/>
      <field name="pfcp.mp_flag" showname=".... ..0. = Message Priority (MP): False" size="1" pos="44" show="0" value="0" unmaskedvalue="20"/>
      <field name="pfcp.s" showname=".... ...0 = SEID (S): False" size="1" pos="44" show="0" value="0" unmaskedvalue="20"/>
    </field>
    <field name="pfcp.msg_type" showname="Message Type: PFCP Heartbeat Request (1)" size="1" pos="45" show="1" value="01"/>
    <field name="pfcp.length" showname="Length: 12" size="2" pos="46" show="12" value="000c"/>
    <field name="pfcp.seqno" showname="Sequence Number: 2460" size="3" pos="48" show="2460" value="00099c"/>
    <field name="pfcp.spare_oct" showname="Spare: 0" size="1" pos="51" show="0" value="00"/>
    <field name="" show="Recovery Time Stamp : Dec  8, 2022 14:26:24.000000000 UTC" size="8" pos="52" value="00600004e73c7290">
      <field name="pfcp.ie_type" showname="IE Type: Recovery Time Stamp (96)" size="2" pos="52" show="96" value="0060"/>
      <field name="pfcp.ie_len" showname="IE Length: 4" size="2" pos="54" show="4" value="0004"/>
      <field name="pfcp.recovery_time_stamp" showname="Recovery Time Stamp: Dec  8, 2022 14:26:24.000000000 UTC" size="4" pos="56" show="Dec  8, 2022 15:26:24.000000000 CET" value="e73c7290"/>
    </field>
    <field name="pfcp.response_in" showname="Response In: 24244" size="0" pos="44" show="24244"/>
  </proto>
</packet>


<packet>
  <proto name="geninfo" pos="0" showname="General information" size="60">
    <field name="num" pos="0" show="24244" showname="Number" value="5eb4" size="60"/>
    <field name="len" pos="0" show="60" showname="Frame Length" value="3c" size="60"/>
    <field name="caplen" pos="0" show="60" showname="Captured Length" value="3c" size="60"/>
    <field name="timestamp" pos="0" show="Dec  9, 2022 18:43:10.573720390 CET" showname="Captured Time" value="1670607790.573720390" size="60"/>
  </proto>
  <proto name="frame" showname="Frame 24244: 60 bytes on wire (480 bits), 60 bytes captured (480 bits) on interface any, id 0" size="60" pos="0">
    <field name="filtered" value="frame" />
  </proto>
  <proto name="sll" showname="Linux cooked capture" size="16" pos="0">
    <field name="filtered" value="sll" />
  </proto>
  <proto name="ip" showname="Internet Protocol Version 4, Src: 127.0.0.6, Dst: 127.0.0.3" size="20" pos="16">
    <field name="filtered" value="ip" />
  </proto>
  <proto name="udp" showname="User Datagram Protocol, Src Port: 8805, Dst Port: 8805" size="8" pos="36">
    <field name="filtered" value="udp" />
  </proto>
  <proto name="pfcp" showname="Packet Forwarding Control Protocol" size="16" pos="44">
    <field name="pfcp.flags" showname="Flags: 0x20" size="1" pos="44" show="0x00000020" value="20">
      <field name="pfcp.version" showname="001. .... = Version: 1" size="1" pos="44" show="1" value="1" unmaskedvalue="20"/>
      <field name="pfcp.spare_b4" showname="...0 .... = Spare: 0" size="1" pos="44" show="0" value="0" unmaskedvalue="20"/>
      <field name="pfcp.spare_b3" showname=".... 0... = Spare: 0" size="1" pos="44" show="0" value="0" unmaskedvalue="20"/>
      <field name="pfcp.spare_b2" showname=".... .0.. = Spare: 0" size="1" pos="44" show="0" value="0" unmaskedvalue="20"/>
      <field name="pfcp.mp_flag" showname=".... ..0. = Message Priority (MP): False" size="1" pos="44" show="0" value="0" unmaskedvalue="20"/>
      <field name="pfcp.s" showname=".... ...0 = SEID (S): False" size="1" pos="44" show="0" value="0" unmaskedvalue="20"/>
    </field>
    <field name="pfcp.msg_type" showname="Message Type: PFCP Heartbeat Response (2)" size="1" pos="45" show="2" value="02"/>
    <field name="pfcp.length" showname="Length: 12" size="2" pos="46" show="12" value="000c"/>
    <field name="pfcp.seqno" showname="Sequence Number: 2460" size="3" pos="48" show="2460" value="00099c"/>
    <field name="pfcp.spare_oct" showname="Spare: 0" size="1" pos="51" show="0" value="00"/>
    <field name="" show="Recovery Time Stamp : Dec  8, 2022 14:26:24.000000000 UTC" size="8" pos="52" value="00600004e73c7290">
      <field name="pfcp.ie_type" showname="IE Type: Recovery Time Stamp (96)" size="2" pos="52" show="96" value="0060"/>
      <field name="pfcp.ie_len" showname="IE Length: 4" size="2" pos="54" show="4" value="0004"/>
      <field name="pfcp.recovery_time_stamp" showname="Recovery Time Stamp: Dec  8, 2022 14:26:24.000000000 UTC" size="4" pos="56" show="Dec  8, 2022 15:26:24.000000000 CET" value="e73c7290"/>
    </field>
    <field name="pfcp.response_to" showname="Response To: 24243" size="0" pos="44" show="24243"/>
    <field name="pfcp.response_time" showname="Response Time: 0.000093837 seconds" size="0" pos="44" show="0.000093837"/>
  </proto>
</packet>


<packet>
  <proto name="geninfo" pos="0" showname="General information" size="60">
    <field name="num" pos="0" show="25769" showname="Number" value="64a9" size="60"/>
    <field name="len" pos="0" show="60" showname="Frame Length" value="3c" size="60"/>
    <field name="caplen" pos="0" show="60" showname="Captured Length" value="3c" size="60"/>
    <field name="timestamp" pos="0" show="Dec  9, 2022 18:43:21.549514969 CET" showname="Captured Time" value="1670607801.549514969" size="60"/>
  </proto>
  <proto name="frame" showname="Frame 25769: 60 bytes on wire (480 bits), 60 bytes captured (480 bits) on interface any, id 0" size="60" pos="0">
    <field name="filtered" value="frame" />
  </proto>
  <proto name="sll" showname="Linux cooked capture" size="16" pos="0">
    <field name="filtered" value="sll" />
  </proto>
  <proto name="ip" showname="Internet Protocol Version 4, Src: 127.0.0.7, Dst: 127.0.0.4" size="20" pos="16">
    <field name="filtered" value="ip" />
  </proto>
  <proto name="udp" showname="User Datagram Protocol, Src Port: 8805, Dst Port: 8805" size="8" pos="36">
    <field name="filtered" value="udp" />
  </proto>
  <proto name="pfcp" showname="Packet Forwarding Control Protocol" size="16" pos="44">
    <field name="pfcp.flags" showname="Flags: 0x20" size="1" pos="44" show="0x00000020" value="20">
      <field name="pfcp.version" showname="001. .... = Version: 1" size="1" pos="44" show="1" value="1" unmaskedvalue="20"/>
      <field name="pfcp.spare_b4" showname="...0 .... = Spare: 0" size="1" pos="44" show="0" value="0" unmaskedvalue="20"/>
      <field name="pfcp.spare_b3" showname=".... 0... = Spare: 0" size="1" pos="44" show="0" value="0" unmaskedvalue="20"/>
      <field name="pfcp.spare_b2" showname=".... .0.. = Spare: 0" size="1" pos="44" show="0" value="0" unmaskedvalue="20"/>
      <field name="pfcp.mp_flag" showname=".... ..0. = Message Priority (MP): False" size="1" pos="44" show="0" value="0" unmaskedvalue="20"/>
      <field name="pfcp.s" showname=".... ...0 = SEID (S): False" size="1" pos="44" show="0" value="0" unmaskedvalue="20"/>
    </field>
    <field name="pfcp.msg_type" showname="Message Type: PFCP Heartbeat Request (1)" size="1" pos="45" show="1" value="01"/>
    <field name="pfcp.length" showname="Length: 12" size="2" pos="46" show="12" value="000c"/>
    <field name="pfcp.seqno" showname="Sequence Number: 2457" size="3" pos="48" show="2457" value="000999"/>
    <field name="pfcp.spare_oct" showname="Spare: 0" size="1" pos="51" show="0" value="00"/>
    <field name="" show="Recovery Time Stamp : Dec  8, 2022 14:26:24.000000000 UTC" size="8" pos="52" value="00600004e73c7290">
      <field name="pfcp.ie_type" showname="IE Type: Recovery Time Stamp (96)" size="2" pos="52" show="96" value="0060"/>
      <field name="pfcp.ie_len" showname="IE Length: 4" size="2" pos="54" show="4" value="0004"/>
      <field name="pfcp.recovery_time_stamp" showname="Recovery Time Stamp: Dec  8, 2022 14:26:24.000000000 UTC" size="4" pos="56" show="Dec  8, 2022 15:26:24.000000000 CET" value="e73c7290"/>
    </field>
    <field name="pfcp.response_in" showname="Response In: 25770" size="0" pos="44" show="25770"/>
  </proto>
</packet>


<packet>
  <proto name="geninfo" pos="0" showname="General information" size="60">
    <field name="num" pos="0" show="25770" showname="Number" value="64aa" size="60"/>
    <field name="len" pos="0" show="60" showname="Frame Length" value="3c" size="60"/>
    <field name="caplen" pos="0" show="60" showname="Captured Length" value="3c" size="60"/>
    <field name="timestamp" pos="0" show="Dec  9, 2022 18:43:21.550714006 CET" showname="Captured Time" value="1670607801.550714006" size="60"/>
  </proto>
  <proto name="frame" showname="Frame 25770: 60 bytes on wire (480 bits), 60 bytes captured (480 bits) on interface any, id 0" size="60" pos="0">
    <field name="filtered" value="frame" />
  </proto>
  <proto name="sll" showname="Linux cooked capture" size="16" pos="0">
    <field name="filtered" value="sll" />
  </proto>
  <proto name="ip" showname="Internet Protocol Version 4, Src: 127.0.0.4, Dst: 127.0.0.7" size="20" pos="16">
    <field name="filtered" value="ip" />
  </proto>
  <proto name="udp" showname="User Datagram Protocol, Src Port: 8805, Dst Port: 8805" size="8" pos="36">
    <field name="filtered" value="udp" />
  </proto>
  <proto name="pfcp" showname="Packet Forwarding Control Protocol" size="16" pos="44">
    <field name="pfcp.flags" showname="Flags: 0x20" size="1" pos="44" show="0x00000020" value="20">
      <field name="pfcp.version" showname="001. .... = Version: 1" size="1" pos="44" show="1" value="1" unmaskedvalue="20"/>
      <field name="pfcp.spare_b4" showname="...0 .... = Spare: 0" size="1" pos="44" show="0" value="0" unmaskedvalue="20"/>
      <field name="pfcp.spare_b3" showname=".... 0... = Spare: 0" size="1" pos="44" show="0" value="0" unmaskedvalue="20"/>
      <field name="pfcp.spare_b2" showname=".... .0.. = Spare: 0" size="1" pos="44" show="0" value="0" unmaskedvalue="20"/>
      <field name="pfcp.mp_flag" showname=".... ..0. = Message Priority (MP): False" size="1" pos="44" show="0" value="0" unmaskedvalue="20"/>
      <field name="pfcp.s" showname=".... ...0 = SEID (S): False" size="1" pos="44" show="0" value="0" unmaskedvalue="20"/>
    </field>
    <field name="pfcp.msg_type" showname="Message Type: PFCP Heartbeat Response (2)" size="1" pos="45" show="2" value="02"/>
    <field name="pfcp.length" showname="Length: 12" size="2" pos="46" show="12" value="000c"/>
    <field name="pfcp.seqno" showname="Sequence Number: 2457" size="3" pos="48" show="2457" value="000999"/>
    <field name="pfcp.spare_oct" showname="Spare: 0" size="1" pos="51" show="0" value="00"/>
    <field name="" show="Recovery Time Stamp : Dec  8, 2022 14:26:24.000000000 UTC" size="8" pos="52" value="00600004e73c7290">
      <field name="pfcp.ie_type" showname="IE Type: Recovery Time Stamp (96)" size="2" pos="52" show="96" value="0060"/>
      <field name="pfcp.ie_len" showname="IE Length: 4" size="2" pos="54" show="4" value="0004"/>
      <field name="pfcp.recovery_time_stamp" showname="Recovery Time Stamp: Dec  8, 2022 14:26:24.000000000 UTC" size="4" pos="56" show="Dec  8, 2022 15:26:24.000000000 CET" value="e73c7290"/>
    </field>
    <field name="pfcp.response_to" showname="Response To: 25769" size="0" pos="44" show="25769"/>
    <field name="pfcp.response_time" showname="Response Time: 0.001199037 seconds" size="0" pos="44" show="0.001199037"/>
  </proto>
</packet>


<packet>
  <proto name="geninfo" pos="0" showname="General information" size="60">
    <field name="num" pos="0" show="25771" showname="Number" value="64ab" size="60"/>
    <field name="len" pos="0" show="60" showname="Frame Length" value="3c" size="60"/>
    <field name="caplen" pos="0" show="60" showname="Captured Length" value="3c" size="60"/>
    <field name="timestamp" pos="0" show="Dec  9, 2022 18:43:21.550759998 CET" showname="Captured Time" value="1670607801.550759998" size="60"/>
  </proto>
  <proto name="frame" showname="Frame 25771: 60 bytes on wire (480 bits), 60 bytes captured (480 bits) on interface any, id 0" size="60" pos="0">
    <field name="filtered" value="frame" />
  </proto>
  <proto name="sll" showname="Linux cooked capture" size="16" pos="0">
    <field name="filtered" value="sll" />
  </proto>
  <proto name="ip" showname="Internet Protocol Version 4, Src: 127.0.0.4, Dst: 127.0.0.7" size="20" pos="16">
    <field name="filtered" value="ip" />
  </proto>
  <proto name="udp" showname="User Datagram Protocol, Src Port: 8805, Dst Port: 8805" size="8" pos="36">
    <field name="filtered" value="udp" />
  </proto>
  <proto name="pfcp" showname="Packet Forwarding Control Protocol" size="16" pos="44">
    <field name="pfcp.flags" showname="Flags: 0x20" size="1" pos="44" show="0x00000020" value="20">
      <field name="pfcp.version" showname="001. .... = Version: 1" size="1" pos="44" show="1" value="1" unmaskedvalue="20"/>
      <field name="pfcp.spare_b4" showname="...0 .... = Spare: 0" size="1" pos="44" show="0" value="0" unmaskedvalue="20"/>
      <field name="pfcp.spare_b3" showname=".... 0... = Spare: 0" size="1" pos="44" show="0" value="0" unmaskedvalue="20"/>
      <field name="pfcp.spare_b2" showname=".... .0.. = Spare: 0" size="1" pos="44" show="0" value="0" unmaskedvalue="20"/>
      <field name="pfcp.mp_flag" showname=".... ..0. = Message Priority (MP): False" size="1" pos="44" show="0" value="0" unmaskedvalue="20"/>
      <field name="pfcp.s" showname=".... ...0 = SEID (S): False" size="1" pos="44" show="0" value="0" unmaskedvalue="20"/>
    </field>
    <field name="pfcp.msg_type" showname="Message Type: PFCP Heartbeat Request (1)" size="1" pos="45" show="1" value="01"/>
    <field name="pfcp.length" showname="Length: 12" size="2" pos="46" show="12" value="000c"/>
    <field name="pfcp.seqno" showname="Sequence Number: 2724" size="3" pos="48" show="2724" value="000aa4"/>
    <field name="pfcp.spare_oct" showname="Spare: 0" size="1" pos="51" show="0" value="00"/>
    <field name="" show="Recovery Time Stamp : Dec  8, 2022 14:26:24.000000000 UTC" size="8" pos="52" value="00600004e73c7290">
      <field name="pfcp.ie_type" showname="IE Type: Recovery Time Stamp (96)" size="2" pos="52" show="96" value="0060"/>
      <field name="pfcp.ie_len" showname="IE Length: 4" size="2" pos="54" show="4" value="0004"/>
      <field name="pfcp.recovery_time_stamp" showname="Recovery Time Stamp: Dec  8, 2022 14:26:24.000000000 UTC" size="4" pos="56" show="Dec  8, 2022 15:26:24.000000000 CET" value="e73c7290"/>
    </field>
    <field name="pfcp.response_in" showname="Response In: 25772" size="0" pos="44" show="25772"/>
  </proto>
</packet>


<packet>
  <proto name="geninfo" pos="0" showname="General information" size="60">
    <field name="num" pos="0" show="25772" showname="Number" value="64ac" size="60"/>
    <field name="len" pos="0" show="60" showname="Frame Length" value="3c" size="60"/>
    <field name="caplen" pos="0" show="60" showname="Captured Length" value="3c" size="60"/>
    <field name="timestamp" pos="0" show="Dec  9, 2022 18:43:21.550886573 CET" showname="Captured Time" value="1670607801.550886573" size="60"/>
  </proto>
  <proto name="frame" showname="Frame 25772: 60 bytes on wire (480 bits), 60 bytes captured (480 bits) on interface any, id 0" size="60" pos="0">
    <field name="filtered" value="frame" />
  </proto>
  <proto name="sll" showname="Linux cooked capture" size="16" pos="0">
    <field name="filtered" value="sll" />
  </proto>
  <proto name="ip" showname="Internet Protocol Version 4, Src: 127.0.0.7, Dst: 127.0.0.4" size="20" pos="16">
    <field name="filtered" value="ip" />
  </proto>
  <proto name="udp" showname="User Datagram Protocol, Src Port: 8805, Dst Port: 8805" size="8" pos="36">
    <field name="filtered" value="udp" />
  </proto>
  <proto name="pfcp" showname="Packet Forwarding Control Protocol" size="16" pos="44">
    <field name="pfcp.flags" showname="Flags: 0x20" size="1" pos="44" show="0x00000020" value="20">
      <field name="pfcp.version" showname="001. .... = Version: 1" size="1" pos="44" show="1" value="1" unmaskedvalue="20"/>
      <field name="pfcp.spare_b4" showname="...0 .... = Spare: 0" size="1" pos="44" show="0" value="0" unmaskedvalue="20"/>
      <field name="pfcp.spare_b3" showname=".... 0... = Spare: 0" size="1" pos="44" show="0" value="0" unmaskedvalue="20"/>
      <field name="pfcp.spare_b2" showname=".... .0.. = Spare: 0" size="1" pos="44" show="0" value="0" unmaskedvalue="20"/>
      <field name="pfcp.mp_flag" showname=".... ..0. = Message Priority (MP): False" size="1" pos="44" show="0" value="0" unmaskedvalue="20"/>
      <field name="pfcp.s" showname=".... ...0 = SEID (S): False" size="1" pos="44" show="0" value="0" unmaskedvalue="20"/>
    </field>
    <field name="pfcp.msg_type" showname="Message Type: PFCP Heartbeat Response (2)" size="1" pos="45" show="2" value="02"/>
    <field name="pfcp.length" showname="Length: 12" size="2" pos="46" show="12" value="000c"/>
    <field name="pfcp.seqno" showname="Sequence Number: 2724" size="3" pos="48" show="2724" value="000aa4"/>
    <field name="pfcp.spare_oct" showname="Spare: 0" size="1" pos="51" show="0" value="00"/>
    <field name="" show="Recovery Time Stamp : Dec  8, 2022 14:26:24.000000000 UTC" size="8" pos="52" value="00600004e73c7290">
      <field name="pfcp.ie_type" showname="IE Type: Recovery Time Stamp (96)" size="2" pos="52" show="96" value="0060"/>
      <field name="pfcp.ie_len" showname="IE Length: 4" size="2" pos="54" show="4" value="0004"/>
      <field name="pfcp.recovery_time_stamp" showname="Recovery Time Stamp: Dec  8, 2022 14:26:24.000000000 UTC" size="4" pos="56" show="Dec  8, 2022 15:26:24.000000000 CET" value="e73c7290"/>
    </field>
    <field name="pfcp.response_to" showname="Response To: 25771" size="0" pos="44" show="25771"/>
    <field name="pfcp.response_time" showname="Response Time: 0.000126575 seconds" size="0" pos="44" show="0.000126575"/>
  </proto>
</packet>


<packet>
  <proto name="geninfo" pos="0" showname="General information" size="60">
    <field name="num" pos="0" show="25774" showname="Number" value="64ae" size="60"/>
    <field name="len" pos="0" show="60" showname="Frame Length" value="3c" size="60"/>
    <field name="caplen" pos="0" show="60" showname="Captured Length" value="3c" size="60"/>
    <field name="timestamp" pos="0" show="Dec  9, 2022 18:43:21.577135317 CET" showname="Captured Time" value="1670607801.577135317" size="60"/>
  </proto>
  <proto name="frame" showname="Frame 25774: 60 bytes on wire (480 bits), 60 bytes captured (480 bits) on interface any, id 0" size="60" pos="0">
    <field name="filtered" value="frame" />
  </proto>
  <proto name="sll" showname="Linux cooked capture" size="16" pos="0">
    <field name="filtered" value="sll" />
  </proto>
  <proto name="ip" showname="Internet Protocol Version 4, Src: 127.0.0.6, Dst: 127.0.0.3" size="20" pos="16">
    <field name="filtered" value="ip" />
  </proto>
  <proto name="udp" showname="User Datagram Protocol, Src Port: 8805, Dst Port: 8805" size="8" pos="36">
    <field name="filtered" value="udp" />
  </proto>
  <proto name="pfcp" showname="Packet Forwarding Control Protocol" size="16" pos="44">
    <field name="pfcp.flags" showname="Flags: 0x20" size="1" pos="44" show="0x00000020" value="20">
      <field name="pfcp.version" showname="001. .... = Version: 1" size="1" pos="44" show="1" value="1" unmaskedvalue="20"/>
      <field name="pfcp.spare_b4" showname="...0 .... = Spare: 0" size="1" pos="44" show="0" value="0" unmaskedvalue="20"/>
      <field name="pfcp.spare_b3" showname=".... 0... = Spare: 0" size="1" pos="44" show="0" value="0" unmaskedvalue="20"/>
      <field name="pfcp.spare_b2" showname=".... .0.. = Spare: 0" size="1" pos="44" show="0" value="0" unmaskedvalue="20"/>
      <field name="pfcp.mp_flag" showname=".... ..0. = Message Priority (MP): False" size="1" pos="44" show="0" value="0" unmaskedvalue="20"/>
      <field name="pfcp.s" showname=".... ...0 = SEID (S): False" size="1" pos="44" show="0" value="0" unmaskedvalue="20"/>
    </field>
    <field name="pfcp.msg_type" showname="Message Type: PFCP Heartbeat Request (1)" size="1" pos="45" show="1" value="01"/>
    <field name="pfcp.length" showname="Length: 12" size="2" pos="46" show="12" value="000c"/>
    <field name="pfcp.seqno" showname="Sequence Number: 2461" size="3" pos="48" show="2461" value="00099d"/>
    <field name="pfcp.spare_oct" showname="Spare: 0" size="1" pos="51" show="0" value="00"/>
    <field name="" show="Recovery Time Stamp : Dec  8, 2022 14:26:24.000000000 UTC" size="8" pos="52" value="00600004e73c7290">
      <field name="pfcp.ie_type" showname="IE Type: Recovery Time Stamp (96)" size="2" pos="52" show="96" value="0060"/>
      <field name="pfcp.ie_len" showname="IE Length: 4" size="2" pos="54" show="4" value="0004"/>
      <field name="pfcp.recovery_time_stamp" showname="Recovery Time Stamp: Dec  8, 2022 14:26:24.000000000 UTC" size="4" pos="56" show="Dec  8, 2022 15:26:24.000000000 CET" value="e73c7290"/>
    </field>
    <field name="pfcp.response_in" showname="Response In: 25775" size="0" pos="44" show="25775"/>
  </proto>
</packet>


<packet>
  <proto name="geninfo" pos="0" showname="General information" size="60">
    <field name="num" pos="0" show="25775" showname="Number" value="64af" size="60"/>
    <field name="len" pos="0" show="60" showname="Frame Length" value="3c" size="60"/>
    <field name="caplen" pos="0" show="60" showname="Captured Length" value="3c" size="60"/>
    <field name="timestamp" pos="0" show="Dec  9, 2022 18:43:21.577206839 CET" showname="Captured Time" value="1670607801.577206839" size="60"/>
  </proto>
  <proto name="frame" showname="Frame 25775: 60 bytes on wire (480 bits), 60 bytes captured (480 bits) on interface any, id 0" size="60" pos="0">
    <field name="filtered" value="frame" />
  </proto>
  <proto name="sll" showname="Linux cooked capture" size="16" pos="0">
    <field name="filtered" value="sll" />
  </proto>
  <proto name="ip" showname="Internet Protocol Version 4, Src: 127.0.0.3, Dst: 127.0.0.6" size="20" pos="16">
    <field name="filtered" value="ip" />
  </proto>
  <proto name="udp" showname="User Datagram Protocol, Src Port: 8805, Dst Port: 8805" size="8" pos="36">
    <field name="filtered" value="udp" />
  </proto>
  <proto name="pfcp" showname="Packet Forwarding Control Protocol" size="16" pos="44">
    <field name="pfcp.flags" showname="Flags: 0x20" size="1" pos="44" show="0x00000020" value="20">
      <field name="pfcp.version" showname="001. .... = Version: 1" size="1" pos="44" show="1" value="1" unmaskedvalue="20"/>
      <field name="pfcp.spare_b4" showname="...0 .... = Spare: 0" size="1" pos="44" show="0" value="0" unmaskedvalue="20"/>
      <field name="pfcp.spare_b3" showname=".... 0... = Spare: 0" size="1" pos="44" show="0" value="0" unmaskedvalue="20"/>
      <field name="pfcp.spare_b2" showname=".... .0.. = Spare: 0" size="1" pos="44" show="0" value="0" unmaskedvalue="20"/>
      <field name="pfcp.mp_flag" showname=".... ..0. = Message Priority (MP): False" size="1" pos="44" show="0" value="0" unmaskedvalue="20"/>
      <field name="pfcp.s" showname=".... ...0 = SEID (S): False" size="1" pos="44" show="0" value="0" unmaskedvalue="20"/>
    </field>
    <field name="pfcp.msg_type" showname="Message Type: PFCP Heartbeat Response (2)" size="1" pos="45" show="2" value="02"/>
    <field name="pfcp.length" showname="Length: 12" size="2" pos="46" show="12" value="000c"/>
    <field name="pfcp.seqno" showname="Sequence Number: 2461" size="3" pos="48" show="2461" value="00099d"/>
    <field name="pfcp.spare_oct" showname="Spare: 0" size="1" pos="51" show="0" value="00"/>
    <field name="" show="Recovery Time Stamp : Dec  8, 2022 14:26:24.000000000 UTC" size="8" pos="52" value="00600004e73c7290">
      <field name="pfcp.ie_type" showname="IE Type: Recovery Time Stamp (96)" size="2" pos="52" show="96" value="0060"/>
      <field name="pfcp.ie_len" showname="IE Length: 4" size="2" pos="54" show="4" value="0004"/>
      <field name="pfcp.recovery_time_stamp" showname="Recovery Time Stamp: Dec  8, 2022 14:26:24.000000000 UTC" size="4" pos="56" show="Dec  8, 2022 15:26:24.000000000 CET" value="e73c7290"/>
    </field>
    <field name="pfcp.response_to" showname="Response To: 25774" size="0" pos="44" show="25774"/>
    <field name="pfcp.response_time" showname="Response Time: 0.000071522 seconds" size="0" pos="44" show="0.000071522"/>
  </proto>
</packet>


<packet>
  <proto name="geninfo" pos="0" showname="General information" size="60">
    <field name="num" pos="0" show="25776" showname="Number" value="64b0" size="60"/>
    <field name="len" pos="0" show="60" showname="Frame Length" value="3c" size="60"/>
    <field name="caplen" pos="0" show="60" showname="Captured Length" value="3c" size="60"/>
    <field name="timestamp" pos="0" show="Dec  9, 2022 18:43:21.577225520 CET" showname="Captured Time" value="1670607801.577225520" size="60"/>
  </proto>
  <proto name="frame" showname="Frame 25776: 60 bytes on wire (480 bits), 60 bytes captured (480 bits) on interface any, id 0" size="60" pos="0">
    <field name="filtered" value="frame" />
  </proto>
  <proto name="sll" showname="Linux cooked capture" size="16" pos="0">
    <field name="filtered" value="sll" />
  </proto>
  <proto name="ip" showname="Internet Protocol Version 4, Src: 127.0.0.3, Dst: 127.0.0.6" size="20" pos="16">
    <field name="filtered" value="ip" />
  </proto>
  <proto name="udp" showname="User Datagram Protocol, Src Port: 8805, Dst Port: 8805" size="8" pos="36">
    <field name="filtered" value="udp" />
  </proto>
  <proto name="pfcp" showname="Packet Forwarding Control Protocol" size="16" pos="44">
    <field name="pfcp.flags" showname="Flags: 0x20" size="1" pos="44" show="0x00000020" value="20">
      <field name="pfcp.version" showname="001. .... = Version: 1" size="1" pos="44" show="1" value="1" unmaskedvalue="20"/>
      <field name="pfcp.spare_b4" showname="...0 .... = Spare: 0" size="1" pos="44" show="0" value="0" unmaskedvalue="20"/>
      <field name="pfcp.spare_b3" showname=".... 0... = Spare: 0" size="1" pos="44" show="0" value="0" unmaskedvalue="20"/>
      <field name="pfcp.spare_b2" showname=".... .0.. = Spare: 0" size="1" pos="44" show="0" value="0" unmaskedvalue="20"/>
      <field name="pfcp.mp_flag" showname=".... ..0. = Message Priority (MP): False" size="1" pos="44" show="0" value="0" unmaskedvalue="20"/>
      <field name="pfcp.s" showname=".... ...0 = SEID (S): False" size="1" pos="44" show="0" value="0" unmaskedvalue="20"/>
    </field>
    <field name="pfcp.msg_type" showname="Message Type: PFCP Heartbeat Request (1)" size="1" pos="45" show="1" value="01"/>
    <field name="pfcp.length" showname="Length: 12" size="2" pos="46" show="12" value="000c"/>
    <field name="pfcp.seqno" showname="Sequence Number: 2461" size="3" pos="48" show="2461" value="00099d"/>
    <field name="pfcp.spare_oct" showname="Spare: 0" size="1" pos="51" show="0" value="00"/>
    <field name="" show="Recovery Time Stamp : Dec  8, 2022 14:26:24.000000000 UTC" size="8" pos="52" value="00600004e73c7290">
      <field name="pfcp.ie_type" showname="IE Type: Recovery Time Stamp (96)" size="2" pos="52" show="96" value="0060"/>
      <field name="pfcp.ie_len" showname="IE Length: 4" size="2" pos="54" show="4" value="0004"/>
      <field name="pfcp.recovery_time_stamp" showname="Recovery Time Stamp: Dec  8, 2022 14:26:24.000000000 UTC" size="4" pos="56" show="Dec  8, 2022 15:26:24.000000000 CET" value="e73c7290"/>
    </field>
    <field name="pfcp.response_in" showname="Response In: 25777" size="0" pos="44" show="25777"/>
  </proto>
</packet>


<packet>
  <proto name="geninfo" pos="0" showname="General information" size="60">
    <field name="num" pos="0" show="25777" showname="Number" value="64b1" size="60"/>
    <field name="len" pos="0" show="60" showname="Frame Length" value="3c" size="60"/>
    <field name="caplen" pos="0" show="60" showname="Captured Length" value="3c" size="60"/>
    <field name="timestamp" pos="0" show="Dec  9, 2022 18:43:21.577280502 CET" showname="Captured Time" value="1670607801.577280502" size="60"/>
  </proto>
  <proto name="frame" showname="Frame 25777: 60 bytes on wire (480 bits), 60 bytes captured (480 bits) on interface any, id 0" size="60" pos="0">
    <field name="filtered" value="frame" />
  </proto>
  <proto name="sll" showname="Linux cooked capture" size="16" pos="0">
    <field name="filtered" value="sll" />
  </proto>
  <proto name="ip" showname="Internet Protocol Version 4, Src: 127.0.0.6, Dst: 127.0.0.3" size="20" pos="16">
    <field name="filtered" value="ip" />
  </proto>
  <proto name="udp" showname="User Datagram Protocol, Src Port: 8805, Dst Port: 8805" size="8" pos="36">
    <field name="filtered" value="udp" />
  </proto>
  <proto name="pfcp" showname="Packet Forwarding Control Protocol" size="16" pos="44">
    <field name="pfcp.flags" showname="Flags: 0x20" size="1" pos="44" show="0x00000020" value="20">
      <field name="pfcp.version" showname="001. .... = Version: 1" size="1" pos="44" show="1" value="1" unmaskedvalue="20"/>
      <field name="pfcp.spare_b4" showname="...0 .... = Spare: 0" size="1" pos="44" show="0" value="0" unmaskedvalue="20"/>
      <field name="pfcp.spare_b3" showname=".... 0... = Spare: 0" size="1" pos="44" show="0" value="0" unmaskedvalue="20"/>
      <field name="pfcp.spare_b2" showname=".... .0.. = Spare: 0" size="1" pos="44" show="0" value="0" unmaskedvalue="20"/>
      <field name="pfcp.mp_flag" showname=".... ..0. = Message Priority (MP): False" size="1" pos="44" show="0" value="0" unmaskedvalue="20"/>
      <field name="pfcp.s" showname=".... ...0 = SEID (S): False" size="1" pos="44" show="0" value="0" unmaskedvalue="20"/>
    </field>
    <field name="pfcp.msg_type" showname="Message Type: PFCP Heartbeat Response (2)" size="1" pos="45" show="2" value="02"/>
    <field name="pfcp.length" showname="Length: 12" size="2" pos="46" show="12" value="000c"/>
    <field name="pfcp.seqno" showname="Sequence Number: 2461" size="3" pos="48" show="2461" value="00099d"/>
    <field name="pfcp.spare_oct" showname="Spare: 0" size="1" pos="51" show="0" value="00"/>
    <field name="" show="Recovery Time Stamp : Dec  8, 2022 14:26:24.000000000 UTC" size="8" pos="52" value="00600004e73c7290">
      <field name="pfcp.ie_type" showname="IE Type: Recovery Time Stamp (96)" size="2" pos="52" show="96" value="0060"/>
      <field name="pfcp.ie_len" showname="IE Length: 4" size="2" pos="54" show="4" value="0004"/>
      <field name="pfcp.recovery_time_stamp" showname="Recovery Time Stamp: Dec  8, 2022 14:26:24.000000000 UTC" size="4" pos="56" show="Dec  8, 2022 15:26:24.000000000 CET" value="e73c7290"/>
    </field>
    <field name="pfcp.response_to" showname="Response To: 25776" size="0" pos="44" show="25776"/>
    <field name="pfcp.response_time" showname="Response Time: 0.000054982 seconds" size="0" pos="44" show="0.000054982"/>
  </proto>
</packet>


</pdml>
