<?xml version="1.0" encoding="utf-8"?>
<?xml-stylesheet type="text/xsl" href="pdml2html.xsl"?>
<!-- You can find pdml2html.xsl in /usr/share/wireshark or at https://code.wireshark.org/review/gitweb?p=wireshark.git;a=blob_plain;f=pdml2html.xsl. -->
<pdml version="0" creator="wireshark/3.2.3" time="Wed May 24 21:25:07 2023" capture_file="/home/lily/5G/PCAPS/Core/syn_ack.pcapng">
<packet>
  <proto name="geninfo" pos="0" showname="General information" size="74">
    <field name="num" pos="0" show="1" showname="Number" value="1" size="74"/>
    <field name="len" pos="0" show="74" showname="Frame Length" value="4a" size="74"/>
    <field name="caplen" pos="0" show="74" showname="Captured Length" value="4a" size="74"/>
    <field name="timestamp" pos="0" show="May 24, 2023 20:26:18.110763717 CEST" showname="Captured Time" value="1684952778.110763717" size="74"/>
  </proto>
  <proto name="frame" showname="Frame 1: 74 bytes on wire (592 bits), 74 bytes captured (592 bits) on interface veth_nssf, id 0" size="74" pos="0">
    <field name="filtered" value="frame" />
  </proto>
  <proto name="eth" showname="Ethernet II, Src: da:73:09:fb:97:ae, Dst: 7a:24:b4:3d:64:76" size="14" pos="0">
    <field name="filtered" value="eth" />
  </proto>
  <proto name="ip" showname="Internet Protocol Version 4, Src: 10.0.6.1, Dst: 10.0.9.1" size="20" pos="14">
    <field name="filtered" value="ip" />
  </proto>
  <proto name="tcp" showname="Transmission Control Protocol, Src Port: 40740, Dst Port: 7777, Seq: 4090257148, Len: 0" size="40" pos="34">
    <field name="tcp.srcport" showname="Source Port: 40740" size="2" pos="34" show="40740" value="9f24"/>
    <field name="tcp.dstport" showname="Destination Port: 7777" size="2" pos="36" show="7777" value="1e61"/>
    <field name="tcp.port" showname="Source or Destination Port: 40740" hide="yes" size="2" pos="34" show="40740" value="9f24"/>
    <field name="tcp.port" showname="Source or Destination Port: 7777" hide="yes" size="2" pos="36" show="7777" value="1e61"/>
    <field name="tcp.stream" showname="Stream index: 0" size="0" pos="34" show="0"/>
    <field name="tcp.len" showname="TCP Segment Len: 0" size="1" pos="46" show="0" value="a0"/>
    <field name="tcp.seq" showname="Sequence number: 4090257148" size="4" pos="38" show="4090257148" value="f3cc5efc"/>
    <field name="tcp.seq_raw" showname="Sequence number (raw): 4090257148" hide="yes" size="4" pos="38" show="4090257148" value="f3cc5efc"/>
    <field name="tcp.nxtseq" showname="Next sequence number: 4090257149" size="0" pos="34" show="4090257149"/>
    <field name="tcp.ack" showname="Acknowledgment number: 0" size="4" pos="42" show="0" value="00000000"/>
    <field name="tcp.ack_raw" showname="Acknowledgment number (raw): 0" size="4" pos="42" show="0" value="00000000"/>
    <field name="tcp.hdr_len" showname="1010 .... = Header Length: 40 bytes (10)" size="1" pos="46" show="40" value="a0"/>
    <field name="tcp.flags" showname="Flags: 0x002 (SYN)" size="2" pos="46" show="0x00000002" value="2" unmaskedvalue="a002">
      <field name="tcp.flags.res" showname="000. .... .... = Reserved: Not set" size="1" pos="46" show="0" value="0" unmaskedvalue="a0"/>
      <field name="tcp.flags.ns" showname="...0 .... .... = Nonce: Not set" size="1" pos="46" show="0" value="0" unmaskedvalue="a0"/>
      <field name="tcp.flags.cwr" showname=".... 0... .... = Congestion Window Reduced (CWR): Not set" size="1" pos="47" show="0" value="0" unmaskedvalue="02"/>
      <field name="tcp.flags.ecn" showname=".... .0.. .... = ECN-Echo: Not set" size="1" pos="47" show="0" value="0" unmaskedvalue="02"/>
      <field name="tcp.flags.urg" showname=".... ..0. .... = Urgent: Not set" size="1" pos="47" show="0" value="0" unmaskedvalue="02"/>
      <field name="tcp.flags.ack" showname=".... ...0 .... = Acknowledgment: Not set" size="1" pos="47" show="0" value="0" unmaskedvalue="02"/>
      <field name="tcp.flags.push" showname=".... .... 0... = Push: Not set" size="1" pos="47" show="0" value="0" unmaskedvalue="02"/>
      <field name="tcp.flags.reset" showname=".... .... .0.. = Reset: Not set" size="1" pos="47" show="0" value="0" unmaskedvalue="02"/>
      <field name="tcp.flags.syn" showname=".... .... ..1. = Syn: Set" size="1" pos="47" show="1" value="1" unmaskedvalue="02">
        <field name="_ws.expert" showname="Expert Info (Chat/Sequence): Connection establish request (SYN): server port 7777" size="0" pos="47">
          <field name="tcp.connection.syn" showname="Connection establish request (SYN): server port 7777" size="0" pos="0" show="" value=""/>
          <field name="_ws.expert.message" showname="Message: Connection establish request (SYN): server port 7777" hide="yes" size="0" pos="0" show="Connection establish request (SYN): server port 7777"/>
          <field name="_ws.expert.severity" showname="Severity level: Chat" size="0" pos="0" show="2097152"/>
          <field name="_ws.expert.group" showname="Group: Sequence" size="0" pos="0" show="33554432"/>
        </field>
      </field>
      <field name="tcp.flags.fin" showname=".... .... ...0 = Fin: Not set" size="1" pos="47" show="0" value="0" unmaskedvalue="02"/>
      <field name="tcp.flags.str" showname="TCP Flags: \xc2\xb7\xc2\xb7\xc2\xb7\xc2\xb7\xc2\xb7\xc2\xb7\xc2\xb7\xc2\xb7\xc2\xb7\xc2\xb7S\xc2\xb7" size="2" pos="46" show="\xc2\xb7\xc2\xb7\xc2\xb7\xc2\xb7\xc2\xb7\xc2\xb7\xc2\xb7\xc2\xb7\xc2\xb7\xc2\xb7S\xc2\xb7" value="a002"/>
    </field>
    <field name="tcp.window_size_value" showname="Window size value: 64240" size="2" pos="48" show="64240" value="faf0"/>
    <field name="tcp.window_size" showname="Calculated window size: 64240" size="2" pos="48" show="64240" value="faf0"/>
    <field name="tcp.checksum" showname="Checksum: 0x2330 [unverified]" size="2" pos="50" show="0x00002330" value="2330"/>
    <field name="tcp.checksum.status" showname="Checksum Status: Unverified" size="0" pos="50" show="2"/>
    <field name="tcp.urgent_pointer" showname="Urgent pointer: 0" size="2" pos="52" show="0" value="0000"/>
    <field name="tcp.options" showname="Options: (20 bytes), Maximum segment size, SACK permitted, Timestamps, No-Operation (NOP), Window scale" size="20" pos="54" show="02:04:05:b4:04:02:08:0a:19:75:fd:77:00:00:00:00:01:03:03:07" value="020405b40402080a1975fd770000000001030307">
      <field name="tcp.options.mss" showname="TCP Option - Maximum segment size: 1460 bytes" size="4" pos="54" show="02:04:05:b4" value="020405b4">
        <field name="tcp.option_kind" showname="Kind: Maximum Segment Size (2)" size="1" pos="54" show="2" value="02"/>
        <field name="tcp.option_len" showname="Length: 4" size="1" pos="55" show="4" value="04"/>
        <field name="tcp.options.mss_val" showname="MSS Value: 1460" size="2" pos="56" show="1460" value="05b4"/>
      </field>
      <field name="tcp.options.sack_perm" showname="TCP Option - SACK permitted" size="2" pos="58" show="04:02" value="0402">
        <field name="tcp.option_kind" showname="Kind: SACK Permitted (4)" size="1" pos="58" show="4" value="04"/>
        <field name="tcp.option_len" showname="Length: 2" size="1" pos="59" show="2" value="02"/>
      </field>
      <field name="tcp.options.timestamp" showname="TCP Option - Timestamps: TSval 427162999, TSecr 0" size="10" pos="60" show="08:0a:19:75:fd:77:00:00:00:00" value="080a1975fd7700000000">
        <field name="tcp.option_kind" showname="Kind: Time Stamp Option (8)" size="1" pos="60" show="8" value="08"/>
        <field name="tcp.option_len" showname="Length: 10" size="1" pos="61" show="10" value="0a"/>
        <field name="tcp.options.timestamp.tsval" showname="Timestamp value: 427162999" size="4" pos="62" show="427162999" value="1975fd77"/>
        <field name="tcp.options.timestamp.tsecr" showname="Timestamp echo reply: 0" size="4" pos="66" show="0" value="00000000"/>
      </field>
      <field name="tcp.options.nop" showname="TCP Option - No-Operation (NOP)" size="1" pos="70" show="01" value="01">
        <field name="tcp.option_kind" showname="Kind: No-Operation (1)" size="1" pos="70" show="1" value="01"/>
      </field>
      <field name="tcp.options.wscale" showname="TCP Option - Window scale: 7 (multiply by 128)" size="3" pos="71" show="03:03:07" value="030307">
        <field name="tcp.option_kind" showname="Kind: Window Scale (3)" size="1" pos="71" show="3" value="03"/>
        <field name="tcp.option_len" showname="Length: 3" size="1" pos="72" show="3" value="03"/>
        <field name="tcp.options.wscale.shift" showname="Shift count: 7" size="1" pos="73" show="7" value="07"/>
        <field name="tcp.options.wscale.multiplier" showname="Multiplier: 128" size="1" pos="73" show="128" value="07"/>
      </field>
    </field>
    <field name="" show="Timestamps" size="0" pos="34">
      <field name="tcp.time_relative" showname="Time since first frame in this TCP stream: 0.000000000 seconds" size="0" pos="34" show="0.000000000"/>
      <field name="tcp.time_delta" showname="Time since previous frame in this TCP stream: 0.000000000 seconds" size="0" pos="34" show="0.000000000"/>
    </field>
  </proto>
</packet>


<packet>
  <proto name="geninfo" pos="0" showname="General information" size="74">
    <field name="num" pos="0" show="2" showname="Number" value="2" size="74"/>
    <field name="len" pos="0" show="74" showname="Frame Length" value="4a" size="74"/>
    <field name="caplen" pos="0" show="74" showname="Captured Length" value="4a" size="74"/>
    <field name="timestamp" pos="0" show="May 24, 2023 20:26:18.110780540 CEST" showname="Captured Time" value="1684952778.110780540" size="74"/>
  </proto>
  <proto name="frame" showname="Frame 2: 74 bytes on wire (592 bits), 74 bytes captured (592 bits) on interface veth_nssf, id 0" size="74" pos="0">
    <field name="filtered" value="frame" />
  </proto>
  <proto name="eth" showname="Ethernet II, Src: 7a:24:b4:3d:64:76, Dst: da:73:09:fb:97:ae" size="14" pos="0">
    <field name="filtered" value="eth" />
  </proto>
  <proto name="ip" showname="Internet Protocol Version 4, Src: 10.0.9.1, Dst: 10.0.6.1" size="20" pos="14">
    <field name="filtered" value="ip" />
  </proto>
  <proto name="tcp" showname="Transmission Control Protocol, Src Port: 7777, Dst Port: 40740, Seq: 3590916936, Ack: 4090257149, Len: 0" size="40" pos="34">
    <field name="tcp.srcport" showname="Source Port: 7777" size="2" pos="34" show="7777" value="1e61"/>
    <field name="tcp.dstport" showname="Destination Port: 40740" size="2" pos="36" show="40740" value="9f24"/>
    <field name="tcp.port" showname="Source or Destination Port: 7777" hide="yes" size="2" pos="34" show="7777" value="1e61"/>
    <field name="tcp.port" showname="Source or Destination Port: 40740" hide="yes" size="2" pos="36" show="40740" value="9f24"/>
    <field name="tcp.stream" showname="Stream index: 0" size="0" pos="34" show="0"/>
    <field name="tcp.len" showname="TCP Segment Len: 0" size="1" pos="46" show="0" value="a0"/>
    <field name="tcp.seq" showname="Sequence number: 3590916936" size="4" pos="38" show="3590916936" value="d6090b48"/>
    <field name="tcp.seq_raw" showname="Sequence number (raw): 3590916936" hide="yes" size="4" pos="38" show="3590916936" value="d6090b48"/>
    <field name="tcp.nxtseq" showname="Next sequence number: 3590916937" size="0" pos="34" show="3590916937"/>
    <field name="tcp.ack" showname="Acknowledgment number: 4090257149" size="4" pos="42" show="4090257149" value="f3cc5efd"/>
    <field name="tcp.ack_raw" showname="Acknowledgment number (raw): 4090257149" hide="yes" size="4" pos="42" show="4090257149" value="f3cc5efd"/>
    <field name="tcp.hdr_len" showname="1010 .... = Header Length: 40 bytes (10)" size="1" pos="46" show="40" value="a0"/>
    <field name="tcp.flags" showname="Flags: 0x012 (SYN, ACK)" size="2" pos="46" show="0x00000012" value="12" unmaskedvalue="a012">
      <field name="tcp.flags.res" showname="000. .... .... = Reserved: Not set" size="1" pos="46" show="0" value="0" unmaskedvalue="a0"/>
      <field name="tcp.flags.ns" showname="...0 .... .... = Nonce: Not set" size="1" pos="46" show="0" value="0" unmaskedvalue="a0"/>
      <field name="tcp.flags.cwr" showname=".... 0... .... = Congestion Window Reduced (CWR): Not set" size="1" pos="47" show="0" value="0" unmaskedvalue="12"/>
      <field name="tcp.flags.ecn" showname=".... .0.. .... = ECN-Echo: Not set" size="1" pos="47" show="0" value="0" unmaskedvalue="12"/>
      <field name="tcp.flags.urg" showname=".... ..0. .... = Urgent: Not set" size="1" pos="47" show="0" value="0" unmaskedvalue="12"/>
      <field name="tcp.flags.ack" showname=".... ...1 .... = Acknowledgment: Set" size="1" pos="47" show="1" value="1" unmaskedvalue="12"/>
      <field name="tcp.flags.push" showname=".... .... 0... = Push: Not set" size="1" pos="47" show="0" value="0" unmaskedvalue="12"/>
      <field name="tcp.flags.reset" showname=".... .... .0.. = Reset: Not set" size="1" pos="47" show="0" value="0" unmaskedvalue="12"/>
      <field name="tcp.flags.syn" showname=".... .... ..1. = Syn: Set" size="1" pos="47" show="1" value="1" unmaskedvalue="12">
        <field name="_ws.expert" showname="Expert Info (Chat/Sequence): Connection establish acknowledge (SYN+ACK): server port 7777" size="0" pos="47">
          <field name="tcp.connection.sack" showname="Connection establish acknowledge (SYN+ACK): server port 7777" size="0" pos="0" show="" value=""/>
          <field name="_ws.expert.message" showname="Message: Connection establish acknowledge (SYN+ACK): server port 7777" hide="yes" size="0" pos="0" show="Connection establish acknowledge (SYN+ACK): server port 7777"/>
          <field name="_ws.expert.severity" showname="Severity level: Chat" size="0" pos="0" show="2097152"/>
          <field name="_ws.expert.group" showname="Group: Sequence" size="0" pos="0" show="33554432"/>
        </field>
      </field>
      <field name="tcp.flags.fin" showname=".... .... ...0 = Fin: Not set" size="1" pos="47" show="0" value="0" unmaskedvalue="12"/>
      <field name="tcp.flags.str" showname="TCP Flags: \xc2\xb7\xc2\xb7\xc2\xb7\xc2\xb7\xc2\xb7\xc2\xb7\xc2\xb7A\xc2\xb7\xc2\xb7S\xc2\xb7" size="2" pos="46" show="\xc2\xb7\xc2\xb7\xc2\xb7\xc2\xb7\xc2\xb7\xc2\xb7\xc2\xb7A\xc2\xb7\xc2\xb7S\xc2\xb7" value="a012"/>
    </field>
    <field name="tcp.window_size_value" showname="Window size value: 65160" size="2" pos="48" show="65160" value="fe88"/>
    <field name="tcp.window_size" showname="Calculated window size: 65160" size="2" pos="48" show="65160" value="fe88"/>
    <field name="tcp.checksum" showname="Checksum: 0x2330 [unverified]" size="2" pos="50" show="0x00002330" value="2330"/>
    <field name="tcp.checksum.status" showname="Checksum Status: Unverified" size="0" pos="50" show="2"/>
    <field name="tcp.urgent_pointer" showname="Urgent pointer: 0" size="2" pos="52" show="0" value="0000"/>
    <field name="tcp.options" showname="Options: (20 bytes), Maximum segment size, SACK permitted, Timestamps, No-Operation (NOP), Window scale" size="20" pos="54" show="02:04:05:b4:04:02:08:0a:ef:cd:95:b8:19:75:fd:77:01:03:03:07" value="020405b40402080aefcd95b81975fd7701030307">
      <field name="tcp.options.mss" showname="TCP Option - Maximum segment size: 1460 bytes" size="4" pos="54" show="02:04:05:b4" value="020405b4">
        <field name="tcp.option_kind" showname="Kind: Maximum Segment Size (2)" size="1" pos="54" show="2" value="02"/>
        <field name="tcp.option_len" showname="Length: 4" size="1" pos="55" show="4" value="04"/>
        <field name="tcp.options.mss_val" showname="MSS Value: 1460" size="2" pos="56" show="1460" value="05b4"/>
      </field>
      <field name="tcp.options.sack_perm" showname="TCP Option - SACK permitted" size="2" pos="58" show="04:02" value="0402">
        <field name="tcp.option_kind" showname="Kind: SACK Permitted (4)" size="1" pos="58" show="4" value="04"/>
        <field name="tcp.option_len" showname="Length: 2" size="1" pos="59" show="2" value="02"/>
      </field>
      <field name="tcp.options.timestamp" showname="TCP Option - Timestamps: TSval 4023227832, TSecr 427162999" size="10" pos="60" show="08:0a:ef:cd:95:b8:19:75:fd:77" value="080aefcd95b81975fd77">
        <field name="tcp.option_kind" showname="Kind: Time Stamp Option (8)" size="1" pos="60" show="8" value="08"/>
        <field name="tcp.option_len" showname="Length: 10" size="1" pos="61" show="10" value="0a"/>
        <field name="tcp.options.timestamp.tsval" showname="Timestamp value: 4023227832" size="4" pos="62" show="4023227832" value="efcd95b8"/>
        <field name="tcp.options.timestamp.tsecr" showname="Timestamp echo reply: 427162999" size="4" pos="66" show="427162999" value="1975fd77"/>
      </field>
      <field name="tcp.options.nop" showname="TCP Option - No-Operation (NOP)" size="1" pos="70" show="01" value="01">
        <field name="tcp.option_kind" showname="Kind: No-Operation (1)" size="1" pos="70" show="1" value="01"/>
      </field>
      <field name="tcp.options.wscale" showname="TCP Option - Window scale: 7 (multiply by 128)" size="3" pos="71" show="03:03:07" value="030307">
        <field name="tcp.option_kind" showname="Kind: Window Scale (3)" size="1" pos="71" show="3" value="03"/>
        <field name="tcp.option_len" showname="Length: 3" size="1" pos="72" show="3" value="03"/>
        <field name="tcp.options.wscale.shift" showname="Shift count: 7" size="1" pos="73" show="7" value="07"/>
        <field name="tcp.options.wscale.multiplier" showname="Multiplier: 128" size="1" pos="73" show="128" value="07"/>
      </field>
    </field>
    <field name="" show="Timestamps" size="0" pos="34">
      <field name="tcp.time_relative" showname="Time since first frame in this TCP stream: 0.000016823 seconds" size="0" pos="34" show="0.000016823"/>
      <field name="tcp.time_delta" showname="Time since previous frame in this TCP stream: 0.000016823 seconds" size="0" pos="34" show="0.000016823"/>
    </field>
  </proto>
</packet>


<packet>
  <proto name="geninfo" pos="0" showname="General information" size="54">
    <field name="num" pos="0" show="3" showname="Number" value="3" size="54"/>
    <field name="len" pos="0" show="54" showname="Frame Length" value="36" size="54"/>
    <field name="caplen" pos="0" show="54" showname="Captured Length" value="36" size="54"/>
    <field name="timestamp" pos="0" show="May 24, 2023 20:26:18.110797442 CEST" showname="Captured Time" value="1684952778.110797442" size="54"/>
  </proto>
  <proto name="frame" showname="Frame 3: 54 bytes on wire (432 bits), 54 bytes captured (432 bits) on interface veth_nssf, id 0" size="54" pos="0">
    <field name="filtered" value="frame" />
  </proto>
  <proto name="eth" showname="Ethernet II, Src: da:73:09:fb:97:ae, Dst: 7a:24:b4:3d:64:76" size="14" pos="0">
    <field name="filtered" value="eth" />
  </proto>
  <proto name="ip" showname="Internet Protocol Version 4, Src: 10.0.6.1, Dst: 10.0.9.1" size="20" pos="14">
    <field name="filtered" value="ip" />
  </proto>
  <proto name="tcp" showname="Transmission Control Protocol, Src Port: 40740, Dst Port: 7777, Seq: 4090257149, Len: 0" size="20" pos="34">
    <field name="tcp.srcport" showname="Source Port: 40740" size="2" pos="34" show="40740" value="9f24"/>
    <field name="tcp.dstport" showname="Destination Port: 7777" size="2" pos="36" show="7777" value="1e61"/>
    <field name="tcp.port" showname="Source or Destination Port: 40740" hide="yes" size="2" pos="34" show="40740" value="9f24"/>
    <field name="tcp.port" showname="Source or Destination Port: 7777" hide="yes" size="2" pos="36" show="7777" value="1e61"/>
    <field name="tcp.stream" showname="Stream index: 0" size="0" pos="34" show="0"/>
    <field name="tcp.len" showname="TCP Segment Len: 0" size="1" pos="46" show="0" value="50"/>
    <field name="tcp.seq" showname="Sequence number: 4090257149" size="4" pos="38" show="4090257149" value="f3cc5efd"/>
    <field name="tcp.seq_raw" showname="Sequence number (raw): 4090257149" hide="yes" size="4" pos="38" show="4090257149" value="f3cc5efd"/>
    <field name="tcp.nxtseq" showname="Next sequence number: 4090257149" size="0" pos="34" show="4090257149"/>
    <field name="tcp.ack" showname="Acknowledgment number: 0" size="4" pos="42" show="0" value="00000000"/>
    <field name="tcp.ack_raw" showname="Acknowledgment number (raw): 0" size="4" pos="42" show="0" value="00000000"/>
    <field name="tcp.hdr_len" showname="0101 .... = Header Length: 20 bytes (5)" size="1" pos="46" show="20" value="50"/>
    <field name="tcp.flags" showname="Flags: 0x004 (RST)" size="2" pos="46" show="0x00000004" value="4" unmaskedvalue="5004">
      <field name="tcp.flags.res" showname="000. .... .... = Reserved: Not set" size="1" pos="46" show="0" value="0" unmaskedvalue="50"/>
      <field name="tcp.flags.ns" showname="...0 .... .... = Nonce: Not set" size="1" pos="46" show="0" value="0" unmaskedvalue="50"/>
      <field name="tcp.flags.cwr" showname=".... 0... .... = Congestion Window Reduced (CWR): Not set" size="1" pos="47" show="0" value="0" unmaskedvalue="04"/>
      <field name="tcp.flags.ecn" showname=".... .0.. .... = ECN-Echo: Not set" size="1" pos="47" show="0" value="0" unmaskedvalue="04"/>
      <field name="tcp.flags.urg" showname=".... ..0. .... = Urgent: Not set" size="1" pos="47" show="0" value="0" unmaskedvalue="04"/>
      <field name="tcp.flags.ack" showname=".... ...0 .... = Acknowledgment: Not set" size="1" pos="47" show="0" value="0" unmaskedvalue="04"/>
      <field name="tcp.flags.push" showname=".... .... 0... = Push: Not set" size="1" pos="47" show="0" value="0" unmaskedvalue="04"/>
      <field name="tcp.flags.reset" showname=".... .... .1.. = Reset: Set" size="1" pos="47" show="1" value="1" unmaskedvalue="04">
        <field name="_ws.expert" showname="Expert Info (Warning/Sequence): Connection reset (RST)" size="0" pos="47">
          <field name="tcp.connection.rst" showname="Connection reset (RST)" size="0" pos="0" show="" value=""/>
          <field name="_ws.expert.message" showname="Message: Connection reset (RST)" hide="yes" size="0" pos="0" show="Connection reset (RST)"/>
          <field name="_ws.expert.severity" showname="Severity level: Warning" size="0" pos="0" show="6291456"/>
          <field name="_ws.expert.group" showname="Group: Sequence" size="0" pos="0" show="33554432"/>
        </field>
      </field>
      <field name="tcp.flags.syn" showname=".... .... ..0. = Syn: Not set" size="1" pos="47" show="0" value="0" unmaskedvalue="04"/>
      <field name="tcp.flags.fin" showname=".... .... ...0 = Fin: Not set" size="1" pos="47" show="0" value="0" unmaskedvalue="04"/>
      <field name="tcp.flags.str" showname="TCP Flags: \xc2\xb7\xc2\xb7\xc2\xb7\xc2\xb7\xc2\xb7\xc2\xb7\xc2\xb7\xc2\xb7\xc2\xb7R\xc2\xb7\xc2\xb7" size="2" pos="46" show="\xc2\xb7\xc2\xb7\xc2\xb7\xc2\xb7\xc2\xb7\xc2\xb7\xc2\xb7\xc2\xb7\xc2\xb7R\xc2\xb7\xc2\xb7" value="5004"/>
    </field>
    <field name="tcp.window_size_value" showname="Window size value: 0" size="2" pos="48" show="0" value="0000"/>
    <field name="tcp.window_size" showname="Calculated window size: 0" size="2" pos="48" show="0" value="0000"/>
    <field name="tcp.window_size_scalefactor" showname="Window size scaling factor: 128" size="2" pos="48" show="128" value="0000"/>
    <field name="tcp.checksum" showname="Checksum: 0x7c8f [unverified]" size="2" pos="50" show="0x00007c8f" value="7c8f"/>
    <field name="tcp.checksum.status" showname="Checksum Status: Unverified" size="0" pos="50" show="2"/>
    <field name="tcp.urgent_pointer" showname="Urgent pointer: 0" size="2" pos="52" show="0" value="0000"/>
    <field name="" show="Timestamps" size="0" pos="34">
      <field name="tcp.time_relative" showname="Time since first frame in this TCP stream: 0.000033725 seconds" size="0" pos="34" show="0.000033725"/>
      <field name="tcp.time_delta" showname="Time since previous frame in this TCP stream: 0.000016902 seconds" size="0" pos="34" show="0.000016902"/>
    </field>
  </proto>
</packet>


<packet>
  <proto name="geninfo" pos="0" showname="General information" size="74">
    <field name="num" pos="0" show="4" showname="Number" value="4" size="74"/>
    <field name="len" pos="0" show="74" showname="Frame Length" value="4a" size="74"/>
    <field name="caplen" pos="0" show="74" showname="Captured Length" value="4a" size="74"/>
    <field name="timestamp" pos="0" show="May 24, 2023 20:26:19.111576778 CEST" showname="Captured Time" value="1684952779.111576778" size="74"/>
  </proto>
  <proto name="frame" showname="Frame 4: 74 bytes on wire (592 bits), 74 bytes captured (592 bits) on interface veth_nssf, id 0" size="74" pos="0">
    <field name="filtered" value="frame" />
  </proto>
  <proto name="eth" showname="Ethernet II, Src: da:73:09:fb:97:ae, Dst: 7a:24:b4:3d:64:76" size="14" pos="0">
    <field name="filtered" value="eth" />
  </proto>
  <proto name="ip" showname="Internet Protocol Version 4, Src: 10.0.6.1, Dst: 10.0.9.1" size="20" pos="14">
    <field name="filtered" value="ip" />
  </proto>
  <proto name="tcp" showname="Transmission Control Protocol, Src Port: 40740, Dst Port: 7777, Seq: 4090257148, Len: 0" size="40" pos="34">
    <field name="tcp.srcport" showname="Source Port: 40740" size="2" pos="34" show="40740" value="9f24"/>
    <field name="tcp.dstport" showname="Destination Port: 7777" size="2" pos="36" show="7777" value="1e61"/>
    <field name="tcp.port" showname="Source or Destination Port: 40740" hide="yes" size="2" pos="34" show="40740" value="9f24"/>
    <field name="tcp.port" showname="Source or Destination Port: 7777" hide="yes" size="2" pos="36" show="7777" value="1e61"/>
    <field name="tcp.stream" showname="Stream index: 0" size="0" pos="34" show="0"/>
    <field name="tcp.len" showname="TCP Segment Len: 0" size="1" pos="46" show="0" value="a0"/>
    <field name="tcp.seq" showname="Sequence number: 4090257148" size="4" pos="38" show="4090257148" value="f3cc5efc"/>
    <field name="tcp.seq_raw" showname="Sequence number (raw): 4090257148" hide="yes" size="4" pos="38" show="4090257148" value="f3cc5efc"/>
    <field name="tcp.nxtseq" showname="Next sequence number: 4090257149" size="0" pos="34" show="4090257149"/>
    <field name="tcp.ack" showname="Acknowledgment number: 0" size="4" pos="42" show="0" value="00000000"/>
    <field name="tcp.ack_raw" showname="Acknowledgment number (raw): 0" size="4" pos="42" show="0" value="00000000"/>
    <field name="tcp.hdr_len" showname="1010 .... = Header Length: 40 bytes (10)" size="1" pos="46" show="40" value="a0"/>
    <field name="tcp.flags" showname="Flags: 0x002 (SYN)" size="2" pos="46" show="0x00000002" value="2" unmaskedvalue="a002">
      <field name="tcp.flags.res" showname="000. .... .... = Reserved: Not set" size="1" pos="46" show="0" value="0" unmaskedvalue="a0"/>
      <field name="tcp.flags.ns" showname="...0 .... .... = Nonce: Not set" size="1" pos="46" show="0" value="0" unmaskedvalue="a0"/>
      <field name="tcp.flags.cwr" showname=".... 0... .... = Congestion Window Reduced (CWR): Not set" size="1" pos="47" show="0" value="0" unmaskedvalue="02"/>
      <field name="tcp.flags.ecn" showname=".... .0.. .... = ECN-Echo: Not set" size="1" pos="47" show="0" value="0" unmaskedvalue="02"/>
      <field name="tcp.flags.urg" showname=".... ..0. .... = Urgent: Not set" size="1" pos="47" show="0" value="0" unmaskedvalue="02"/>
      <field name="tcp.flags.ack" showname=".... ...0 .... = Acknowledgment: Not set" size="1" pos="47" show="0" value="0" unmaskedvalue="02"/>
      <field name="tcp.flags.push" showname=".... .... 0... = Push: Not set" size="1" pos="47" show="0" value="0" unmaskedvalue="02"/>
      <field name="tcp.flags.reset" showname=".... .... .0.. = Reset: Not set" size="1" pos="47" show="0" value="0" unmaskedvalue="02"/>
      <field name="tcp.flags.syn" showname=".... .... ..1. = Syn: Set" size="1" pos="47" show="1" value="1" unmaskedvalue="02">
        <field name="_ws.expert" showname="Expert Info (Chat/Sequence): Connection establish request (SYN): server port 7777" size="0" pos="47">
          <field name="tcp.connection.syn" showname="Connection establish request (SYN): server port 7777" size="0" pos="0" show="" value=""/>
          <field name="_ws.expert.message" showname="Message: Connection establish request (SYN): server port 7777" hide="yes" size="0" pos="0" show="Connection establish request (SYN): server port 7777"/>
          <field name="_ws.expert.severity" showname="Severity level: Chat" size="0" pos="0" show="2097152"/>
          <field name="_ws.expert.group" showname="Group: Sequence" size="0" pos="0" show="33554432"/>
        </field>
      </field>
      <field name="tcp.flags.fin" showname=".... .... ...0 = Fin: Not set" size="1" pos="47" show="0" value="0" unmaskedvalue="02"/>
      <field name="tcp.flags.str" showname="TCP Flags: \xc2\xb7\xc2\xb7\xc2\xb7\xc2\xb7\xc2\xb7\xc2\xb7\xc2\xb7\xc2\xb7\xc2\xb7\xc2\xb7S\xc2\xb7" size="2" pos="46" show="\xc2\xb7\xc2\xb7\xc2\xb7\xc2\xb7\xc2\xb7\xc2\xb7\xc2\xb7\xc2\xb7\xc2\xb7\xc2\xb7S\xc2\xb7" value="a002"/>
    </field>
    <field name="tcp.window_size_value" showname="Window size value: 64240" size="2" pos="48" show="64240" value="faf0"/>
    <field name="tcp.window_size" showname="Calculated window size: 64240" size="2" pos="48" show="64240" value="faf0"/>
    <field name="tcp.checksum" showname="Checksum: 0x2330 [unverified]" size="2" pos="50" show="0x00002330" value="2330"/>
    <field name="tcp.checksum.status" showname="Checksum Status: Unverified" size="0" pos="50" show="2"/>
    <field name="tcp.urgent_pointer" showname="Urgent pointer: 0" size="2" pos="52" show="0" value="0000"/>
    <field name="tcp.options" showname="Options: (20 bytes), Maximum segment size, SACK permitted, Timestamps, No-Operation (NOP), Window scale" size="20" pos="54" show="02:04:05:b4:04:02:08:0a:19:76:01:5f:00:00:00:00:01:03:03:07" value="020405b40402080a1976015f0000000001030307">
      <field name="tcp.options.mss" showname="TCP Option - Maximum segment size: 1460 bytes" size="4" pos="54" show="02:04:05:b4" value="020405b4">
        <field name="tcp.option_kind" showname="Kind: Maximum Segment Size (2)" size="1" pos="54" show="2" value="02"/>
        <field name="tcp.option_len" showname="Length: 4" size="1" pos="55" show="4" value="04"/>
        <field name="tcp.options.mss_val" showname="MSS Value: 1460" size="2" pos="56" show="1460" value="05b4"/>
      </field>
      <field name="tcp.options.sack_perm" showname="TCP Option - SACK permitted" size="2" pos="58" show="04:02" value="0402">
        <field name="tcp.option_kind" showname="Kind: SACK Permitted (4)" size="1" pos="58" show="4" value="04"/>
        <field name="tcp.option_len" showname="Length: 2" size="1" pos="59" show="2" value="02"/>
      </field>
      <field name="tcp.options.timestamp" showname="TCP Option - Timestamps: TSval 427163999, TSecr 0" size="10" pos="60" show="08:0a:19:76:01:5f:00:00:00:00" value="080a1976015f00000000">
        <field name="tcp.option_kind" showname="Kind: Time Stamp Option (8)" size="1" pos="60" show="8" value="08"/>
        <field name="tcp.option_len" showname="Length: 10" size="1" pos="61" show="10" value="0a"/>
        <field name="tcp.options.timestamp.tsval" showname="Timestamp value: 427163999" size="4" pos="62" show="427163999" value="1976015f"/>
        <field name="tcp.options.timestamp.tsecr" showname="Timestamp echo reply: 0" size="4" pos="66" show="0" value="00000000"/>
      </field>
      <field name="tcp.options.nop" showname="TCP Option - No-Operation (NOP)" size="1" pos="70" show="01" value="01">
        <field name="tcp.option_kind" showname="Kind: No-Operation (1)" size="1" pos="70" show="1" value="01"/>
      </field>
      <field name="tcp.options.wscale" showname="TCP Option - Window scale: 7 (multiply by 128)" size="3" pos="71" show="03:03:07" value="030307">
        <field name="tcp.option_kind" showname="Kind: Window Scale (3)" size="1" pos="71" show="3" value="03"/>
        <field name="tcp.option_len" showname="Length: 3" size="1" pos="72" show="3" value="03"/>
        <field name="tcp.options.wscale.shift" showname="Shift count: 7" size="1" pos="73" show="7" value="07"/>
        <field name="tcp.options.wscale.multiplier" showname="Multiplier: 128" size="1" pos="73" show="128" value="07"/>
      </field>
    </field>
    <field name="" show="Timestamps" size="0" pos="34">
      <field name="tcp.time_relative" showname="Time since first frame in this TCP stream: 1.000813061 seconds" size="0" pos="34" show="1.000813061"/>
      <field name="tcp.time_delta" showname="Time since previous frame in this TCP stream: 1.000779336 seconds" size="0" pos="34" show="1.000779336"/>
    </field>
  </proto>
</packet>


<packet>
  <proto name="geninfo" pos="0" showname="General information" size="74">
    <field name="num" pos="0" show="5" showname="Number" value="5" size="74"/>
    <field name="len" pos="0" show="74" showname="Frame Length" value="4a" size="74"/>
    <field name="caplen" pos="0" show="74" showname="Captured Length" value="4a" size="74"/>
    <field name="timestamp" pos="0" show="May 24, 2023 20:26:19.111598122 CEST" showname="Captured Time" value="1684952779.111598122" size="74"/>
  </proto>
  <proto name="frame" showname="Frame 5: 74 bytes on wire (592 bits), 74 bytes captured (592 bits) on interface veth_nssf, id 0" size="74" pos="0">
    <field name="filtered" value="frame" />
  </proto>
  <proto name="eth" showname="Ethernet II, Src: 7a:24:b4:3d:64:76, Dst: da:73:09:fb:97:ae" size="14" pos="0">
    <field name="filtered" value="eth" />
  </proto>
  <proto name="ip" showname="Internet Protocol Version 4, Src: 10.0.9.1, Dst: 10.0.6.1" size="20" pos="14">
    <field name="filtered" value="ip" />
  </proto>
  <proto name="tcp" showname="Transmission Control Protocol, Src Port: 7777, Dst Port: 40740, Seq: 3606554706, Ack: 4090257149, Len: 0" size="40" pos="34">
    <field name="tcp.srcport" showname="Source Port: 7777" size="2" pos="34" show="7777" value="1e61"/>
    <field name="tcp.dstport" showname="Destination Port: 40740" size="2" pos="36" show="40740" value="9f24"/>
    <field name="tcp.port" showname="Source or Destination Port: 7777" hide="yes" size="2" pos="34" show="7777" value="1e61"/>
    <field name="tcp.port" showname="Source or Destination Port: 40740" hide="yes" size="2" pos="36" show="40740" value="9f24"/>
    <field name="tcp.stream" showname="Stream index: 0" size="0" pos="34" show="0"/>
    <field name="tcp.len" showname="TCP Segment Len: 0" size="1" pos="46" show="0" value="a0"/>
    <field name="tcp.seq" showname="Sequence number: 3606554706" size="4" pos="38" show="3606554706" value="d6f7a852"/>
    <field name="tcp.seq_raw" showname="Sequence number (raw): 3606554706" hide="yes" size="4" pos="38" show="3606554706" value="d6f7a852"/>
    <field name="tcp.nxtseq" showname="Next sequence number: 3606554707" size="0" pos="34" show="3606554707"/>
    <field name="tcp.ack" showname="Acknowledgment number: 4090257149" size="4" pos="42" show="4090257149" value="f3cc5efd"/>
    <field name="tcp.ack_raw" showname="Acknowledgment number (raw): 4090257149" hide="yes" size="4" pos="42" show="4090257149" value="f3cc5efd"/>
    <field name="tcp.hdr_len" showname="1010 .... = Header Length: 40 bytes (10)" size="1" pos="46" show="40" value="a0"/>
    <field name="tcp.flags" showname="Flags: 0x012 (SYN, ACK)" size="2" pos="46" show="0x00000012" value="12" unmaskedvalue="a012">
      <field name="tcp.flags.res" showname="000. .... .... = Reserved: Not set" size="1" pos="46" show="0" value="0" unmaskedvalue="a0"/>
      <field name="tcp.flags.ns" showname="...0 .... .... = Nonce: Not set" size="1" pos="46" show="0" value="0" unmaskedvalue="a0"/>
      <field name="tcp.flags.cwr" showname=".... 0... .... = Congestion Window Reduced (CWR): Not set" size="1" pos="47" show="0" value="0" unmaskedvalue="12"/>
      <field name="tcp.flags.ecn" showname=".... .0.. .... = ECN-Echo: Not set" size="1" pos="47" show="0" value="0" unmaskedvalue="12"/>
      <field name="tcp.flags.urg" showname=".... ..0. .... = Urgent: Not set" size="1" pos="47" show="0" value="0" unmaskedvalue="12"/>
      <field name="tcp.flags.ack" showname=".... ...1 .... = Acknowledgment: Set" size="1" pos="47" show="1" value="1" unmaskedvalue="12"/>
      <field name="tcp.flags.push" showname=".... .... 0... = Push: Not set" size="1" pos="47" show="0" value="0" unmaskedvalue="12"/>
      <field name="tcp.flags.reset" showname=".... .... .0.. = Reset: Not set" size="1" pos="47" show="0" value="0" unmaskedvalue="12"/>
      <field name="tcp.flags.syn" showname=".... .... ..1. = Syn: Set" size="1" pos="47" show="1" value="1" unmaskedvalue="12">
        <field name="_ws.expert" showname="Expert Info (Chat/Sequence): Connection establish acknowledge (SYN+ACK): server port 7777" size="0" pos="47">
          <field name="tcp.connection.sack" showname="Connection establish acknowledge (SYN+ACK): server port 7777" size="0" pos="0" show="" value=""/>
          <field name="_ws.expert.message" showname="Message: Connection establish acknowledge (SYN+ACK): server port 7777" hide="yes" size="0" pos="0" show="Connection establish acknowledge (SYN+ACK): server port 7777"/>
          <field name="_ws.expert.severity" showname="Severity level: Chat" size="0" pos="0" show="2097152"/>
          <field name="_ws.expert.group" showname="Group: Sequence" size="0" pos="0" show="33554432"/>
        </field>
      </field>
      <field name="tcp.flags.fin" showname=".... .... ...0 = Fin: Not set" size="1" pos="47" show="0" value="0" unmaskedvalue="12"/>
      <field name="tcp.flags.str" showname="TCP Flags: \xc2\xb7\xc2\xb7\xc2\xb7\xc2\xb7\xc2\xb7\xc2\xb7\xc2\xb7A\xc2\xb7\xc2\xb7S\xc2\xb7" size="2" pos="46" show="\xc2\xb7\xc2\xb7\xc2\xb7\xc2\xb7\xc2\xb7\xc2\xb7\xc2\xb7A\xc2\xb7\xc2\xb7S\xc2\xb7" value="a012"/>
    </field>
    <field name="tcp.window_size_value" showname="Window size value: 65160" size="2" pos="48" show="65160" value="fe88"/>
    <field name="tcp.window_size" showname="Calculated window size: 65160" size="2" pos="48" show="65160" value="fe88"/>
    <field name="tcp.checksum" showname="Checksum: 0x2330 [unverified]" size="2" pos="50" show="0x00002330" value="2330"/>
    <field name="tcp.checksum.status" showname="Checksum Status: Unverified" size="0" pos="50" show="2"/>
    <field name="tcp.urgent_pointer" showname="Urgent pointer: 0" size="2" pos="52" show="0" value="0000"/>
    <field name="tcp.options" showname="Options: (20 bytes), Maximum segment size, SACK permitted, Timestamps, No-Operation (NOP), Window scale" size="20" pos="54" show="02:04:05:b4:04:02:08:0a:ef:cd:99:a0:19:76:01:5f:01:03:03:07" value="020405b40402080aefcd99a01976015f01030307">
      <field name="tcp.options.mss" showname="TCP Option - Maximum segment size: 1460 bytes" size="4" pos="54" show="02:04:05:b4" value="020405b4">
        <field name="tcp.option_kind" showname="Kind: Maximum Segment Size (2)" size="1" pos="54" show="2" value="02"/>
        <field name="tcp.option_len" showname="Length: 4" size="1" pos="55" show="4" value="04"/>
        <field name="tcp.options.mss_val" showname="MSS Value: 1460" size="2" pos="56" show="1460" value="05b4"/>
      </field>
      <field name="tcp.options.sack_perm" showname="TCP Option - SACK permitted" size="2" pos="58" show="04:02" value="0402">
        <field name="tcp.option_kind" showname="Kind: SACK Permitted (4)" size="1" pos="58" show="4" value="04"/>
        <field name="tcp.option_len" showname="Length: 2" size="1" pos="59" show="2" value="02"/>
      </field>
      <field name="tcp.options.timestamp" showname="TCP Option - Timestamps: TSval 4023228832, TSecr 427163999" size="10" pos="60" show="08:0a:ef:cd:99:a0:19:76:01:5f" value="080aefcd99a01976015f">
        <field name="tcp.option_kind" showname="Kind: Time Stamp Option (8)" size="1" pos="60" show="8" value="08"/>
        <field name="tcp.option_len" showname="Length: 10" size="1" pos="61" show="10" value="0a"/>
        <field name="tcp.options.timestamp.tsval" showname="Timestamp value: 4023228832" size="4" pos="62" show="4023228832" value="efcd99a0"/>
        <field name="tcp.options.timestamp.tsecr" showname="Timestamp echo reply: 427163999" size="4" pos="66" show="427163999" value="1976015f"/>
      </field>
      <field name="tcp.options.nop" showname="TCP Option - No-Operation (NOP)" size="1" pos="70" show="01" value="01">
        <field name="tcp.option_kind" showname="Kind: No-Operation (1)" size="1" pos="70" show="1" value="01"/>
      </field>
      <field name="tcp.options.wscale" showname="TCP Option - Window scale: 7 (multiply by 128)" size="3" pos="71" show="03:03:07" value="030307">
        <field name="tcp.option_kind" showname="Kind: Window Scale (3)" size="1" pos="71" show="3" value="03"/>
        <field name="tcp.option_len" showname="Length: 3" size="1" pos="72" show="3" value="03"/>
        <field name="tcp.options.wscale.shift" showname="Shift count: 7" size="1" pos="73" show="7" value="07"/>
        <field name="tcp.options.wscale.multiplier" showname="Multiplier: 128" size="1" pos="73" show="128" value="07"/>
      </field>
    </field>
    <field name="" show="Timestamps" size="0" pos="34">
      <field name="tcp.time_relative" showname="Time since first frame in this TCP stream: 1.000834405 seconds" size="0" pos="34" show="1.000834405"/>
      <field name="tcp.time_delta" showname="Time since previous frame in this TCP stream: 0.000021344 seconds" size="0" pos="34" show="0.000021344"/>
    </field>
  </proto>
</packet>


<packet>
  <proto name="geninfo" pos="0" showname="General information" size="54">
    <field name="num" pos="0" show="6" showname="Number" value="6" size="54"/>
    <field name="len" pos="0" show="54" showname="Frame Length" value="36" size="54"/>
    <field name="caplen" pos="0" show="54" showname="Captured Length" value="36" size="54"/>
    <field name="timestamp" pos="0" show="May 24, 2023 20:26:19.111618234 CEST" showname="Captured Time" value="1684952779.111618234" size="54"/>
  </proto>
  <proto name="frame" showname="Frame 6: 54 bytes on wire (432 bits), 54 bytes captured (432 bits) on interface veth_nssf, id 0" size="54" pos="0">
    <field name="filtered" value="frame" />
  </proto>
  <proto name="eth" showname="Ethernet II, Src: da:73:09:fb:97:ae, Dst: 7a:24:b4:3d:64:76" size="14" pos="0">
    <field name="filtered" value="eth" />
  </proto>
  <proto name="ip" showname="Internet Protocol Version 4, Src: 10.0.6.1, Dst: 10.0.9.1" size="20" pos="14">
    <field name="filtered" value="ip" />
  </proto>
  <proto name="tcp" showname="Transmission Control Protocol, Src Port: 40740, Dst Port: 7777, Seq: 4090257149, Len: 0" size="20" pos="34">
    <field name="tcp.srcport" showname="Source Port: 40740" size="2" pos="34" show="40740" value="9f24"/>
    <field name="tcp.dstport" showname="Destination Port: 7777" size="2" pos="36" show="7777" value="1e61"/>
    <field name="tcp.port" showname="Source or Destination Port: 40740" hide="yes" size="2" pos="34" show="40740" value="9f24"/>
    <field name="tcp.port" showname="Source or Destination Port: 7777" hide="yes" size="2" pos="36" show="7777" value="1e61"/>
    <field name="tcp.stream" showname="Stream index: 0" size="0" pos="34" show="0"/>
    <field name="tcp.len" showname="TCP Segment Len: 0" size="1" pos="46" show="0" value="50"/>
    <field name="tcp.seq" showname="Sequence number: 4090257149" size="4" pos="38" show="4090257149" value="f3cc5efd"/>
    <field name="tcp.seq_raw" showname="Sequence number (raw): 4090257149" hide="yes" size="4" pos="38" show="4090257149" value="f3cc5efd"/>
    <field name="tcp.nxtseq" showname="Next sequence number: 4090257149" size="0" pos="34" show="4090257149"/>
    <field name="tcp.ack" showname="Acknowledgment number: 0" size="4" pos="42" show="0" value="00000000"/>
    <field name="tcp.ack_raw" showname="Acknowledgment number (raw): 0" size="4" pos="42" show="0" value="00000000"/>
    <field name="tcp.hdr_len" showname="0101 .... = Header Length: 20 bytes (5)" size="1" pos="46" show="20" value="50"/>
    <field name="tcp.flags" showname="Flags: 0x004 (RST)" size="2" pos="46" show="0x00000004" value="4" unmaskedvalue="5004">
      <field name="tcp.flags.res" showname="000. .... .... = Reserved: Not set" size="1" pos="46" show="0" value="0" unmaskedvalue="50"/>
      <field name="tcp.flags.ns" showname="...0 .... .... = Nonce: Not set" size="1" pos="46" show="0" value="0" unmaskedvalue="50"/>
      <field name="tcp.flags.cwr" showname=".... 0... .... = Congestion Window Reduced (CWR): Not set" size="1" pos="47" show="0" value="0" unmaskedvalue="04"/>
      <field name="tcp.flags.ecn" showname=".... .0.. .... = ECN-Echo: Not set" size="1" pos="47" show="0" value="0" unmaskedvalue="04"/>
      <field name="tcp.flags.urg" showname=".... ..0. .... = Urgent: Not set" size="1" pos="47" show="0" value="0" unmaskedvalue="04"/>
      <field name="tcp.flags.ack" showname=".... ...0 .... = Acknowledgment: Not set" size="1" pos="47" show="0" value="0" unmaskedvalue="04"/>
      <field name="tcp.flags.push" showname=".... .... 0... = Push: Not set" size="1" pos="47" show="0" value="0" unmaskedvalue="04"/>
      <field name="tcp.flags.reset" showname=".... .... .1.. = Reset: Set" size="1" pos="47" show="1" value="1" unmaskedvalue="04">
        <field name="_ws.expert" showname="Expert Info (Warning/Sequence): Connection reset (RST)" size="0" pos="47">
          <field name="tcp.connection.rst" showname="Connection reset (RST)" size="0" pos="0" show="" value=""/>
          <field name="_ws.expert.message" showname="Message: Connection reset (RST)" hide="yes" size="0" pos="0" show="Connection reset (RST)"/>
          <field name="_ws.expert.severity" showname="Severity level: Warning" size="0" pos="0" show="6291456"/>
          <field name="_ws.expert.group" showname="Group: Sequence" size="0" pos="0" show="33554432"/>
        </field>
      </field>
      <field name="tcp.flags.syn" showname=".... .... ..0. = Syn: Not set" size="1" pos="47" show="0" value="0" unmaskedvalue="04"/>
      <field name="tcp.flags.fin" showname=".... .... ...0 = Fin: Not set" size="1" pos="47" show="0" value="0" unmaskedvalue="04"/>
      <field name="tcp.flags.str" showname="TCP Flags: \xc2\xb7\xc2\xb7\xc2\xb7\xc2\xb7\xc2\xb7\xc2\xb7\xc2\xb7\xc2\xb7\xc2\xb7R\xc2\xb7\xc2\xb7" size="2" pos="46" show="\xc2\xb7\xc2\xb7\xc2\xb7\xc2\xb7\xc2\xb7\xc2\xb7\xc2\xb7\xc2\xb7\xc2\xb7R\xc2\xb7\xc2\xb7" value="5004"/>
    </field>
    <field name="tcp.window_size_value" showname="Window size value: 0" size="2" pos="48" show="0" value="0000"/>
    <field name="tcp.window_size" showname="Calculated window size: 0" size="2" pos="48" show="0" value="0000"/>
    <field name="tcp.window_size_scalefactor" showname="Window size scaling factor: 128" size="2" pos="48" show="128" value="0000"/>
    <field name="tcp.checksum" showname="Checksum: 0x7c8f [unverified]" size="2" pos="50" show="0x00007c8f" value="7c8f"/>
    <field name="tcp.checksum.status" showname="Checksum Status: Unverified" size="0" pos="50" show="2"/>
    <field name="tcp.urgent_pointer" showname="Urgent pointer: 0" size="2" pos="52" show="0" value="0000"/>
    <field name="" show="Timestamps" size="0" pos="34">
      <field name="tcp.time_relative" showname="Time since first frame in this TCP stream: 1.000854517 seconds" size="0" pos="34" show="1.000854517"/>
      <field name="tcp.time_delta" showname="Time since previous frame in this TCP stream: 0.000020112 seconds" size="0" pos="34" show="0.000020112"/>
    </field>
  </proto>
</packet>


<packet>
  <proto name="geninfo" pos="0" showname="General information" size="74">
    <field name="num" pos="0" show="7" showname="Number" value="7" size="74"/>
    <field name="len" pos="0" show="74" showname="Frame Length" value="4a" size="74"/>
    <field name="caplen" pos="0" show="74" showname="Captured Length" value="4a" size="74"/>
    <field name="timestamp" pos="0" show="May 24, 2023 20:26:21.127672202 CEST" showname="Captured Time" value="1684952781.127672202" size="74"/>
  </proto>
  <proto name="frame" showname="Frame 7: 74 bytes on wire (592 bits), 74 bytes captured (592 bits) on interface veth_nssf, id 0" size="74" pos="0">
    <field name="filtered" value="frame" />
  </proto>
  <proto name="eth" showname="Ethernet II, Src: da:73:09:fb:97:ae, Dst: 7a:24:b4:3d:64:76" size="14" pos="0">
    <field name="filtered" value="eth" />
  </proto>
  <proto name="ip" showname="Internet Protocol Version 4, Src: 10.0.6.1, Dst: 10.0.9.1" size="20" pos="14">
    <field name="filtered" value="ip" />
  </proto>
  <proto name="tcp" showname="Transmission Control Protocol, Src Port: 40740, Dst Port: 7777, Seq: 4090257148, Len: 0" size="40" pos="34">
    <field name="tcp.srcport" showname="Source Port: 40740" size="2" pos="34" show="40740" value="9f24"/>
    <field name="tcp.dstport" showname="Destination Port: 7777" size="2" pos="36" show="7777" value="1e61"/>
    <field name="tcp.port" showname="Source or Destination Port: 40740" hide="yes" size="2" pos="34" show="40740" value="9f24"/>
    <field name="tcp.port" showname="Source or Destination Port: 7777" hide="yes" size="2" pos="36" show="7777" value="1e61"/>
    <field name="tcp.stream" showname="Stream index: 0" size="0" pos="34" show="0"/>
    <field name="tcp.len" showname="TCP Segment Len: 0" size="1" pos="46" show="0" value="a0"/>
    <field name="tcp.seq" showname="Sequence number: 4090257148" size="4" pos="38" show="4090257148" value="f3cc5efc"/>
    <field name="tcp.seq_raw" showname="Sequence number (raw): 4090257148" hide="yes" size="4" pos="38" show="4090257148" value="f3cc5efc"/>
    <field name="tcp.nxtseq" showname="Next sequence number: 4090257149" size="0" pos="34" show="4090257149"/>
    <field name="tcp.ack" showname="Acknowledgment number: 0" size="4" pos="42" show="0" value="00000000"/>
    <field name="tcp.ack_raw" showname="Acknowledgment number (raw): 0" size="4" pos="42" show="0" value="00000000"/>
    <field name="tcp.hdr_len" showname="1010 .... = Header Length: 40 bytes (10)" size="1" pos="46" show="40" value="a0"/>
    <field name="tcp.flags" showname="Flags: 0x002 (SYN)" size="2" pos="46" show="0x00000002" value="2" unmaskedvalue="a002">
      <field name="tcp.flags.res" showname="000. .... .... = Reserved: Not set" size="1" pos="46" show="0" value="0" unmaskedvalue="a0"/>
      <field name="tcp.flags.ns" showname="...0 .... .... = Nonce: Not set" size="1" pos="46" show="0" value="0" unmaskedvalue="a0"/>
      <field name="tcp.flags.cwr" showname=".... 0... .... = Congestion Window Reduced (CWR): Not set" size="1" pos="47" show="0" value="0" unmaskedvalue="02"/>
      <field name="tcp.flags.ecn" showname=".... .0.. .... = ECN-Echo: Not set" size="1" pos="47" show="0" value="0" unmaskedvalue="02"/>
      <field name="tcp.flags.urg" showname=".... ..0. .... = Urgent: Not set" size="1" pos="47" show="0" value="0" unmaskedvalue="02"/>
      <field name="tcp.flags.ack" showname=".... ...0 .... = Acknowledgment: Not set" size="1" pos="47" show="0" value="0" unmaskedvalue="02"/>
      <field name="tcp.flags.push" showname=".... .... 0... = Push: Not set" size="1" pos="47" show="0" value="0" unmaskedvalue="02"/>
      <field name="tcp.flags.reset" showname=".... .... .0.. = Reset: Not set" size="1" pos="47" show="0" value="0" unmaskedvalue="02"/>
      <field name="tcp.flags.syn" showname=".... .... ..1. = Syn: Set" size="1" pos="47" show="1" value="1" unmaskedvalue="02">
        <field name="_ws.expert" showname="Expert Info (Chat/Sequence): Connection establish request (SYN): server port 7777" size="0" pos="47">
          <field name="tcp.connection.syn" showname="Connection establish request (SYN): server port 7777" size="0" pos="0" show="" value=""/>
          <field name="_ws.expert.message" showname="Message: Connection establish request (SYN): server port 7777" hide="yes" size="0" pos="0" show="Connection establish request (SYN): server port 7777"/>
          <field name="_ws.expert.severity" showname="Severity level: Chat" size="0" pos="0" show="2097152"/>
          <field name="_ws.expert.group" showname="Group: Sequence" size="0" pos="0" show="33554432"/>
        </field>
      </field>
      <field name="tcp.flags.fin" showname=".... .... ...0 = Fin: Not set" size="1" pos="47" show="0" value="0" unmaskedvalue="02"/>
      <field name="tcp.flags.str" showname="TCP Flags: \xc2\xb7\xc2\xb7\xc2\xb7\xc2\xb7\xc2\xb7\xc2\xb7\xc2\xb7\xc2\xb7\xc2\xb7\xc2\xb7S\xc2\xb7" size="2" pos="46" show="\xc2\xb7\xc2\xb7\xc2\xb7\xc2\xb7\xc2\xb7\xc2\xb7\xc2\xb7\xc2\xb7\xc2\xb7\xc2\xb7S\xc2\xb7" value="a002"/>
    </field>
    <field name="tcp.window_size_value" showname="Window size value: 64240" size="2" pos="48" show="64240" value="faf0"/>
    <field name="tcp.window_size" showname="Calculated window size: 64240" size="2" pos="48" show="64240" value="faf0"/>
    <field name="tcp.checksum" showname="Checksum: 0x2330 [unverified]" size="2" pos="50" show="0x00002330" value="2330"/>
    <field name="tcp.checksum.status" showname="Checksum Status: Unverified" size="0" pos="50" show="2"/>
    <field name="tcp.urgent_pointer" showname="Urgent pointer: 0" size="2" pos="52" show="0" value="0000"/>
    <field name="tcp.options" showname="Options: (20 bytes), Maximum segment size, SACK permitted, Timestamps, No-Operation (NOP), Window scale" size="20" pos="54" show="02:04:05:b4:04:02:08:0a:19:76:09:3f:00:00:00:00:01:03:03:07" value="020405b40402080a1976093f0000000001030307">
      <field name="tcp.options.mss" showname="TCP Option - Maximum segment size: 1460 bytes" size="4" pos="54" show="02:04:05:b4" value="020405b4">
        <field name="tcp.option_kind" showname="Kind: Maximum Segment Size (2)" size="1" pos="54" show="2" value="02"/>
        <field name="tcp.option_len" showname="Length: 4" size="1" pos="55" show="4" value="04"/>
        <field name="tcp.options.mss_val" showname="MSS Value: 1460" size="2" pos="56" show="1460" value="05b4"/>
      </field>
      <field name="tcp.options.sack_perm" showname="TCP Option - SACK permitted" size="2" pos="58" show="04:02" value="0402">
        <field name="tcp.option_kind" showname="Kind: SACK Permitted (4)" size="1" pos="58" show="4" value="04"/>
        <field name="tcp.option_len" showname="Length: 2" size="1" pos="59" show="2" value="02"/>
      </field>
      <field name="tcp.options.timestamp" showname="TCP Option - Timestamps: TSval 427166015, TSecr 0" size="10" pos="60" show="08:0a:19:76:09:3f:00:00:00:00" value="080a1976093f00000000">
        <field name="tcp.option_kind" showname="Kind: Time Stamp Option (8)" size="1" pos="60" show="8" value="08"/>
        <field name="tcp.option_len" showname="Length: 10" size="1" pos="61" show="10" value="0a"/>
        <field name="tcp.options.timestamp.tsval" showname="Timestamp value: 427166015" size="4" pos="62" show="427166015" value="1976093f"/>
        <field name="tcp.options.timestamp.tsecr" showname="Timestamp echo reply: 0" size="4" pos="66" show="0" value="00000000"/>
      </field>
      <field name="tcp.options.nop" showname="TCP Option - No-Operation (NOP)" size="1" pos="70" show="01" value="01">
        <field name="tcp.option_kind" showname="Kind: No-Operation (1)" size="1" pos="70" show="1" value="01"/>
      </field>
      <field name="tcp.options.wscale" showname="TCP Option - Window scale: 7 (multiply by 128)" size="3" pos="71" show="03:03:07" value="030307">
        <field name="tcp.option_kind" showname="Kind: Window Scale (3)" size="1" pos="71" show="3" value="03"/>
        <field name="tcp.option_len" showname="Length: 3" size="1" pos="72" show="3" value="03"/>
        <field name="tcp.options.wscale.shift" showname="Shift count: 7" size="1" pos="73" show="7" value="07"/>
        <field name="tcp.options.wscale.multiplier" showname="Multiplier: 128" size="1" pos="73" show="128" value="07"/>
      </field>
    </field>
    <field name="" show="Timestamps" size="0" pos="34">
      <field name="tcp.time_relative" showname="Time since first frame in this TCP stream: 3.016908485 seconds" size="0" pos="34" show="3.016908485"/>
      <field name="tcp.time_delta" showname="Time since previous frame in this TCP stream: 2.016053968 seconds" size="0" pos="34" show="2.016053968"/>
    </field>
  </proto>
</packet>


<packet>
  <proto name="geninfo" pos="0" showname="General information" size="74">
    <field name="num" pos="0" show="8" showname="Number" value="8" size="74"/>
    <field name="len" pos="0" show="74" showname="Frame Length" value="4a" size="74"/>
    <field name="caplen" pos="0" show="74" showname="Captured Length" value="4a" size="74"/>
    <field name="timestamp" pos="0" show="May 24, 2023 20:26:21.127691143 CEST" showname="Captured Time" value="1684952781.127691143" size="74"/>
  </proto>
  <proto name="frame" showname="Frame 8: 74 bytes on wire (592 bits), 74 bytes captured (592 bits) on interface veth_nssf, id 0" size="74" pos="0">
    <field name="filtered" value="frame" />
  </proto>
  <proto name="eth" showname="Ethernet II, Src: 7a:24:b4:3d:64:76, Dst: da:73:09:fb:97:ae" size="14" pos="0">
    <field name="filtered" value="eth" />
  </proto>
  <proto name="ip" showname="Internet Protocol Version 4, Src: 10.0.9.1, Dst: 10.0.6.1" size="20" pos="14">
    <field name="filtered" value="ip" />
  </proto>
  <proto name="tcp" showname="Transmission Control Protocol, Src Port: 7777, Dst Port: 40740, Seq: 3638056178, Ack: 4090257149, Len: 0" size="40" pos="34">
    <field name="tcp.srcport" showname="Source Port: 7777" size="2" pos="34" show="7777" value="1e61"/>
    <field name="tcp.dstport" showname="Destination Port: 40740" size="2" pos="36" show="40740" value="9f24"/>
    <field name="tcp.port" showname="Source or Destination Port: 7777" hide="yes" size="2" pos="34" show="7777" value="1e61"/>
    <field name="tcp.port" showname="Source or Destination Port: 40740" hide="yes" size="2" pos="36" show="40740" value="9f24"/>
    <field name="tcp.stream" showname="Stream index: 0" size="0" pos="34" show="0"/>
    <field name="tcp.len" showname="TCP Segment Len: 0" size="1" pos="46" show="0" value="a0"/>
    <field name="tcp.seq" showname="Sequence number: 3638056178" size="4" pos="38" show="3638056178" value="d8d854f2"/>
    <field name="tcp.seq_raw" showname="Sequence number (raw): 3638056178" hide="yes" size="4" pos="38" show="3638056178" value="d8d854f2"/>
    <field name="tcp.nxtseq" showname="Next sequence number: 3638056179" size="0" pos="34" show="3638056179"/>
    <field name="tcp.ack" showname="Acknowledgment number: 4090257149" size="4" pos="42" show="4090257149" value="f3cc5efd"/>
    <field name="tcp.ack_raw" showname="Acknowledgment number (raw): 4090257149" hide="yes" size="4" pos="42" show="4090257149" value="f3cc5efd"/>
    <field name="tcp.hdr_len" showname="1010 .... = Header Length: 40 bytes (10)" size="1" pos="46" show="40" value="a0"/>
    <field name="tcp.flags" showname="Flags: 0x012 (SYN, ACK)" size="2" pos="46" show="0x00000012" value="12" unmaskedvalue="a012">
      <field name="tcp.flags.res" showname="000. .... .... = Reserved: Not set" size="1" pos="46" show="0" value="0" unmaskedvalue="a0"/>
      <field name="tcp.flags.ns" showname="...0 .... .... = Nonce: Not set" size="1" pos="46" show="0" value="0" unmaskedvalue="a0"/>
      <field name="tcp.flags.cwr" showname=".... 0... .... = Congestion Window Reduced (CWR): Not set" size="1" pos="47" show="0" value="0" unmaskedvalue="12"/>
      <field name="tcp.flags.ecn" showname=".... .0.. .... = ECN-Echo: Not set" size="1" pos="47" show="0" value="0" unmaskedvalue="12"/>
      <field name="tcp.flags.urg" showname=".... ..0. .... = Urgent: Not set" size="1" pos="47" show="0" value="0" unmaskedvalue="12"/>
      <field name="tcp.flags.ack" showname=".... ...1 .... = Acknowledgment: Set" size="1" pos="47" show="1" value="1" unmaskedvalue="12"/>
      <field name="tcp.flags.push" showname=".... .... 0... = Push: Not set" size="1" pos="47" show="0" value="0" unmaskedvalue="12"/>
      <field name="tcp.flags.reset" showname=".... .... .0.. = Reset: Not set" size="1" pos="47" show="0" value="0" unmaskedvalue="12"/>
      <field name="tcp.flags.syn" showname=".... .... ..1. = Syn: Set" size="1" pos="47" show="1" value="1" unmaskedvalue="12">
        <field name="_ws.expert" showname="Expert Info (Chat/Sequence): Connection establish acknowledge (SYN+ACK): server port 7777" size="0" pos="47">
          <field name="tcp.connection.sack" showname="Connection establish acknowledge (SYN+ACK): server port 7777" size="0" pos="0" show="" value=""/>
          <field name="_ws.expert.message" showname="Message: Connection establish acknowledge (SYN+ACK): server port 7777" hide="yes" size="0" pos="0" show="Connection establish acknowledge (SYN+ACK): server port 7777"/>
          <field name="_ws.expert.severity" showname="Severity level: Chat" size="0" pos="0" show="2097152"/>
          <field name="_ws.expert.group" showname="Group: Sequence" size="0" pos="0" show="33554432"/>
        </field>
      </field>
      <field name="tcp.flags.fin" showname=".... .... ...0 = Fin: Not set" size="1" pos="47" show="0" value="0" unmaskedvalue="12"/>
      <field name="tcp.flags.str" showname="TCP Flags: \xc2\xb7\xc2\xb7\xc2\xb7\xc2\xb7\xc2\xb7\xc2\xb7\xc2\xb7A\xc2\xb7\xc2\xb7S\xc2\xb7" size="2" pos="46" show="\xc2\xb7\xc2\xb7\xc2\xb7\xc2\xb7\xc2\xb7\xc2\xb7\xc2\xb7A\xc2\xb7\xc2\xb7S\xc2\xb7" value="a012"/>
    </field>
    <field name="tcp.window_size_value" showname="Window size value: 65160" size="2" pos="48" show="65160" value="fe88"/>
    <field name="tcp.window_size" showname="Calculated window size: 65160" size="2" pos="48" show="65160" value="fe88"/>
    <field name="tcp.checksum" showname="Checksum: 0x2330 [unverified]" size="2" pos="50" show="0x00002330" value="2330"/>
    <field name="tcp.checksum.status" showname="Checksum Status: Unverified" size="0" pos="50" show="2"/>
    <field name="tcp.urgent_pointer" showname="Urgent pointer: 0" size="2" pos="52" show="0" value="0000"/>
    <field name="tcp.options" showname="Options: (20 bytes), Maximum segment size, SACK permitted, Timestamps, No-Operation (NOP), Window scale" size="20" pos="54" show="02:04:05:b4:04:02:08:0a:ef:cd:a1:81:19:76:09:3f:01:03:03:07" value="020405b40402080aefcda1811976093f01030307">
      <field name="tcp.options.mss" showname="TCP Option - Maximum segment size: 1460 bytes" size="4" pos="54" show="02:04:05:b4" value="020405b4">
        <field name="tcp.option_kind" showname="Kind: Maximum Segment Size (2)" size="1" pos="54" show="2" value="02"/>
        <field name="tcp.option_len" showname="Length: 4" size="1" pos="55" show="4" value="04"/>
        <field name="tcp.options.mss_val" showname="MSS Value: 1460" size="2" pos="56" show="1460" value="05b4"/>
      </field>
      <field name="tcp.options.sack_perm" showname="TCP Option - SACK permitted" size="2" pos="58" show="04:02" value="0402">
        <field name="tcp.option_kind" showname="Kind: SACK Permitted (4)" size="1" pos="58" show="4" value="04"/>
        <field name="tcp.option_len" showname="Length: 2" size="1" pos="59" show="2" value="02"/>
      </field>
      <field name="tcp.options.timestamp" showname="TCP Option - Timestamps: TSval 4023230849, TSecr 427166015" size="10" pos="60" show="08:0a:ef:cd:a1:81:19:76:09:3f" value="080aefcda1811976093f">
        <field name="tcp.option_kind" showname="Kind: Time Stamp Option (8)" size="1" pos="60" show="8" value="08"/>
        <field name="tcp.option_len" showname="Length: 10" size="1" pos="61" show="10" value="0a"/>
        <field name="tcp.options.timestamp.tsval" showname="Timestamp value: 4023230849" size="4" pos="62" show="4023230849" value="efcda181"/>
        <field name="tcp.options.timestamp.tsecr" showname="Timestamp echo reply: 427166015" size="4" pos="66" show="427166015" value="1976093f"/>
      </field>
      <field name="tcp.options.nop" showname="TCP Option - No-Operation (NOP)" size="1" pos="70" show="01" value="01">
        <field name="tcp.option_kind" showname="Kind: No-Operation (1)" size="1" pos="70" show="1" value="01"/>
      </field>
      <field name="tcp.options.wscale" showname="TCP Option - Window scale: 7 (multiply by 128)" size="3" pos="71" show="03:03:07" value="030307">
        <field name="tcp.option_kind" showname="Kind: Window Scale (3)" size="1" pos="71" show="3" value="03"/>
        <field name="tcp.option_len" showname="Length: 3" size="1" pos="72" show="3" value="03"/>
        <field name="tcp.options.wscale.shift" showname="Shift count: 7" size="1" pos="73" show="7" value="07"/>
        <field name="tcp.options.wscale.multiplier" showname="Multiplier: 128" size="1" pos="73" show="128" value="07"/>
      </field>
    </field>
    <field name="" show="Timestamps" size="0" pos="34">
      <field name="tcp.time_relative" showname="Time since first frame in this TCP stream: 3.016927426 seconds" size="0" pos="34" show="3.016927426"/>
      <field name="tcp.time_delta" showname="Time since previous frame in this TCP stream: 0.000018941 seconds" size="0" pos="34" show="0.000018941"/>
    </field>
  </proto>
</packet>


<packet>
  <proto name="geninfo" pos="0" showname="General information" size="54">
    <field name="num" pos="0" show="9" showname="Number" value="9" size="54"/>
    <field name="len" pos="0" show="54" showname="Frame Length" value="36" size="54"/>
    <field name="caplen" pos="0" show="54" showname="Captured Length" value="36" size="54"/>
    <field name="timestamp" pos="0" show="May 24, 2023 20:26:21.127709966 CEST" showname="Captured Time" value="1684952781.127709966" size="54"/>
  </proto>
  <proto name="frame" showname="Frame 9: 54 bytes on wire (432 bits), 54 bytes captured (432 bits) on interface veth_nssf, id 0" size="54" pos="0">
    <field name="filtered" value="frame" />
  </proto>
  <proto name="eth" showname="Ethernet II, Src: da:73:09:fb:97:ae, Dst: 7a:24:b4:3d:64:76" size="14" pos="0">
    <field name="filtered" value="eth" />
  </proto>
  <proto name="ip" showname="Internet Protocol Version 4, Src: 10.0.6.1, Dst: 10.0.9.1" size="20" pos="14">
    <field name="filtered" value="ip" />
  </proto>
  <proto name="tcp" showname="Transmission Control Protocol, Src Port: 40740, Dst Port: 7777, Seq: 4090257149, Len: 0" size="20" pos="34">
    <field name="tcp.srcport" showname="Source Port: 40740" size="2" pos="34" show="40740" value="9f24"/>
    <field name="tcp.dstport" showname="Destination Port: 7777" size="2" pos="36" show="7777" value="1e61"/>
    <field name="tcp.port" showname="Source or Destination Port: 40740" hide="yes" size="2" pos="34" show="40740" value="9f24"/>
    <field name="tcp.port" showname="Source or Destination Port: 7777" hide="yes" size="2" pos="36" show="7777" value="1e61"/>
    <field name="tcp.stream" showname="Stream index: 0" size="0" pos="34" show="0"/>
    <field name="tcp.len" showname="TCP Segment Len: 0" size="1" pos="46" show="0" value="50"/>
    <field name="tcp.seq" showname="Sequence number: 4090257149" size="4" pos="38" show="4090257149" value="f3cc5efd"/>
    <field name="tcp.seq_raw" showname="Sequence number (raw): 4090257149" hide="yes" size="4" pos="38" show="4090257149" value="f3cc5efd"/>
    <field name="tcp.nxtseq" showname="Next sequence number: 4090257149" size="0" pos="34" show="4090257149"/>
    <field name="tcp.ack" showname="Acknowledgment number: 0" size="4" pos="42" show="0" value="00000000"/>
    <field name="tcp.ack_raw" showname="Acknowledgment number (raw): 0" size="4" pos="42" show="0" value="00000000"/>
    <field name="tcp.hdr_len" showname="0101 .... = Header Length: 20 bytes (5)" size="1" pos="46" show="20" value="50"/>
    <field name="tcp.flags" showname="Flags: 0x004 (RST)" size="2" pos="46" show="0x00000004" value="4" unmaskedvalue="5004">
      <field name="tcp.flags.res" showname="000. .... .... = Reserved: Not set" size="1" pos="46" show="0" value="0" unmaskedvalue="50"/>
      <field name="tcp.flags.ns" showname="...0 .... .... = Nonce: Not set" size="1" pos="46" show="0" value="0" unmaskedvalue="50"/>
      <field name="tcp.flags.cwr" showname=".... 0... .... = Congestion Window Reduced (CWR): Not set" size="1" pos="47" show="0" value="0" unmaskedvalue="04"/>
      <field name="tcp.flags.ecn" showname=".... .0.. .... = ECN-Echo: Not set" size="1" pos="47" show="0" value="0" unmaskedvalue="04"/>
      <field name="tcp.flags.urg" showname=".... ..0. .... = Urgent: Not set" size="1" pos="47" show="0" value="0" unmaskedvalue="04"/>
      <field name="tcp.flags.ack" showname=".... ...0 .... = Acknowledgment: Not set" size="1" pos="47" show="0" value="0" unmaskedvalue="04"/>
      <field name="tcp.flags.push" showname=".... .... 0... = Push: Not set" size="1" pos="47" show="0" value="0" unmaskedvalue="04"/>
      <field name="tcp.flags.reset" showname=".... .... .1.. = Reset: Set" size="1" pos="47" show="1" value="1" unmaskedvalue="04">
        <field name="_ws.expert" showname="Expert Info (Warning/Sequence): Connection reset (RST)" size="0" pos="47">
          <field name="tcp.connection.rst" showname="Connection reset (RST)" size="0" pos="0" show="" value=""/>
          <field name="_ws.expert.message" showname="Message: Connection reset (RST)" hide="yes" size="0" pos="0" show="Connection reset (RST)"/>
          <field name="_ws.expert.severity" showname="Severity level: Warning" size="0" pos="0" show="6291456"/>
          <field name="_ws.expert.group" showname="Group: Sequence" size="0" pos="0" show="33554432"/>
        </field>
      </field>
      <field name="tcp.flags.syn" showname=".... .... ..0. = Syn: Not set" size="1" pos="47" show="0" value="0" unmaskedvalue="04"/>
      <field name="tcp.flags.fin" showname=".... .... ...0 = Fin: Not set" size="1" pos="47" show="0" value="0" unmaskedvalue="04"/>
      <field name="tcp.flags.str" showname="TCP Flags: \xc2\xb7\xc2\xb7\xc2\xb7\xc2\xb7\xc2\xb7\xc2\xb7\xc2\xb7\xc2\xb7\xc2\xb7R\xc2\xb7\xc2\xb7" size="2" pos="46" show="\xc2\xb7\xc2\xb7\xc2\xb7\xc2\xb7\xc2\xb7\xc2\xb7\xc2\xb7\xc2\xb7\xc2\xb7R\xc2\xb7\xc2\xb7" value="5004"/>
    </field>
    <field name="tcp.window_size_value" showname="Window size value: 0" size="2" pos="48" show="0" value="0000"/>
    <field name="tcp.window_size" showname="Calculated window size: 0" size="2" pos="48" show="0" value="0000"/>
    <field name="tcp.window_size_scalefactor" showname="Window size scaling factor: 128" size="2" pos="48" show="128" value="0000"/>
    <field name="tcp.checksum" showname="Checksum: 0x7c8f [unverified]" size="2" pos="50" show="0x00007c8f" value="7c8f"/>
    <field name="tcp.checksum.status" showname="Checksum Status: Unverified" size="0" pos="50" show="2"/>
    <field name="tcp.urgent_pointer" showname="Urgent pointer: 0" size="2" pos="52" show="0" value="0000"/>
    <field name="" show="Timestamps" size="0" pos="34">
      <field name="tcp.time_relative" showname="Time since first frame in this TCP stream: 3.016946249 seconds" size="0" pos="34" show="3.016946249"/>
      <field name="tcp.time_delta" showname="Time since previous frame in this TCP stream: 0.000018823 seconds" size="0" pos="34" show="0.000018823"/>
    </field>
  </proto>
</packet>


<packet>
  <proto name="geninfo" pos="0" showname="General information" size="132">
    <field name="num" pos="0" show="10" showname="Number" value="a" size="132"/>
    <field name="len" pos="0" show="132" showname="Frame Length" value="84" size="132"/>
    <field name="caplen" pos="0" show="132" showname="Captured Length" value="84" size="132"/>
    <field name="timestamp" pos="0" show="May 24, 2023 20:26:21.330751133 CEST" showname="Captured Time" value="1684952781.330751133" size="132"/>
  </proto>
  <proto name="frame" showname="Frame 10: 132 bytes on wire (1056 bits), 132 bytes captured (1056 bits) on interface veth_nssf, id 0" size="132" pos="0">
    <field name="filtered" value="frame" />
  </proto>
  <proto name="eth" showname="Ethernet II, Src: 7a:24:b4:3d:64:76, Dst: da:73:09:fb:97:ae" size="14" pos="0">
    <field name="filtered" value="eth" />
  </proto>
  <proto name="ip" showname="Internet Protocol Version 4, Src: 10.0.9.1, Dst: 10.0.8.1" size="20" pos="14">
    <field name="filtered" value="ip" />
  </proto>
  <proto name="tcp" showname="Transmission Control Protocol, Src Port: 58294, Dst Port: 7777, Seq: 1434351336, Ack: 2327922185, Len: 66" size="32" pos="34">
    <field name="tcp.srcport" showname="Source Port: 58294" size="2" pos="34" show="58294" value="e3b6"/>
    <field name="tcp.dstport" showname="Destination Port: 7777" size="2" pos="36" show="7777" value="1e61"/>
    <field name="tcp.port" showname="Source or Destination Port: 58294" hide="yes" size="2" pos="34" show="58294" value="e3b6"/>
    <field name="tcp.port" showname="Source or Destination Port: 7777" hide="yes" size="2" pos="36" show="7777" value="1e61"/>
    <field name="tcp.stream" showname="Stream index: 1" size="0" pos="34" show="1"/>
    <field name="tcp.len" showname="TCP Segment Len: 66" size="1" pos="46" show="66" value="80"/>
    <field name="tcp.seq" showname="Sequence number: 1434351336" size="4" pos="38" show="1434351336" value="557e76e8"/>
    <field name="tcp.seq_raw" showname="Sequence number (raw): 1434351336" hide="yes" size="4" pos="38" show="1434351336" value="557e76e8"/>
    <field name="tcp.nxtseq" showname="Next sequence number: 1434351402" size="0" pos="34" show="1434351402"/>
    <field name="tcp.ack" showname="Acknowledgment number: 2327922185" size="4" pos="42" show="2327922185" value="8ac14609"/>
    <field name="tcp.ack_raw" showname="Acknowledgment number (raw): 2327922185" hide="yes" size="4" pos="42" show="2327922185" value="8ac14609"/>
    <field name="tcp.hdr_len" showname="1000 .... = Header Length: 32 bytes (8)" size="1" pos="46" show="32" value="80"/>
    <field name="tcp.flags" showname="Flags: 0x018 (PSH, ACK)" size="2" pos="46" show="0x00000018" value="18" unmaskedvalue="8018">
      <field name="tcp.flags.res" showname="000. .... .... = Reserved: Not set" size="1" pos="46" show="0" value="0" unmaskedvalue="80"/>
      <field name="tcp.flags.ns" showname="...0 .... .... = Nonce: Not set" size="1" pos="46" show="0" value="0" unmaskedvalue="80"/>
      <field name="tcp.flags.cwr" showname=".... 0... .... = Congestion Window Reduced (CWR): Not set" size="1" pos="47" show="0" value="0" unmaskedvalue="18"/>
      <field name="tcp.flags.ecn" showname=".... .0.. .... = ECN-Echo: Not set" size="1" pos="47" show="0" value="0" unmaskedvalue="18"/>
      <field name="tcp.flags.urg" showname=".... ..0. .... = Urgent: Not set" size="1" pos="47" show="0" value="0" unmaskedvalue="18"/>
      <field name="tcp.flags.ack" showname=".... ...1 .... = Acknowledgment: Set" size="1" pos="47" show="1" value="1" unmaskedvalue="18"/>
      <field name="tcp.flags.push" showname=".... .... 1... = Push: Set" size="1" pos="47" show="1" value="1" unmaskedvalue="18"/>
      <field name="tcp.flags.reset" showname=".... .... .0.. = Reset: Not set" size="1" pos="47" show="0" value="0" unmaskedvalue="18"/>
      <field name="tcp.flags.syn" showname=".... .... ..0. = Syn: Not set" size="1" pos="47" show="0" value="0" unmaskedvalue="18"/>
      <field name="tcp.flags.fin" showname=".... .... ...0 = Fin: Not set" size="1" pos="47" show="0" value="0" unmaskedvalue="18"/>
      <field name="tcp.flags.str" showname="TCP Flags: \xc2\xb7\xc2\xb7\xc2\xb7\xc2\xb7\xc2\xb7\xc2\xb7\xc2\xb7AP\xc2\xb7\xc2\xb7\xc2\xb7" size="2" pos="46" show="\xc2\xb7\xc2\xb7\xc2\xb7\xc2\xb7\xc2\xb7\xc2\xb7\xc2\xb7AP\xc2\xb7\xc2\xb7\xc2\xb7" value="8018"/>
    </field>
    <field name="tcp.window_size_value" showname="Window size value: 501" size="2" pos="48" show="501" value="01f5"/>
    <field name="tcp.window_size" showname="Calculated window size: 501" size="2" pos="48" show="501" value="01f5"/>
    <field name="tcp.window_size_scalefactor" showname="Window size scaling factor: -1 (unknown)" size="2" pos="48" show="-1" value="01f5"/>
    <field name="tcp.checksum" showname="Checksum: 0x256a [unverified]" size="2" pos="50" show="0x0000256a" value="256a"/>
    <field name="tcp.checksum.status" showname="Checksum Status: Unverified" size="0" pos="50" show="2"/>
    <field name="tcp.urgent_pointer" showname="Urgent pointer: 0" size="2" pos="52" show="0" value="0000"/>
    <field name="tcp.options" showname="Options: (12 bytes), No-Operation (NOP), No-Operation (NOP), Timestamps" size="12" pos="54" show="01:01:08:0a:c5:32:dd:0b:c6:a2:e6:1d" value="0101080ac532dd0bc6a2e61d">
      <field name="tcp.options.nop" showname="TCP Option - No-Operation (NOP)" size="1" pos="54" show="01" value="01">
        <field name="tcp.option_kind" showname="Kind: No-Operation (1)" size="1" pos="54" show="1" value="01"/>
      </field>
      <field name="tcp.options.nop" showname="TCP Option - No-Operation (NOP)" size="1" pos="55" show="01" value="01">
        <field name="tcp.option_kind" showname="Kind: No-Operation (1)" size="1" pos="55" show="1" value="01"/>
      </field>
      <field name="tcp.options.timestamp" showname="TCP Option - Timestamps: TSval 3308444939, TSecr 3332564509" size="10" pos="56" show="08:0a:c5:32:dd:0b:c6:a2:e6:1d" value="080ac532dd0bc6a2e61d">
        <field name="tcp.option_kind" showname="Kind: Time Stamp Option (8)" size="1" pos="56" show="8" value="08"/>
        <field name="tcp.option_len" showname="Length: 10" size="1" pos="57" show="10" value="0a"/>
        <field name="tcp.options.timestamp.tsval" showname="Timestamp value: 3308444939" size="4" pos="58" show="3308444939" value="c532dd0b"/>
        <field name="tcp.options.timestamp.tsecr" showname="Timestamp echo reply: 3332564509" size="4" pos="62" show="3332564509" value="c6a2e61d"/>
      </field>
    </field>
    <field name="" show="Timestamps" size="0" pos="34">
      <field name="tcp.time_relative" showname="Time since first frame in this TCP stream: 0.000000000 seconds" size="0" pos="34" show="0.000000000"/>
      <field name="tcp.time_delta" showname="Time since previous frame in this TCP stream: 0.000000000 seconds" size="0" pos="34" show="0.000000000"/>
    </field>
    <field name="tcp.payload" showname="TCP payload (66 bytes)" size="66" pos="66" show="00:00:39:01:04:00:00:01:fd:c1:04:ad:62:aa:ac:95:6a:a5:a5:8e:e1:62:a9:56:35:48:48:ea:21:50:c3:6c:8a:49:1b:74:4b:4a:fc:ac:ac:d0:4b:22:d1:b6:fb:cb:47:20:c5:2c:63:78:24:96:4f:86:c4:c0:c3:0f:0d:02:37:32" value="0000390104000001fdc104ad62aaac956aa5a58ee162a956354848ea2150c36c8a491b744b4afcacacd04b22d1b6fbcb4720c52c637824964f86c4c0c30f0d023732"/>
    <field name="tcp.pdu.size" showname="PDU Size: 66" size="66" pos="66" show="66" value="0000390104000001fdc104ad62aaac956aa5a58ee162a956354848ea2150c36c8a491b744b4afcacacd04b22d1b6fbcb4720c52c637824964f86c4c0c30f0d023732"/>
  </proto>
  <proto name="http2" showname="HyperText Transfer Protocol 2" size="66" pos="66">
    <field name="filtered" value="http2" />
  </proto>
</packet>


<packet>
  <proto name="geninfo" pos="0" showname="General information" size="147">
    <field name="num" pos="0" show="11" showname="Number" value="b" size="147"/>
    <field name="len" pos="0" show="147" showname="Frame Length" value="93" size="147"/>
    <field name="caplen" pos="0" show="147" showname="Captured Length" value="93" size="147"/>
    <field name="timestamp" pos="0" show="May 24, 2023 20:26:21.330806840 CEST" showname="Captured Time" value="1684952781.330806840" size="147"/>
  </proto>
  <proto name="frame" showname="Frame 11: 147 bytes on wire (1176 bits), 147 bytes captured (1176 bits) on interface veth_nssf, id 0" size="147" pos="0">
    <field name="filtered" value="frame" />
  </proto>
  <proto name="eth" showname="Ethernet II, Src: 7a:24:b4:3d:64:76, Dst: da:73:09:fb:97:ae" size="14" pos="0">
    <field name="filtered" value="eth" />
  </proto>
  <proto name="ip" showname="Internet Protocol Version 4, Src: 10.0.9.1, Dst: 10.0.8.1" size="20" pos="14">
    <field name="filtered" value="ip" />
  </proto>
  <proto name="tcp" showname="Transmission Control Protocol, Src Port: 58294, Dst Port: 7777, Seq: 1434351402, Ack: 2327922185, Len: 81" size="32" pos="34">
    <field name="tcp.srcport" showname="Source Port: 58294" size="2" pos="34" show="58294" value="e3b6"/>
    <field name="tcp.dstport" showname="Destination Port: 7777" size="2" pos="36" show="7777" value="1e61"/>
    <field name="tcp.port" showname="Source or Destination Port: 58294" hide="yes" size="2" pos="34" show="58294" value="e3b6"/>
    <field name="tcp.port" showname="Source or Destination Port: 7777" hide="yes" size="2" pos="36" show="7777" value="1e61"/>
    <field name="tcp.stream" showname="Stream index: 1" size="0" pos="34" show="1"/>
    <field name="tcp.len" showname="TCP Segment Len: 81" size="1" pos="46" show="81" value="80"/>
    <field name="tcp.seq" showname="Sequence number: 1434351402" size="4" pos="38" show="1434351402" value="557e772a"/>
    <field name="tcp.seq_raw" showname="Sequence number (raw): 1434351402" hide="yes" size="4" pos="38" show="1434351402" value="557e772a"/>
    <field name="tcp.nxtseq" showname="Next sequence number: 1434351483" size="0" pos="34" show="1434351483"/>
    <field name="tcp.ack" showname="Acknowledgment number: 2327922185" size="4" pos="42" show="2327922185" value="8ac14609"/>
    <field name="tcp.ack_raw" showname="Acknowledgment number (raw): 2327922185" hide="yes" size="4" pos="42" show="2327922185" value="8ac14609"/>
    <field name="tcp.hdr_len" showname="1000 .... = Header Length: 32 bytes (8)" size="1" pos="46" show="32" value="80"/>
    <field name="tcp.flags" showname="Flags: 0x018 (PSH, ACK)" size="2" pos="46" show="0x00000018" value="18" unmaskedvalue="8018">
      <field name="tcp.flags.res" showname="000. .... .... = Reserved: Not set" size="1" pos="46" show="0" value="0" unmaskedvalue="80"/>
      <field name="tcp.flags.ns" showname="...0 .... .... = Nonce: Not set" size="1" pos="46" show="0" value="0" unmaskedvalue="80"/>
      <field name="tcp.flags.cwr" showname=".... 0... .... = Congestion Window Reduced (CWR): Not set" size="1" pos="47" show="0" value="0" unmaskedvalue="18"/>
      <field name="tcp.flags.ecn" showname=".... .0.. .... = ECN-Echo: Not set" size="1" pos="47" show="0" value="0" unmaskedvalue="18"/>
      <field name="tcp.flags.urg" showname=".... ..0. .... = Urgent: Not set" size="1" pos="47" show="0" value="0" unmaskedvalue="18"/>
      <field name="tcp.flags.ack" showname=".... ...1 .... = Acknowledgment: Set" size="1" pos="47" show="1" value="1" unmaskedvalue="18"/>
      <field name="tcp.flags.push" showname=".... .... 1... = Push: Set" size="1" pos="47" show="1" value="1" unmaskedvalue="18"/>
      <field name="tcp.flags.reset" showname=".... .... .0.. = Reset: Not set" size="1" pos="47" show="0" value="0" unmaskedvalue="18"/>
      <field name="tcp.flags.syn" showname=".... .... ..0. = Syn: Not set" size="1" pos="47" show="0" value="0" unmaskedvalue="18"/>
      <field name="tcp.flags.fin" showname=".... .... ...0 = Fin: Not set" size="1" pos="47" show="0" value="0" unmaskedvalue="18"/>
      <field name="tcp.flags.str" showname="TCP Flags: \xc2\xb7\xc2\xb7\xc2\xb7\xc2\xb7\xc2\xb7\xc2\xb7\xc2\xb7AP\xc2\xb7\xc2\xb7\xc2\xb7" size="2" pos="46" show="\xc2\xb7\xc2\xb7\xc2\xb7\xc2\xb7\xc2\xb7\xc2\xb7\xc2\xb7AP\xc2\xb7\xc2\xb7\xc2\xb7" value="8018"/>
    </field>
    <field name="tcp.window_size_value" showname="Window size value: 501" size="2" pos="48" show="501" value="01f5"/>
    <field name="tcp.window_size" showname="Calculated window size: 501" size="2" pos="48" show="501" value="01f5"/>
    <field name="tcp.window_size_scalefactor" showname="Window size scaling factor: -1 (unknown)" size="2" pos="48" show="-1" value="01f5"/>
    <field name="tcp.checksum" showname="Checksum: 0x2579 [unverified]" size="2" pos="50" show="0x00002579" value="2579"/>
    <field name="tcp.checksum.status" showname="Checksum Status: Unverified" size="0" pos="50" show="2"/>
    <field name="tcp.urgent_pointer" showname="Urgent pointer: 0" size="2" pos="52" show="0" value="0000"/>
    <field name="tcp.options" showname="Options: (12 bytes), No-Operation (NOP), No-Operation (NOP), Timestamps" size="12" pos="54" show="01:01:08:0a:c5:32:dd:0b:c6:a2:e6:1d" value="0101080ac532dd0bc6a2e61d">
      <field name="tcp.options.nop" showname="TCP Option - No-Operation (NOP)" size="1" pos="54" show="01" value="01">
        <field name="tcp.option_kind" showname="Kind: No-Operation (1)" size="1" pos="54" show="1" value="01"/>
      </field>
      <field name="tcp.options.nop" showname="TCP Option - No-Operation (NOP)" size="1" pos="55" show="01" value="01">
        <field name="tcp.option_kind" showname="Kind: No-Operation (1)" size="1" pos="55" show="1" value="01"/>
      </field>
      <field name="tcp.options.timestamp" showname="TCP Option - Timestamps: TSval 3308444939, TSecr 3332564509" size="10" pos="56" show="08:0a:c5:32:dd:0b:c6:a2:e6:1d" value="080ac532dd0bc6a2e61d">
        <field name="tcp.option_kind" showname="Kind: Time Stamp Option (8)" size="1" pos="56" show="8" value="08"/>
        <field name="tcp.option_len" showname="Length: 10" size="1" pos="57" show="10" value="0a"/>
        <field name="tcp.options.timestamp.tsval" showname="Timestamp value: 3308444939" size="4" pos="58" show="3308444939" value="c532dd0b"/>
        <field name="tcp.options.timestamp.tsecr" showname="Timestamp echo reply: 3332564509" size="4" pos="62" show="3332564509" value="c6a2e61d"/>
      </field>
    </field>
    <field name="" show="Timestamps" size="0" pos="34">
      <field name="tcp.time_relative" showname="Time since first frame in this TCP stream: 0.000055707 seconds" size="0" pos="34" show="0.000055707"/>
      <field name="tcp.time_delta" showname="Time since previous frame in this TCP stream: 0.000055707 seconds" size="0" pos="34" show="0.000055707"/>
    </field>
    <field name="tcp.payload" showname="TCP payload (81 bytes)" size="81" pos="66" show="00:00:48:00:01:00:00:01:fd:5b:7b:0a:09:09:22:6f:70:22:3a:09:22:72:65:70:6c:61:63:65:22:2c:0a:09:09:22:70:61:74:68:22:3a:09:22:2f:6e:66:53:74:61:74:75:73:22:2c:0a:09:09:22:76:61:6c:75:65:22:3a:09:22:52:45:47:49:53:54:45:52:45:44:22:0a:09:7d:5d" value="0000480001000001fd5b7b0a0909226f70223a09227265706c616365222c0a09092270617468223a09222f6e66537461747573222c0a09092276616c7565223a092252454749535445524544220a097d5d"/>
    <field name="tcp.pdu.size" showname="PDU Size: 81" size="81" pos="66" show="81" value="0000480001000001fd5b7b0a0909226f70223a09227265706c616365222c0a09092270617468223a09222f6e66537461747573222c0a09092276616c7565223a092252454749535445524544220a097d5d"/>
  </proto>
  <proto name="http2" showname="HyperText Transfer Protocol 2" size="81" pos="66">
    <field name="filtered" value="http2" />
  </proto>
</packet>


<packet>
  <proto name="geninfo" pos="0" showname="General information" size="66">
    <field name="num" pos="0" show="12" showname="Number" value="c" size="66"/>
    <field name="len" pos="0" show="66" showname="Frame Length" value="42" size="66"/>
    <field name="caplen" pos="0" show="66" showname="Captured Length" value="42" size="66"/>
    <field name="timestamp" pos="0" show="May 24, 2023 20:26:21.331205975 CEST" showname="Captured Time" value="1684952781.331205975" size="66"/>
  </proto>
  <proto name="frame" showname="Frame 12: 66 bytes on wire (528 bits), 66 bytes captured (528 bits) on interface veth_nssf, id 0" size="66" pos="0">
    <field name="filtered" value="frame" />
  </proto>
  <proto name="eth" showname="Ethernet II, Src: da:73:09:fb:97:ae, Dst: 7a:24:b4:3d:64:76" size="14" pos="0">
    <field name="filtered" value="eth" />
  </proto>
  <proto name="ip" showname="Internet Protocol Version 4, Src: 10.0.8.1, Dst: 10.0.9.1" size="20" pos="14">
    <field name="filtered" value="ip" />
  </proto>
  <proto name="tcp" showname="Transmission Control Protocol, Src Port: 7777, Dst Port: 58294, Seq: 2327922185, Ack: 1434351483, Len: 0" size="32" pos="34">
    <field name="tcp.srcport" showname="Source Port: 7777" size="2" pos="34" show="7777" value="1e61"/>
    <field name="tcp.dstport" showname="Destination Port: 58294" size="2" pos="36" show="58294" value="e3b6"/>
    <field name="tcp.port" showname="Source or Destination Port: 7777" hide="yes" size="2" pos="34" show="7777" value="1e61"/>
    <field name="tcp.port" showname="Source or Destination Port: 58294" hide="yes" size="2" pos="36" show="58294" value="e3b6"/>
    <field name="tcp.stream" showname="Stream index: 1" size="0" pos="34" show="1"/>
    <field name="tcp.len" showname="TCP Segment Len: 0" size="1" pos="46" show="0" value="80"/>
    <field name="tcp.seq" showname="Sequence number: 2327922185" size="4" pos="38" show="2327922185" value="8ac14609"/>
    <field name="tcp.seq_raw" showname="Sequence number (raw): 2327922185" hide="yes" size="4" pos="38" show="2327922185" value="8ac14609"/>
    <field name="tcp.nxtseq" showname="Next sequence number: 2327922185" size="0" pos="34" show="2327922185"/>
    <field name="tcp.ack" showname="Acknowledgment number: 1434351483" size="4" pos="42" show="1434351483" value="557e777b"/>
    <field name="tcp.ack_raw" showname="Acknowledgment number (raw): 1434351483" hide="yes" size="4" pos="42" show="1434351483" value="557e777b"/>
    <field name="tcp.hdr_len" showname="1000 .... = Header Length: 32 bytes (8)" size="1" pos="46" show="32" value="80"/>
    <field name="tcp.flags" showname="Flags: 0x010 (ACK)" size="2" pos="46" show="0x00000010" value="10" unmaskedvalue="8010">
      <field name="tcp.flags.res" showname="000. .... .... = Reserved: Not set" size="1" pos="46" show="0" value="0" unmaskedvalue="80"/>
      <field name="tcp.flags.ns" showname="...0 .... .... = Nonce: Not set" size="1" pos="46" show="0" value="0" unmaskedvalue="80"/>
      <field name="tcp.flags.cwr" showname=".... 0... .... = Congestion Window Reduced (CWR): Not set" size="1" pos="47" show="0" value="0" unmaskedvalue="10"/>
      <field name="tcp.flags.ecn" showname=".... .0.. .... = ECN-Echo: Not set" size="1" pos="47" show="0" value="0" unmaskedvalue="10"/>
      <field name="tcp.flags.urg" showname=".... ..0. .... = Urgent: Not set" size="1" pos="47" show="0" value="0" unmaskedvalue="10"/>
      <field name="tcp.flags.ack" showname=".... ...1 .... = Acknowledgment: Set" size="1" pos="47" show="1" value="1" unmaskedvalue="10"/>
      <field name="tcp.flags.push" showname=".... .... 0... = Push: Not set" size="1" pos="47" show="0" value="0" unmaskedvalue="10"/>
      <field name="tcp.flags.reset" showname=".... .... .0.. = Reset: Not set" size="1" pos="47" show="0" value="0" unmaskedvalue="10"/>
      <field name="tcp.flags.syn" showname=".... .... ..0. = Syn: Not set" size="1" pos="47" show="0" value="0" unmaskedvalue="10"/>
      <field name="tcp.flags.fin" showname=".... .... ...0 = Fin: Not set" size="1" pos="47" show="0" value="0" unmaskedvalue="10"/>
      <field name="tcp.flags.str" showname="TCP Flags: \xc2\xb7\xc2\xb7\xc2\xb7\xc2\xb7\xc2\xb7\xc2\xb7\xc2\xb7A\xc2\xb7\xc2\xb7\xc2\xb7\xc2\xb7" size="2" pos="46" show="\xc2\xb7\xc2\xb7\xc2\xb7\xc2\xb7\xc2\xb7\xc2\xb7\xc2\xb7A\xc2\xb7\xc2\xb7\xc2\xb7\xc2\xb7" value="8010"/>
    </field>
    <field name="tcp.window_size_value" showname="Window size value: 501" size="2" pos="48" show="501" value="01f5"/>
    <field name="tcp.window_size" showname="Calculated window size: 501" size="2" pos="48" show="501" value="01f5"/>
    <field name="tcp.window_size_scalefactor" showname="Window size scaling factor: -1 (unknown)" size="2" pos="48" show="-1" value="01f5"/>
    <field name="tcp.checksum" showname="Checksum: 0x2528 [unverified]" size="2" pos="50" show="0x00002528" value="2528"/>
    <field name="tcp.checksum.status" showname="Checksum Status: Unverified" size="0" pos="50" show="2"/>
    <field name="tcp.urgent_pointer" showname="Urgent pointer: 0" size="2" pos="52" show="0" value="0000"/>
    <field name="tcp.options" showname="Options: (12 bytes), No-Operation (NOP), No-Operation (NOP), Timestamps" size="12" pos="54" show="01:01:08:0a:c6:a3:0d:34:c5:32:dd:0b" value="0101080ac6a30d34c532dd0b">
      <field name="tcp.options.nop" showname="TCP Option - No-Operation (NOP)" size="1" pos="54" show="01" value="01">
        <field name="tcp.option_kind" showname="Kind: No-Operation (1)" size="1" pos="54" show="1" value="01"/>
      </field>
      <field name="tcp.options.nop" showname="TCP Option - No-Operation (NOP)" size="1" pos="55" show="01" value="01">
        <field name="tcp.option_kind" showname="Kind: No-Operation (1)" size="1" pos="55" show="1" value="01"/>
      </field>
      <field name="tcp.options.timestamp" showname="TCP Option - Timestamps: TSval 3332574516, TSecr 3308444939" size="10" pos="56" show="08:0a:c6:a3:0d:34:c5:32:dd:0b" value="080ac6a30d34c532dd0b">
        <field name="tcp.option_kind" showname="Kind: Time Stamp Option (8)" size="1" pos="56" show="8" value="08"/>
        <field name="tcp.option_len" showname="Length: 10" size="1" pos="57" show="10" value="0a"/>
        <field name="tcp.options.timestamp.tsval" showname="Timestamp value: 3332574516" size="4" pos="58" show="3332574516" value="c6a30d34"/>
        <field name="tcp.options.timestamp.tsecr" showname="Timestamp echo reply: 3308444939" size="4" pos="62" show="3308444939" value="c532dd0b"/>
      </field>
    </field>
    <field name="" show="Timestamps" size="0" pos="34">
      <field name="tcp.time_relative" showname="Time since first frame in this TCP stream: 0.000454842 seconds" size="0" pos="34" show="0.000454842"/>
      <field name="tcp.time_delta" showname="Time since previous frame in this TCP stream: 0.000399135 seconds" size="0" pos="34" show="0.000399135"/>
    </field>
  </proto>
</packet>


<packet>
  <proto name="geninfo" pos="0" showname="General information" size="101">
    <field name="num" pos="0" show="13" showname="Number" value="d" size="101"/>
    <field name="len" pos="0" show="101" showname="Frame Length" value="65" size="101"/>
    <field name="caplen" pos="0" show="101" showname="Captured Length" value="65" size="101"/>
    <field name="timestamp" pos="0" show="May 24, 2023 20:26:21.331516230 CEST" showname="Captured Time" value="1684952781.331516230" size="101"/>
  </proto>
  <proto name="frame" showname="Frame 13: 101 bytes on wire (808 bits), 101 bytes captured (808 bits) on interface veth_nssf, id 0" size="101" pos="0">
    <field name="filtered" value="frame" />
  </proto>
  <proto name="eth" showname="Ethernet II, Src: da:73:09:fb:97:ae, Dst: 7a:24:b4:3d:64:76" size="14" pos="0">
    <field name="filtered" value="eth" />
  </proto>
  <proto name="ip" showname="Internet Protocol Version 4, Src: 10.0.8.1, Dst: 10.0.9.1" size="20" pos="14">
    <field name="filtered" value="ip" />
  </proto>
  <proto name="tcp" showname="Transmission Control Protocol, Src Port: 7777, Dst Port: 58294, Seq: 2327922185, Ack: 1434351483, Len: 35" size="32" pos="34">
    <field name="tcp.srcport" showname="Source Port: 7777" size="2" pos="34" show="7777" value="1e61"/>
    <field name="tcp.dstport" showname="Destination Port: 58294" size="2" pos="36" show="58294" value="e3b6"/>
    <field name="tcp.port" showname="Source or Destination Port: 7777" hide="yes" size="2" pos="34" show="7777" value="1e61"/>
    <field name="tcp.port" showname="Source or Destination Port: 58294" hide="yes" size="2" pos="36" show="58294" value="e3b6"/>
    <field name="tcp.stream" showname="Stream index: 1" size="0" pos="34" show="1"/>
    <field name="tcp.len" showname="TCP Segment Len: 35" size="1" pos="46" show="35" value="80"/>
    <field name="tcp.seq" showname="Sequence number: 2327922185" size="4" pos="38" show="2327922185" value="8ac14609"/>
    <field name="tcp.seq_raw" showname="Sequence number (raw): 2327922185" hide="yes" size="4" pos="38" show="2327922185" value="8ac14609"/>
    <field name="tcp.nxtseq" showname="Next sequence number: 2327922220" size="0" pos="34" show="2327922220"/>
    <field name="tcp.ack" showname="Acknowledgment number: 1434351483" size="4" pos="42" show="1434351483" value="557e777b"/>
    <field name="tcp.ack_raw" showname="Acknowledgment number (raw): 1434351483" hide="yes" size="4" pos="42" show="1434351483" value="557e777b"/>
    <field name="tcp.hdr_len" showname="1000 .... = Header Length: 32 bytes (8)" size="1" pos="46" show="32" value="80"/>
    <field name="tcp.flags" showname="Flags: 0x018 (PSH, ACK)" size="2" pos="46" show="0x00000018" value="18" unmaskedvalue="8018">
      <field name="tcp.flags.res" showname="000. .... .... = Reserved: Not set" size="1" pos="46" show="0" value="0" unmaskedvalue="80"/>
      <field name="tcp.flags.ns" showname="...0 .... .... = Nonce: Not set" size="1" pos="46" show="0" value="0" unmaskedvalue="80"/>
      <field name="tcp.flags.cwr" showname=".... 0... .... = Congestion Window Reduced (CWR): Not set" size="1" pos="47" show="0" value="0" unmaskedvalue="18"/>
      <field name="tcp.flags.ecn" showname=".... .0.. .... = ECN-Echo: Not set" size="1" pos="47" show="0" value="0" unmaskedvalue="18"/>
      <field name="tcp.flags.urg" showname=".... ..0. .... = Urgent: Not set" size="1" pos="47" show="0" value="0" unmaskedvalue="18"/>
      <field name="tcp.flags.ack" showname=".... ...1 .... = Acknowledgment: Set" size="1" pos="47" show="1" value="1" unmaskedvalue="18"/>
      <field name="tcp.flags.push" showname=".... .... 1... = Push: Set" size="1" pos="47" show="1" value="1" unmaskedvalue="18"/>
      <field name="tcp.flags.reset" showname=".... .... .0.. = Reset: Not set" size="1" pos="47" show="0" value="0" unmaskedvalue="18"/>
      <field name="tcp.flags.syn" showname=".... .... ..0. = Syn: Not set" size="1" pos="47" show="0" value="0" unmaskedvalue="18"/>
      <field name="tcp.flags.fin" showname=".... .... ...0 = Fin: Not set" size="1" pos="47" show="0" value="0" unmaskedvalue="18"/>
      <field name="tcp.flags.str" showname="TCP Flags: \xc2\xb7\xc2\xb7\xc2\xb7\xc2\xb7\xc2\xb7\xc2\xb7\xc2\xb7AP\xc2\xb7\xc2\xb7\xc2\xb7" size="2" pos="46" show="\xc2\xb7\xc2\xb7\xc2\xb7\xc2\xb7\xc2\xb7\xc2\xb7\xc2\xb7AP\xc2\xb7\xc2\xb7\xc2\xb7" value="8018"/>
    </field>
    <field name="tcp.window_size_value" showname="Window size value: 501" size="2" pos="48" show="501" value="01f5"/>
    <field name="tcp.window_size" showname="Calculated window size: 501" size="2" pos="48" show="501" value="01f5"/>
    <field name="tcp.window_size_scalefactor" showname="Window size scaling factor: -1 (unknown)" size="2" pos="48" show="-1" value="01f5"/>
    <field name="tcp.checksum" showname="Checksum: 0x254b [unverified]" size="2" pos="50" show="0x0000254b" value="254b"/>
    <field name="tcp.checksum.status" showname="Checksum Status: Unverified" size="0" pos="50" show="2"/>
    <field name="tcp.urgent_pointer" showname="Urgent pointer: 0" size="2" pos="52" show="0" value="0000"/>
    <field name="tcp.options" showname="Options: (12 bytes), No-Operation (NOP), No-Operation (NOP), Timestamps" size="12" pos="54" show="01:01:08:0a:c6:a3:0d:34:c5:32:dd:0b" value="0101080ac6a30d34c532dd0b">
      <field name="tcp.options.nop" showname="TCP Option - No-Operation (NOP)" size="1" pos="54" show="01" value="01">
        <field name="tcp.option_kind" showname="Kind: No-Operation (1)" size="1" pos="54" show="1" value="01"/>
      </field>
      <field name="tcp.options.nop" showname="TCP Option - No-Operation (NOP)" size="1" pos="55" show="01" value="01">
        <field name="tcp.option_kind" showname="Kind: No-Operation (1)" size="1" pos="55" show="1" value="01"/>
      </field>
      <field name="tcp.options.timestamp" showname="TCP Option - Timestamps: TSval 3332574516, TSecr 3308444939" size="10" pos="56" show="08:0a:c6:a3:0d:34:c5:32:dd:0b" value="080ac6a30d34c532dd0b">
        <field name="tcp.option_kind" showname="Kind: Time Stamp Option (8)" size="1" pos="56" show="8" value="08"/>
        <field name="tcp.option_len" showname="Length: 10" size="1" pos="57" show="10" value="0a"/>
        <field name="tcp.options.timestamp.tsval" showname="Timestamp value: 3332574516" size="4" pos="58" show="3332574516" value="c6a30d34"/>
        <field name="tcp.options.timestamp.tsecr" showname="Timestamp echo reply: 3308444939" size="4" pos="62" show="3308444939" value="c532dd0b"/>
      </field>
    </field>
    <field name="" show="Timestamps" size="0" pos="34">
      <field name="tcp.time_relative" showname="Time since first frame in this TCP stream: 0.000765097 seconds" size="0" pos="34" show="0.000765097"/>
      <field name="tcp.time_delta" showname="Time since previous frame in this TCP stream: 0.000310255 seconds" size="0" pos="34" show="0.000310255"/>
    </field>
    <field name="tcp.payload" showname="TCP payload (35 bytes)" size="35" pos="66" show="00:00:1a:01:05:00:00:01:fd:89:c0:61:96:e4:59:3e:94:13:4a:68:1f:a5:04:01:32:a0:5e:b8:27:2e:08:2a:62:d1:bf" value="00001a0105000001fd89c06196e4593e94134a681fa5040132a05eb8272e082a62d1bf"/>
    <field name="tcp.pdu.size" showname="PDU Size: 35" size="35" pos="66" show="35" value="00001a0105000001fd89c06196e4593e94134a681fa5040132a05eb8272e082a62d1bf"/>
  </proto>
  <proto name="http2" showname="HyperText Transfer Protocol 2" size="35" pos="66">
    <field name="filtered" value="http2" />
  </proto>
</packet>


<packet>
  <proto name="geninfo" pos="0" showname="General information" size="66">
    <field name="num" pos="0" show="14" showname="Number" value="e" size="66"/>
    <field name="len" pos="0" show="66" showname="Frame Length" value="42" size="66"/>
    <field name="caplen" pos="0" show="66" showname="Captured Length" value="42" size="66"/>
    <field name="timestamp" pos="0" show="May 24, 2023 20:26:21.331521589 CEST" showname="Captured Time" value="1684952781.331521589" size="66"/>
  </proto>
  <proto name="frame" showname="Frame 14: 66 bytes on wire (528 bits), 66 bytes captured (528 bits) on interface veth_nssf, id 0" size="66" pos="0">
    <field name="filtered" value="frame" />
  </proto>
  <proto name="eth" showname="Ethernet II, Src: 7a:24:b4:3d:64:76, Dst: da:73:09:fb:97:ae" size="14" pos="0">
    <field name="filtered" value="eth" />
  </proto>
  <proto name="ip" showname="Internet Protocol Version 4, Src: 10.0.9.1, Dst: 10.0.8.1" size="20" pos="14">
    <field name="filtered" value="ip" />
  </proto>
  <proto name="tcp" showname="Transmission Control Protocol, Src Port: 58294, Dst Port: 7777, Seq: 1434351483, Ack: 2327922220, Len: 0" size="32" pos="34">
    <field name="tcp.srcport" showname="Source Port: 58294" size="2" pos="34" show="58294" value="e3b6"/>
    <field name="tcp.dstport" showname="Destination Port: 7777" size="2" pos="36" show="7777" value="1e61"/>
    <field name="tcp.port" showname="Source or Destination Port: 58294" hide="yes" size="2" pos="34" show="58294" value="e3b6"/>
    <field name="tcp.port" showname="Source or Destination Port: 7777" hide="yes" size="2" pos="36" show="7777" value="1e61"/>
    <field name="tcp.stream" showname="Stream index: 1" size="0" pos="34" show="1"/>
    <field name="tcp.len" showname="TCP Segment Len: 0" size="1" pos="46" show="0" value="80"/>
    <field name="tcp.seq" showname="Sequence number: 1434351483" size="4" pos="38" show="1434351483" value="557e777b"/>
    <field name="tcp.seq_raw" showname="Sequence number (raw): 1434351483" hide="yes" size="4" pos="38" show="1434351483" value="557e777b"/>
    <field name="tcp.nxtseq" showname="Next sequence number: 1434351483" size="0" pos="34" show="1434351483"/>
    <field name="tcp.ack" showname="Acknowledgment number: 2327922220" size="4" pos="42" show="2327922220" value="8ac1462c"/>
    <field name="tcp.ack_raw" showname="Acknowledgment number (raw): 2327922220" hide="yes" size="4" pos="42" show="2327922220" value="8ac1462c"/>
    <field name="tcp.hdr_len" showname="1000 .... = Header Length: 32 bytes (8)" size="1" pos="46" show="32" value="80"/>
    <field name="tcp.flags" showname="Flags: 0x010 (ACK)" size="2" pos="46" show="0x00000010" value="10" unmaskedvalue="8010">
      <field name="tcp.flags.res" showname="000. .... .... = Reserved: Not set" size="1" pos="46" show="0" value="0" unmaskedvalue="80"/>
      <field name="tcp.flags.ns" showname="...0 .... .... = Nonce: Not set" size="1" pos="46" show="0" value="0" unmaskedvalue="80"/>
      <field name="tcp.flags.cwr" showname=".... 0... .... = Congestion Window Reduced (CWR): Not set" size="1" pos="47" show="0" value="0" unmaskedvalue="10"/>
      <field name="tcp.flags.ecn" showname=".... .0.. .... = ECN-Echo: Not set" size="1" pos="47" show="0" value="0" unmaskedvalue="10"/>
      <field name="tcp.flags.urg" showname=".... ..0. .... = Urgent: Not set" size="1" pos="47" show="0" value="0" unmaskedvalue="10"/>
      <field name="tcp.flags.ack" showname=".... ...1 .... = Acknowledgment: Set" size="1" pos="47" show="1" value="1" unmaskedvalue="10"/>
      <field name="tcp.flags.push" showname=".... .... 0... = Push: Not set" size="1" pos="47" show="0" value="0" unmaskedvalue="10"/>
      <field name="tcp.flags.reset" showname=".... .... .0.. = Reset: Not set" size="1" pos="47" show="0" value="0" unmaskedvalue="10"/>
      <field name="tcp.flags.syn" showname=".... .... ..0. = Syn: Not set" size="1" pos="47" show="0" value="0" unmaskedvalue="10"/>
      <field name="tcp.flags.fin" showname=".... .... ...0 = Fin: Not set" size="1" pos="47" show="0" value="0" unmaskedvalue="10"/>
      <field name="tcp.flags.str" showname="TCP Flags: \xc2\xb7\xc2\xb7\xc2\xb7\xc2\xb7\xc2\xb7\xc2\xb7\xc2\xb7A\xc2\xb7\xc2\xb7\xc2\xb7\xc2\xb7" size="2" pos="46" show="\xc2\xb7\xc2\xb7\xc2\xb7\xc2\xb7\xc2\xb7\xc2\xb7\xc2\xb7A\xc2\xb7\xc2\xb7\xc2\xb7\xc2\xb7" value="8010"/>
    </field>
    <field name="tcp.window_size_value" showname="Window size value: 501" size="2" pos="48" show="501" value="01f5"/>
    <field name="tcp.window_size" showname="Calculated window size: 501" size="2" pos="48" show="501" value="01f5"/>
    <field name="tcp.window_size_scalefactor" showname="Window size scaling factor: -1 (unknown)" size="2" pos="48" show="-1" value="01f5"/>
    <field name="tcp.checksum" showname="Checksum: 0x2528 [unverified]" size="2" pos="50" show="0x00002528" value="2528"/>
    <field name="tcp.checksum.status" showname="Checksum Status: Unverified" size="0" pos="50" show="2"/>
    <field name="tcp.urgent_pointer" showname="Urgent pointer: 0" size="2" pos="52" show="0" value="0000"/>
    <field name="tcp.options" showname="Options: (12 bytes), No-Operation (NOP), No-Operation (NOP), Timestamps" size="12" pos="54" show="01:01:08:0a:c5:32:dd:0b:c6:a3:0d:34" value="0101080ac532dd0bc6a30d34">
      <field name="tcp.options.nop" showname="TCP Option - No-Operation (NOP)" size="1" pos="54" show="01" value="01">
        <field name="tcp.option_kind" showname="Kind: No-Operation (1)" size="1" pos="54" show="1" value="01"/>
      </field>
      <field name="tcp.options.nop" showname="TCP Option - No-Operation (NOP)" size="1" pos="55" show="01" value="01">
        <field name="tcp.option_kind" showname="Kind: No-Operation (1)" size="1" pos="55" show="1" value="01"/>
      </field>
      <field name="tcp.options.timestamp" showname="TCP Option - Timestamps: TSval 3308444939, TSecr 3332574516" size="10" pos="56" show="08:0a:c5:32:dd:0b:c6:a3:0d:34" value="080ac532dd0bc6a30d34">
        <field name="tcp.option_kind" showname="Kind: Time Stamp Option (8)" size="1" pos="56" show="8" value="08"/>
        <field name="tcp.option_len" showname="Length: 10" size="1" pos="57" show="10" value="0a"/>
        <field name="tcp.options.timestamp.tsval" showname="Timestamp value: 3308444939" size="4" pos="58" show="3308444939" value="c532dd0b"/>
        <field name="tcp.options.timestamp.tsecr" showname="Timestamp echo reply: 3332574516" size="4" pos="62" show="3332574516" value="c6a30d34"/>
      </field>
    </field>
    <field name="" show="Timestamps" size="0" pos="34">
      <field name="tcp.time_relative" showname="Time since first frame in this TCP stream: 0.000770456 seconds" size="0" pos="34" show="0.000770456"/>
      <field name="tcp.time_delta" showname="Time since previous frame in this TCP stream: 0.000005359 seconds" size="0" pos="34" show="0.000005359"/>
    </field>
  </proto>
</packet>


<packet>
  <proto name="geninfo" pos="0" showname="General information" size="74">
    <field name="num" pos="0" show="15" showname="Number" value="f" size="74"/>
    <field name="len" pos="0" show="74" showname="Frame Length" value="4a" size="74"/>
    <field name="caplen" pos="0" show="74" showname="Captured Length" value="4a" size="74"/>
    <field name="timestamp" pos="0" show="May 24, 2023 20:26:25.288697364 CEST" showname="Captured Time" value="1684952785.288697364" size="74"/>
  </proto>
  <proto name="frame" showname="Frame 15: 74 bytes on wire (592 bits), 74 bytes captured (592 bits) on interface veth_nssf, id 0" size="74" pos="0">
    <field name="filtered" value="frame" />
  </proto>
  <proto name="eth" showname="Ethernet II, Src: da:73:09:fb:97:ae, Dst: 7a:24:b4:3d:64:76" size="14" pos="0">
    <field name="filtered" value="eth" />
  </proto>
  <proto name="ip" showname="Internet Protocol Version 4, Src: 10.0.6.1, Dst: 10.0.9.1" size="20" pos="14">
    <field name="filtered" value="ip" />
  </proto>
  <proto name="tcp" showname="Transmission Control Protocol, Src Port: 40740, Dst Port: 7777, Seq: 4090257148, Len: 0" size="40" pos="34">
    <field name="tcp.srcport" showname="Source Port: 40740" size="2" pos="34" show="40740" value="9f24"/>
    <field name="tcp.dstport" showname="Destination Port: 7777" size="2" pos="36" show="7777" value="1e61"/>
    <field name="tcp.port" showname="Source or Destination Port: 40740" hide="yes" size="2" pos="34" show="40740" value="9f24"/>
    <field name="tcp.port" showname="Source or Destination Port: 7777" hide="yes" size="2" pos="36" show="7777" value="1e61"/>
    <field name="tcp.stream" showname="Stream index: 0" size="0" pos="34" show="0"/>
    <field name="tcp.len" showname="TCP Segment Len: 0" size="1" pos="46" show="0" value="a0"/>
    <field name="tcp.seq" showname="Sequence number: 4090257148" size="4" pos="38" show="4090257148" value="f3cc5efc"/>
    <field name="tcp.seq_raw" showname="Sequence number (raw): 4090257148" hide="yes" size="4" pos="38" show="4090257148" value="f3cc5efc"/>
    <field name="tcp.nxtseq" showname="Next sequence number: 4090257149" size="0" pos="34" show="4090257149"/>
    <field name="tcp.ack" showname="Acknowledgment number: 0" size="4" pos="42" show="0" value="00000000"/>
    <field name="tcp.ack_raw" showname="Acknowledgment number (raw): 0" size="4" pos="42" show="0" value="00000000"/>
    <field name="tcp.hdr_len" showname="1010 .... = Header Length: 40 bytes (10)" size="1" pos="46" show="40" value="a0"/>
    <field name="tcp.flags" showname="Flags: 0x002 (SYN)" size="2" pos="46" show="0x00000002" value="2" unmaskedvalue="a002">
      <field name="tcp.flags.res" showname="000. .... .... = Reserved: Not set" size="1" pos="46" show="0" value="0" unmaskedvalue="a0"/>
      <field name="tcp.flags.ns" showname="...0 .... .... = Nonce: Not set" size="1" pos="46" show="0" value="0" unmaskedvalue="a0"/>
      <field name="tcp.flags.cwr" showname=".... 0... .... = Congestion Window Reduced (CWR): Not set" size="1" pos="47" show="0" value="0" unmaskedvalue="02"/>
      <field name="tcp.flags.ecn" showname=".... .0.. .... = ECN-Echo: Not set" size="1" pos="47" show="0" value="0" unmaskedvalue="02"/>
      <field name="tcp.flags.urg" showname=".... ..0. .... = Urgent: Not set" size="1" pos="47" show="0" value="0" unmaskedvalue="02"/>
      <field name="tcp.flags.ack" showname=".... ...0 .... = Acknowledgment: Not set" size="1" pos="47" show="0" value="0" unmaskedvalue="02"/>
      <field name="tcp.flags.push" showname=".... .... 0... = Push: Not set" size="1" pos="47" show="0" value="0" unmaskedvalue="02"/>
      <field name="tcp.flags.reset" showname=".... .... .0.. = Reset: Not set" size="1" pos="47" show="0" value="0" unmaskedvalue="02"/>
      <field name="tcp.flags.syn" showname=".... .... ..1. = Syn: Set" size="1" pos="47" show="1" value="1" unmaskedvalue="02">
        <field name="_ws.expert" showname="Expert Info (Chat/Sequence): Connection establish request (SYN): server port 7777" size="0" pos="47">
          <field name="tcp.connection.syn" showname="Connection establish request (SYN): server port 7777" size="0" pos="0" show="" value=""/>
          <field name="_ws.expert.message" showname="Message: Connection establish request (SYN): server port 7777" hide="yes" size="0" pos="0" show="Connection establish request (SYN): server port 7777"/>
          <field name="_ws.expert.severity" showname="Severity level: Chat" size="0" pos="0" show="2097152"/>
          <field name="_ws.expert.group" showname="Group: Sequence" size="0" pos="0" show="33554432"/>
        </field>
      </field>
      <field name="tcp.flags.fin" showname=".... .... ...0 = Fin: Not set" size="1" pos="47" show="0" value="0" unmaskedvalue="02"/>
      <field name="tcp.flags.str" showname="TCP Flags: \xc2\xb7\xc2\xb7\xc2\xb7\xc2\xb7\xc2\xb7\xc2\xb7\xc2\xb7\xc2\xb7\xc2\xb7\xc2\xb7S\xc2\xb7" size="2" pos="46" show="\xc2\xb7\xc2\xb7\xc2\xb7\xc2\xb7\xc2\xb7\xc2\xb7\xc2\xb7\xc2\xb7\xc2\xb7\xc2\xb7S\xc2\xb7" value="a002"/>
    </field>
    <field name="tcp.window_size_value" showname="Window size value: 64240" size="2" pos="48" show="64240" value="faf0"/>
    <field name="tcp.window_size" showname="Calculated window size: 64240" size="2" pos="48" show="64240" value="faf0"/>
    <field name="tcp.checksum" showname="Checksum: 0x2330 [unverified]" size="2" pos="50" show="0x00002330" value="2330"/>
    <field name="tcp.checksum.status" showname="Checksum Status: Unverified" size="0" pos="50" show="2"/>
    <field name="tcp.urgent_pointer" showname="Urgent pointer: 0" size="2" pos="52" show="0" value="0000"/>
    <field name="tcp.options" showname="Options: (20 bytes), Maximum segment size, SACK permitted, Timestamps, No-Operation (NOP), Window scale" size="20" pos="54" show="02:04:05:b4:04:02:08:0a:19:76:19:80:00:00:00:00:01:03:03:07" value="020405b40402080a197619800000000001030307">
      <field name="tcp.options.mss" showname="TCP Option - Maximum segment size: 1460 bytes" size="4" pos="54" show="02:04:05:b4" value="020405b4">
        <field name="tcp.option_kind" showname="Kind: Maximum Segment Size (2)" size="1" pos="54" show="2" value="02"/>
        <field name="tcp.option_len" showname="Length: 4" size="1" pos="55" show="4" value="04"/>
        <field name="tcp.options.mss_val" showname="MSS Value: 1460" size="2" pos="56" show="1460" value="05b4"/>
      </field>
      <field name="tcp.options.sack_perm" showname="TCP Option - SACK permitted" size="2" pos="58" show="04:02" value="0402">
        <field name="tcp.option_kind" showname="Kind: SACK Permitted (4)" size="1" pos="58" show="4" value="04"/>
        <field name="tcp.option_len" showname="Length: 2" size="1" pos="59" show="2" value="02"/>
      </field>
      <field name="tcp.options.timestamp" showname="TCP Option - Timestamps: TSval 427170176, TSecr 0" size="10" pos="60" show="08:0a:19:76:19:80:00:00:00:00" value="080a1976198000000000">
        <field name="tcp.option_kind" showname="Kind: Time Stamp Option (8)" size="1" pos="60" show="8" value="08"/>
        <field name="tcp.option_len" showname="Length: 10" size="1" pos="61" show="10" value="0a"/>
        <field name="tcp.options.timestamp.tsval" showname="Timestamp value: 427170176" size="4" pos="62" show="427170176" value="19761980"/>
        <field name="tcp.options.timestamp.tsecr" showname="Timestamp echo reply: 0" size="4" pos="66" show="0" value="00000000"/>
      </field>
      <field name="tcp.options.nop" showname="TCP Option - No-Operation (NOP)" size="1" pos="70" show="01" value="01">
        <field name="tcp.option_kind" showname="Kind: No-Operation (1)" size="1" pos="70" show="1" value="01"/>
      </field>
      <field name="tcp.options.wscale" showname="TCP Option - Window scale: 7 (multiply by 128)" size="3" pos="71" show="03:03:07" value="030307">
        <field name="tcp.option_kind" showname="Kind: Window Scale (3)" size="1" pos="71" show="3" value="03"/>
        <field name="tcp.option_len" showname="Length: 3" size="1" pos="72" show="3" value="03"/>
        <field name="tcp.options.wscale.shift" showname="Shift count: 7" size="1" pos="73" show="7" value="07"/>
        <field name="tcp.options.wscale.multiplier" showname="Multiplier: 128" size="1" pos="73" show="128" value="07"/>
      </field>
    </field>
    <field name="" show="Timestamps" size="0" pos="34">
      <field name="tcp.time_relative" showname="Time since first frame in this TCP stream: 7.177933647 seconds" size="0" pos="34" show="7.177933647"/>
      <field name="tcp.time_delta" showname="Time since previous frame in this TCP stream: 4.160987398 seconds" size="0" pos="34" show="4.160987398"/>
    </field>
  </proto>
</packet>


<packet>
  <proto name="geninfo" pos="0" showname="General information" size="74">
    <field name="num" pos="0" show="16" showname="Number" value="10" size="74"/>
    <field name="len" pos="0" show="74" showname="Frame Length" value="4a" size="74"/>
    <field name="caplen" pos="0" show="74" showname="Captured Length" value="4a" size="74"/>
    <field name="timestamp" pos="0" show="May 24, 2023 20:26:25.288715919 CEST" showname="Captured Time" value="1684952785.288715919" size="74"/>
  </proto>
  <proto name="frame" showname="Frame 16: 74 bytes on wire (592 bits), 74 bytes captured (592 bits) on interface veth_nssf, id 0" size="74" pos="0">
    <field name="filtered" value="frame" />
  </proto>
  <proto name="eth" showname="Ethernet II, Src: 7a:24:b4:3d:64:76, Dst: da:73:09:fb:97:ae" size="14" pos="0">
    <field name="filtered" value="eth" />
  </proto>
  <proto name="ip" showname="Internet Protocol Version 4, Src: 10.0.9.1, Dst: 10.0.6.1" size="20" pos="14">
    <field name="filtered" value="ip" />
  </proto>
  <proto name="tcp" showname="Transmission Control Protocol, Src Port: 7777, Dst Port: 40740, Seq: 3703072180, Ack: 4090257149, Len: 0" size="40" pos="34">
    <field name="tcp.srcport" showname="Source Port: 7777" size="2" pos="34" show="7777" value="1e61"/>
    <field name="tcp.dstport" showname="Destination Port: 40740" size="2" pos="36" show="40740" value="9f24"/>
    <field name="tcp.port" showname="Source or Destination Port: 7777" hide="yes" size="2" pos="34" show="7777" value="1e61"/>
    <field name="tcp.port" showname="Source or Destination Port: 40740" hide="yes" size="2" pos="36" show="40740" value="9f24"/>
    <field name="tcp.stream" showname="Stream index: 0" size="0" pos="34" show="0"/>
    <field name="tcp.len" showname="TCP Segment Len: 0" size="1" pos="46" show="0" value="a0"/>
    <field name="tcp.seq" showname="Sequence number: 3703072180" size="4" pos="38" show="3703072180" value="dcb865b4"/>
    <field name="tcp.seq_raw" showname="Sequence number (raw): 3703072180" hide="yes" size="4" pos="38" show="3703072180" value="dcb865b4"/>
    <field name="tcp.nxtseq" showname="Next sequence number: 3703072181" size="0" pos="34" show="3703072181"/>
    <field name="tcp.ack" showname="Acknowledgment number: 4090257149" size="4" pos="42" show="4090257149" value="f3cc5efd"/>
    <field name="tcp.ack_raw" showname="Acknowledgment number (raw): 4090257149" hide="yes" size="4" pos="42" show="4090257149" value="f3cc5efd"/>
    <field name="tcp.hdr_len" showname="1010 .... = Header Length: 40 bytes (10)" size="1" pos="46" show="40" value="a0"/>
    <field name="tcp.flags" showname="Flags: 0x012 (SYN, ACK)" size="2" pos="46" show="0x00000012" value="12" unmaskedvalue="a012">
      <field name="tcp.flags.res" showname="000. .... .... = Reserved: Not set" size="1" pos="46" show="0" value="0" unmaskedvalue="a0"/>
      <field name="tcp.flags.ns" showname="...0 .... .... = Nonce: Not set" size="1" pos="46" show="0" value="0" unmaskedvalue="a0"/>
      <field name="tcp.flags.cwr" showname=".... 0... .... = Congestion Window Reduced (CWR): Not set" size="1" pos="47" show="0" value="0" unmaskedvalue="12"/>
      <field name="tcp.flags.ecn" showname=".... .0.. .... = ECN-Echo: Not set" size="1" pos="47" show="0" value="0" unmaskedvalue="12"/>
      <field name="tcp.flags.urg" showname=".... ..0. .... = Urgent: Not set" size="1" pos="47" show="0" value="0" unmaskedvalue="12"/>
      <field name="tcp.flags.ack" showname=".... ...1 .... = Acknowledgment: Set" size="1" pos="47" show="1" value="1" unmaskedvalue="12"/>
      <field name="tcp.flags.push" showname=".... .... 0... = Push: Not set" size="1" pos="47" show="0" value="0" unmaskedvalue="12"/>
      <field name="tcp.flags.reset" showname=".... .... .0.. = Reset: Not set" size="1" pos="47" show="0" value="0" unmaskedvalue="12"/>
      <field name="tcp.flags.syn" showname=".... .... ..1. = Syn: Set" size="1" pos="47" show="1" value="1" unmaskedvalue="12">
        <field name="_ws.expert" showname="Expert Info (Chat/Sequence): Connection establish acknowledge (SYN+ACK): server port 7777" size="0" pos="47">
          <field name="tcp.connection.sack" showname="Connection establish acknowledge (SYN+ACK): server port 7777" size="0" pos="0" show="" value=""/>
          <field name="_ws.expert.message" showname="Message: Connection establish acknowledge (SYN+ACK): server port 7777" hide="yes" size="0" pos="0" show="Connection establish acknowledge (SYN+ACK): server port 7777"/>
          <field name="_ws.expert.severity" showname="Severity level: Chat" size="0" pos="0" show="2097152"/>
          <field name="_ws.expert.group" showname="Group: Sequence" size="0" pos="0" show="33554432"/>
        </field>
      </field>
      <field name="tcp.flags.fin" showname=".... .... ...0 = Fin: Not set" size="1" pos="47" show="0" value="0" unmaskedvalue="12"/>
      <field name="tcp.flags.str" showname="TCP Flags: \xc2\xb7\xc2\xb7\xc2\xb7\xc2\xb7\xc2\xb7\xc2\xb7\xc2\xb7A\xc2\xb7\xc2\xb7S\xc2\xb7" size="2" pos="46" show="\xc2\xb7\xc2\xb7\xc2\xb7\xc2\xb7\xc2\xb7\xc2\xb7\xc2\xb7A\xc2\xb7\xc2\xb7S\xc2\xb7" value="a012"/>
    </field>
    <field name="tcp.window_size_value" showname="Window size value: 65160" size="2" pos="48" show="65160" value="fe88"/>
    <field name="tcp.window_size" showname="Calculated window size: 65160" size="2" pos="48" show="65160" value="fe88"/>
    <field name="tcp.checksum" showname="Checksum: 0x2330 [unverified]" size="2" pos="50" show="0x00002330" value="2330"/>
    <field name="tcp.checksum.status" showname="Checksum Status: Unverified" size="0" pos="50" show="2"/>
    <field name="tcp.urgent_pointer" showname="Urgent pointer: 0" size="2" pos="52" show="0" value="0000"/>
    <field name="tcp.options" showname="Options: (20 bytes), Maximum segment size, SACK permitted, Timestamps, No-Operation (NOP), Window scale" size="20" pos="54" show="02:04:05:b4:04:02:08:0a:ef:cd:b1:c2:19:76:19:80:01:03:03:07" value="020405b40402080aefcdb1c21976198001030307">
      <field name="tcp.options.mss" showname="TCP Option - Maximum segment size: 1460 bytes" size="4" pos="54" show="02:04:05:b4" value="020405b4">
        <field name="tcp.option_kind" showname="Kind: Maximum Segment Size (2)" size="1" pos="54" show="2" value="02"/>
        <field name="tcp.option_len" showname="Length: 4" size="1" pos="55" show="4" value="04"/>
        <field name="tcp.options.mss_val" showname="MSS Value: 1460" size="2" pos="56" show="1460" value="05b4"/>
      </field>
      <field name="tcp.options.sack_perm" showname="TCP Option - SACK permitted" size="2" pos="58" show="04:02" value="0402">
        <field name="tcp.option_kind" showname="Kind: SACK Permitted (4)" size="1" pos="58" show="4" value="04"/>
        <field name="tcp.option_len" showname="Length: 2" size="1" pos="59" show="2" value="02"/>
      </field>
      <field name="tcp.options.timestamp" showname="TCP Option - Timestamps: TSval 4023235010, TSecr 427170176" size="10" pos="60" show="08:0a:ef:cd:b1:c2:19:76:19:80" value="080aefcdb1c219761980">
        <field name="tcp.option_kind" showname="Kind: Time Stamp Option (8)" size="1" pos="60" show="8" value="08"/>
        <field name="tcp.option_len" showname="Length: 10" size="1" pos="61" show="10" value="0a"/>
        <field name="tcp.options.timestamp.tsval" showname="Timestamp value: 4023235010" size="4" pos="62" show="4023235010" value="efcdb1c2"/>
        <field name="tcp.options.timestamp.tsecr" showname="Timestamp echo reply: 427170176" size="4" pos="66" show="427170176" value="19761980"/>
      </field>
      <field name="tcp.options.nop" showname="TCP Option - No-Operation (NOP)" size="1" pos="70" show="01" value="01">
        <field name="tcp.option_kind" showname="Kind: No-Operation (1)" size="1" pos="70" show="1" value="01"/>
      </field>
      <field name="tcp.options.wscale" showname="TCP Option - Window scale: 7 (multiply by 128)" size="3" pos="71" show="03:03:07" value="030307">
        <field name="tcp.option_kind" showname="Kind: Window Scale (3)" size="1" pos="71" show="3" value="03"/>
        <field name="tcp.option_len" showname="Length: 3" size="1" pos="72" show="3" value="03"/>
        <field name="tcp.options.wscale.shift" showname="Shift count: 7" size="1" pos="73" show="7" value="07"/>
        <field name="tcp.options.wscale.multiplier" showname="Multiplier: 128" size="1" pos="73" show="128" value="07"/>
      </field>
    </field>
    <field name="" show="Timestamps" size="0" pos="34">
      <field name="tcp.time_relative" showname="Time since first frame in this TCP stream: 7.177952202 seconds" size="0" pos="34" show="7.177952202"/>
      <field name="tcp.time_delta" showname="Time since previous frame in this TCP stream: 0.000018555 seconds" size="0" pos="34" show="0.000018555"/>
    </field>
  </proto>
</packet>


<packet>
  <proto name="geninfo" pos="0" showname="General information" size="54">
    <field name="num" pos="0" show="17" showname="Number" value="11" size="54"/>
    <field name="len" pos="0" show="54" showname="Frame Length" value="36" size="54"/>
    <field name="caplen" pos="0" show="54" showname="Captured Length" value="36" size="54"/>
    <field name="timestamp" pos="0" show="May 24, 2023 20:26:25.288733938 CEST" showname="Captured Time" value="1684952785.288733938" size="54"/>
  </proto>
  <proto name="frame" showname="Frame 17: 54 bytes on wire (432 bits), 54 bytes captured (432 bits) on interface veth_nssf, id 0" size="54" pos="0">
    <field name="filtered" value="frame" />
  </proto>
  <proto name="eth" showname="Ethernet II, Src: da:73:09:fb:97:ae, Dst: 7a:24:b4:3d:64:76" size="14" pos="0">
    <field name="filtered" value="eth" />
  </proto>
  <proto name="ip" showname="Internet Protocol Version 4, Src: 10.0.6.1, Dst: 10.0.9.1" size="20" pos="14">
    <field name="filtered" value="ip" />
  </proto>
  <proto name="tcp" showname="Transmission Control Protocol, Src Port: 40740, Dst Port: 7777, Seq: 4090257149, Len: 0" size="20" pos="34">
    <field name="tcp.srcport" showname="Source Port: 40740" size="2" pos="34" show="40740" value="9f24"/>
    <field name="tcp.dstport" showname="Destination Port: 7777" size="2" pos="36" show="7777" value="1e61"/>
    <field name="tcp.port" showname="Source or Destination Port: 40740" hide="yes" size="2" pos="34" show="40740" value="9f24"/>
    <field name="tcp.port" showname="Source or Destination Port: 7777" hide="yes" size="2" pos="36" show="7777" value="1e61"/>
    <field name="tcp.stream" showname="Stream index: 0" size="0" pos="34" show="0"/>
    <field name="tcp.len" showname="TCP Segment Len: 0" size="1" pos="46" show="0" value="50"/>
    <field name="tcp.seq" showname="Sequence number: 4090257149" size="4" pos="38" show="4090257149" value="f3cc5efd"/>
    <field name="tcp.seq_raw" showname="Sequence number (raw): 4090257149" hide="yes" size="4" pos="38" show="4090257149" value="f3cc5efd"/>
    <field name="tcp.nxtseq" showname="Next sequence number: 4090257149" size="0" pos="34" show="4090257149"/>
    <field name="tcp.ack" showname="Acknowledgment number: 0" size="4" pos="42" show="0" value="00000000"/>
    <field name="tcp.ack_raw" showname="Acknowledgment number (raw): 0" size="4" pos="42" show="0" value="00000000"/>
    <field name="tcp.hdr_len" showname="0101 .... = Header Length: 20 bytes (5)" size="1" pos="46" show="20" value="50"/>
    <field name="tcp.flags" showname="Flags: 0x004 (RST)" size="2" pos="46" show="0x00000004" value="4" unmaskedvalue="5004">
      <field name="tcp.flags.res" showname="000. .... .... = Reserved: Not set" size="1" pos="46" show="0" value="0" unmaskedvalue="50"/>
      <field name="tcp.flags.ns" showname="...0 .... .... = Nonce: Not set" size="1" pos="46" show="0" value="0" unmaskedvalue="50"/>
      <field name="tcp.flags.cwr" showname=".... 0... .... = Congestion Window Reduced (CWR): Not set" size="1" pos="47" show="0" value="0" unmaskedvalue="04"/>
      <field name="tcp.flags.ecn" showname=".... .0.. .... = ECN-Echo: Not set" size="1" pos="47" show="0" value="0" unmaskedvalue="04"/>
      <field name="tcp.flags.urg" showname=".... ..0. .... = Urgent: Not set" size="1" pos="47" show="0" value="0" unmaskedvalue="04"/>
      <field name="tcp.flags.ack" showname=".... ...0 .... = Acknowledgment: Not set" size="1" pos="47" show="0" value="0" unmaskedvalue="04"/>
      <field name="tcp.flags.push" showname=".... .... 0... = Push: Not set" size="1" pos="47" show="0" value="0" unmaskedvalue="04"/>
      <field name="tcp.flags.reset" showname=".... .... .1.. = Reset: Set" size="1" pos="47" show="1" value="1" unmaskedvalue="04">
        <field name="_ws.expert" showname="Expert Info (Warning/Sequence): Connection reset (RST)" size="0" pos="47">
          <field name="tcp.connection.rst" showname="Connection reset (RST)" size="0" pos="0" show="" value=""/>
          <field name="_ws.expert.message" showname="Message: Connection reset (RST)" hide="yes" size="0" pos="0" show="Connection reset (RST)"/>
          <field name="_ws.expert.severity" showname="Severity level: Warning" size="0" pos="0" show="6291456"/>
          <field name="_ws.expert.group" showname="Group: Sequence" size="0" pos="0" show="33554432"/>
        </field>
      </field>
      <field name="tcp.flags.syn" showname=".... .... ..0. = Syn: Not set" size="1" pos="47" show="0" value="0" unmaskedvalue="04"/>
      <field name="tcp.flags.fin" showname=".... .... ...0 = Fin: Not set" size="1" pos="47" show="0" value="0" unmaskedvalue="04"/>
      <field name="tcp.flags.str" showname="TCP Flags: \xc2\xb7\xc2\xb7\xc2\xb7\xc2\xb7\xc2\xb7\xc2\xb7\xc2\xb7\xc2\xb7\xc2\xb7R\xc2\xb7\xc2\xb7" size="2" pos="46" show="\xc2\xb7\xc2\xb7\xc2\xb7\xc2\xb7\xc2\xb7\xc2\xb7\xc2\xb7\xc2\xb7\xc2\xb7R\xc2\xb7\xc2\xb7" value="5004"/>
    </field>
    <field name="tcp.window_size_value" showname="Window size value: 0" size="2" pos="48" show="0" value="0000"/>
    <field name="tcp.window_size" showname="Calculated window size: 0" size="2" pos="48" show="0" value="0000"/>
    <field name="tcp.window_size_scalefactor" showname="Window size scaling factor: 128" size="2" pos="48" show="128" value="0000"/>
    <field name="tcp.checksum" showname="Checksum: 0x7c8f [unverified]" size="2" pos="50" show="0x00007c8f" value="7c8f"/>
    <field name="tcp.checksum.status" showname="Checksum Status: Unverified" size="0" pos="50" show="2"/>
    <field name="tcp.urgent_pointer" showname="Urgent pointer: 0" size="2" pos="52" show="0" value="0000"/>
    <field name="" show="Timestamps" size="0" pos="34">
      <field name="tcp.time_relative" showname="Time since first frame in this TCP stream: 7.177970221 seconds" size="0" pos="34" show="7.177970221"/>
      <field name="tcp.time_delta" showname="Time since previous frame in this TCP stream: 0.000018019 seconds" size="0" pos="34" show="0.000018019"/>
    </field>
  </proto>
</packet>


<packet>
  <proto name="geninfo" pos="0" showname="General information" size="132">
    <field name="num" pos="0" show="18" showname="Number" value="12" size="132"/>
    <field name="len" pos="0" show="132" showname="Frame Length" value="84" size="132"/>
    <field name="caplen" pos="0" show="132" showname="Captured Length" value="84" size="132"/>
    <field name="timestamp" pos="0" show="May 24, 2023 20:26:31.339789446 CEST" showname="Captured Time" value="1684952791.339789446" size="132"/>
  </proto>
  <proto name="frame" showname="Frame 18: 132 bytes on wire (1056 bits), 132 bytes captured (1056 bits) on interface veth_nssf, id 0" size="132" pos="0">
    <field name="filtered" value="frame" />
  </proto>
  <proto name="eth" showname="Ethernet II, Src: 7a:24:b4:3d:64:76, Dst: da:73:09:fb:97:ae" size="14" pos="0">
    <field name="filtered" value="eth" />
  </proto>
  <proto name="ip" showname="Internet Protocol Version 4, Src: 10.0.9.1, Dst: 10.0.8.1" size="20" pos="14">
    <field name="filtered" value="ip" />
  </proto>
  <proto name="tcp" showname="Transmission Control Protocol, Src Port: 58294, Dst Port: 7777, Seq: 1434351483, Ack: 2327922220, Len: 66" size="32" pos="34">
    <field name="tcp.srcport" showname="Source Port: 58294" size="2" pos="34" show="58294" value="e3b6"/>
    <field name="tcp.dstport" showname="Destination Port: 7777" size="2" pos="36" show="7777" value="1e61"/>
    <field name="tcp.port" showname="Source or Destination Port: 58294" hide="yes" size="2" pos="34" show="58294" value="e3b6"/>
    <field name="tcp.port" showname="Source or Destination Port: 7777" hide="yes" size="2" pos="36" show="7777" value="1e61"/>
    <field name="tcp.stream" showname="Stream index: 1" size="0" pos="34" show="1"/>
    <field name="tcp.len" showname="TCP Segment Len: 66" size="1" pos="46" show="66" value="80"/>
    <field name="tcp.seq" showname="Sequence number: 1434351483" size="4" pos="38" show="1434351483" value="557e777b"/>
    <field name="tcp.seq_raw" showname="Sequence number (raw): 1434351483" hide="yes" size="4" pos="38" show="1434351483" value="557e777b"/>
    <field name="tcp.nxtseq" showname="Next sequence number: 1434351549" size="0" pos="34" show="1434351549"/>
    <field name="tcp.ack" showname="Acknowledgment number: 2327922220" size="4" pos="42" show="2327922220" value="8ac1462c"/>
    <field name="tcp.ack_raw" showname="Acknowledgment number (raw): 2327922220" hide="yes" size="4" pos="42" show="2327922220" value="8ac1462c"/>
    <field name="tcp.hdr_len" showname="1000 .... = Header Length: 32 bytes (8)" size="1" pos="46" show="32" value="80"/>
    <field name="tcp.flags" showname="Flags: 0x018 (PSH, ACK)" size="2" pos="46" show="0x00000018" value="18" unmaskedvalue="8018">
      <field name="tcp.flags.res" showname="000. .... .... = Reserved: Not set" size="1" pos="46" show="0" value="0" unmaskedvalue="80"/>
      <field name="tcp.flags.ns" showname="...0 .... .... = Nonce: Not set" size="1" pos="46" show="0" value="0" unmaskedvalue="80"/>
      <field name="tcp.flags.cwr" showname=".... 0... .... = Congestion Window Reduced (CWR): Not set" size="1" pos="47" show="0" value="0" unmaskedvalue="18"/>
      <field name="tcp.flags.ecn" showname=".... .0.. .... = ECN-Echo: Not set" size="1" pos="47" show="0" value="0" unmaskedvalue="18"/>
      <field name="tcp.flags.urg" showname=".... ..0. .... = Urgent: Not set" size="1" pos="47" show="0" value="0" unmaskedvalue="18"/>
      <field name="tcp.flags.ack" showname=".... ...1 .... = Acknowledgment: Set" size="1" pos="47" show="1" value="1" unmaskedvalue="18"/>
      <field name="tcp.flags.push" showname=".... .... 1... = Push: Set" size="1" pos="47" show="1" value="1" unmaskedvalue="18"/>
      <field name="tcp.flags.reset" showname=".... .... .0.. = Reset: Not set" size="1" pos="47" show="0" value="0" unmaskedvalue="18"/>
      <field name="tcp.flags.syn" showname=".... .... ..0. = Syn: Not set" size="1" pos="47" show="0" value="0" unmaskedvalue="18"/>
      <field name="tcp.flags.fin" showname=".... .... ...0 = Fin: Not set" size="1" pos="47" show="0" value="0" unmaskedvalue="18"/>
      <field name="tcp.flags.str" showname="TCP Flags: \xc2\xb7\xc2\xb7\xc2\xb7\xc2\xb7\xc2\xb7\xc2\xb7\xc2\xb7AP\xc2\xb7\xc2\xb7\xc2\xb7" size="2" pos="46" show="\xc2\xb7\xc2\xb7\xc2\xb7\xc2\xb7\xc2\xb7\xc2\xb7\xc2\xb7AP\xc2\xb7\xc2\xb7\xc2\xb7" value="8018"/>
    </field>
    <field name="tcp.window_size_value" showname="Window size value: 501" size="2" pos="48" show="501" value="01f5"/>
    <field name="tcp.window_size" showname="Calculated window size: 501" size="2" pos="48" show="501" value="01f5"/>
    <field name="tcp.window_size_scalefactor" showname="Window size scaling factor: -1 (unknown)" size="2" pos="48" show="-1" value="01f5"/>
    <field name="tcp.checksum" showname="Checksum: 0x256a [unverified]" size="2" pos="50" show="0x0000256a" value="256a"/>
    <field name="tcp.checksum.status" showname="Checksum Status: Unverified" size="0" pos="50" show="2"/>
    <field name="tcp.urgent_pointer" showname="Urgent pointer: 0" size="2" pos="52" show="0" value="0000"/>
    <field name="tcp.options" showname="Options: (12 bytes), No-Operation (NOP), No-Operation (NOP), Timestamps" size="12" pos="54" show="01:01:08:0a:c5:33:04:24:c6:a3:0d:34" value="0101080ac5330424c6a30d34">
      <field name="tcp.options.nop" showname="TCP Option - No-Operation (NOP)" size="1" pos="54" show="01" value="01">
        <field name="tcp.option_kind" showname="Kind: No-Operation (1)" size="1" pos="54" show="1" value="01"/>
      </field>
      <field name="tcp.options.nop" showname="TCP Option - No-Operation (NOP)" size="1" pos="55" show="01" value="01">
        <field name="tcp.option_kind" showname="Kind: No-Operation (1)" size="1" pos="55" show="1" value="01"/>
      </field>
      <field name="tcp.options.timestamp" showname="TCP Option - Timestamps: TSval 3308454948, TSecr 3332574516" size="10" pos="56" show="08:0a:c5:33:04:24:c6:a3:0d:34" value="080ac5330424c6a30d34">
        <field name="tcp.option_kind" showname="Kind: Time Stamp Option (8)" size="1" pos="56" show="8" value="08"/>
        <field name="tcp.option_len" showname="Length: 10" size="1" pos="57" show="10" value="0a"/>
        <field name="tcp.options.timestamp.tsval" showname="Timestamp value: 3308454948" size="4" pos="58" show="3308454948" value="c5330424"/>
        <field name="tcp.options.timestamp.tsecr" showname="Timestamp echo reply: 3332574516" size="4" pos="62" show="3332574516" value="c6a30d34"/>
      </field>
    </field>
    <field name="" show="Timestamps" size="0" pos="34">
      <field name="tcp.time_relative" showname="Time since first frame in this TCP stream: 10.009038313 seconds" size="0" pos="34" show="10.009038313"/>
      <field name="tcp.time_delta" showname="Time since previous frame in this TCP stream: 10.008267857 seconds" size="0" pos="34" show="10.008267857"/>
    </field>
    <field name="tcp.payload" showname="TCP payload (66 bytes)" size="66" pos="66" show="00:00:39:01:04:00:00:01:ff:c1:04:ad:62:aa:ac:95:6a:a5:a5:8e:e1:62:a9:56:35:48:48:ea:21:50:c3:6c:8a:49:1b:74:4b:4a:fc:ac:ac:d0:4b:22:d1:b6:fb:cb:47:20:c5:2c:63:78:24:96:4f:86:c4:c0:c3:0f:0d:02:37:32" value="0000390104000001ffc104ad62aaac956aa5a58ee162a956354848ea2150c36c8a491b744b4afcacacd04b22d1b6fbcb4720c52c637824964f86c4c0c30f0d023732"/>
    <field name="tcp.pdu.size" showname="PDU Size: 66" size="66" pos="66" show="66" value="0000390104000001ffc104ad62aaac956aa5a58ee162a956354848ea2150c36c8a491b744b4afcacacd04b22d1b6fbcb4720c52c637824964f86c4c0c30f0d023732"/>
  </proto>
  <proto name="http2" showname="HyperText Transfer Protocol 2" size="66" pos="66">
    <field name="filtered" value="http2" />
  </proto>
</packet>


<packet>
  <proto name="geninfo" pos="0" showname="General information" size="147">
    <field name="num" pos="0" show="19" showname="Number" value="13" size="147"/>
    <field name="len" pos="0" show="147" showname="Frame Length" value="93" size="147"/>
    <field name="caplen" pos="0" show="147" showname="Captured Length" value="93" size="147"/>
    <field name="timestamp" pos="0" show="May 24, 2023 20:26:31.339799040 CEST" showname="Captured Time" value="1684952791.339799040" size="147"/>
  </proto>
  <proto name="frame" showname="Frame 19: 147 bytes on wire (1176 bits), 147 bytes captured (1176 bits) on interface veth_nssf, id 0" size="147" pos="0">
    <field name="filtered" value="frame" />
  </proto>
  <proto name="eth" showname="Ethernet II, Src: 7a:24:b4:3d:64:76, Dst: da:73:09:fb:97:ae" size="14" pos="0">
    <field name="filtered" value="eth" />
  </proto>
  <proto name="ip" showname="Internet Protocol Version 4, Src: 10.0.9.1, Dst: 10.0.8.1" size="20" pos="14">
    <field name="filtered" value="ip" />
  </proto>
  <proto name="tcp" showname="Transmission Control Protocol, Src Port: 58294, Dst Port: 7777, Seq: 1434351549, Ack: 2327922220, Len: 81" size="32" pos="34">
    <field name="tcp.srcport" showname="Source Port: 58294" size="2" pos="34" show="58294" value="e3b6"/>
    <field name="tcp.dstport" showname="Destination Port: 7777" size="2" pos="36" show="7777" value="1e61"/>
    <field name="tcp.port" showname="Source or Destination Port: 58294" hide="yes" size="2" pos="34" show="58294" value="e3b6"/>
    <field name="tcp.port" showname="Source or Destination Port: 7777" hide="yes" size="2" pos="36" show="7777" value="1e61"/>
    <field name="tcp.stream" showname="Stream index: 1" size="0" pos="34" show="1"/>
    <field name="tcp.len" showname="TCP Segment Len: 81" size="1" pos="46" show="81" value="80"/>
    <field name="tcp.seq" showname="Sequence number: 1434351549" size="4" pos="38" show="1434351549" value="557e77bd"/>
    <field name="tcp.seq_raw" showname="Sequence number (raw): 1434351549" hide="yes" size="4" pos="38" show="1434351549" value="557e77bd"/>
    <field name="tcp.nxtseq" showname="Next sequence number: 1434351630" size="0" pos="34" show="1434351630"/>
    <field name="tcp.ack" showname="Acknowledgment number: 2327922220" size="4" pos="42" show="2327922220" value="8ac1462c"/>
    <field name="tcp.ack_raw" showname="Acknowledgment number (raw): 2327922220" hide="yes" size="4" pos="42" show="2327922220" value="8ac1462c"/>
    <field name="tcp.hdr_len" showname="1000 .... = Header Length: 32 bytes (8)" size="1" pos="46" show="32" value="80"/>
    <field name="tcp.flags" showname="Flags: 0x018 (PSH, ACK)" size="2" pos="46" show="0x00000018" value="18" unmaskedvalue="8018">
      <field name="tcp.flags.res" showname="000. .... .... = Reserved: Not set" size="1" pos="46" show="0" value="0" unmaskedvalue="80"/>
      <field name="tcp.flags.ns" showname="...0 .... .... = Nonce: Not set" size="1" pos="46" show="0" value="0" unmaskedvalue="80"/>
      <field name="tcp.flags.cwr" showname=".... 0... .... = Congestion Window Reduced (CWR): Not set" size="1" pos="47" show="0" value="0" unmaskedvalue="18"/>
      <field name="tcp.flags.ecn" showname=".... .0.. .... = ECN-Echo: Not set" size="1" pos="47" show="0" value="0" unmaskedvalue="18"/>
      <field name="tcp.flags.urg" showname=".... ..0. .... = Urgent: Not set" size="1" pos="47" show="0" value="0" unmaskedvalue="18"/>
      <field name="tcp.flags.ack" showname=".... ...1 .... = Acknowledgment: Set" size="1" pos="47" show="1" value="1" unmaskedvalue="18"/>
      <field name="tcp.flags.push" showname=".... .... 1... = Push: Set" size="1" pos="47" show="1" value="1" unmaskedvalue="18"/>
      <field name="tcp.flags.reset" showname=".... .... .0.. = Reset: Not set" size="1" pos="47" show="0" value="0" unmaskedvalue="18"/>
      <field name="tcp.flags.syn" showname=".... .... ..0. = Syn: Not set" size="1" pos="47" show="0" value="0" unmaskedvalue="18"/>
      <field name="tcp.flags.fin" showname=".... .... ...0 = Fin: Not set" size="1" pos="47" show="0" value="0" unmaskedvalue="18"/>
      <field name="tcp.flags.str" showname="TCP Flags: \xc2\xb7\xc2\xb7\xc2\xb7\xc2\xb7\xc2\xb7\xc2\xb7\xc2\xb7AP\xc2\xb7\xc2\xb7\xc2\xb7" size="2" pos="46" show="\xc2\xb7\xc2\xb7\xc2\xb7\xc2\xb7\xc2\xb7\xc2\xb7\xc2\xb7AP\xc2\xb7\xc2\xb7\xc2\xb7" value="8018"/>
    </field>
    <field name="tcp.window_size_value" showname="Window size value: 501" size="2" pos="48" show="501" value="01f5"/>
    <field name="tcp.window_size" showname="Calculated window size: 501" size="2" pos="48" show="501" value="01f5"/>
    <field name="tcp.window_size_scalefactor" showname="Window size scaling factor: -1 (unknown)" size="2" pos="48" show="-1" value="01f5"/>
    <field name="tcp.checksum" showname="Checksum: 0x2579 [unverified]" size="2" pos="50" show="0x00002579" value="2579"/>
    <field name="tcp.checksum.status" showname="Checksum Status: Unverified" size="0" pos="50" show="2"/>
    <field name="tcp.urgent_pointer" showname="Urgent pointer: 0" size="2" pos="52" show="0" value="0000"/>
    <field name="tcp.options" showname="Options: (12 bytes), No-Operation (NOP), No-Operation (NOP), Timestamps" size="12" pos="54" show="01:01:08:0a:c5:33:04:24:c6:a3:0d:34" value="0101080ac5330424c6a30d34">
      <field name="tcp.options.nop" showname="TCP Option - No-Operation (NOP)" size="1" pos="54" show="01" value="01">
        <field name="tcp.option_kind" showname="Kind: No-Operation (1)" size="1" pos="54" show="1" value="01"/>
      </field>
      <field name="tcp.options.nop" showname="TCP Option - No-Operation (NOP)" size="1" pos="55" show="01" value="01">
        <field name="tcp.option_kind" showname="Kind: No-Operation (1)" size="1" pos="55" show="1" value="01"/>
      </field>
      <field name="tcp.options.timestamp" showname="TCP Option - Timestamps: TSval 3308454948, TSecr 3332574516" size="10" pos="56" show="08:0a:c5:33:04:24:c6:a3:0d:34" value="080ac5330424c6a30d34">
        <field name="tcp.option_kind" showname="Kind: Time Stamp Option (8)" size="1" pos="56" show="8" value="08"/>
        <field name="tcp.option_len" showname="Length: 10" size="1" pos="57" show="10" value="0a"/>
        <field name="tcp.options.timestamp.tsval" showname="Timestamp value: 3308454948" size="4" pos="58" show="3308454948" value="c5330424"/>
        <field name="tcp.options.timestamp.tsecr" showname="Timestamp echo reply: 3332574516" size="4" pos="62" show="3332574516" value="c6a30d34"/>
      </field>
    </field>
    <field name="" show="Timestamps" size="0" pos="34">
      <field name="tcp.time_relative" showname="Time since first frame in this TCP stream: 10.009047907 seconds" size="0" pos="34" show="10.009047907"/>
      <field name="tcp.time_delta" showname="Time since previous frame in this TCP stream: 0.000009594 seconds" size="0" pos="34" show="0.000009594"/>
    </field>
    <field name="tcp.payload" showname="TCP payload (81 bytes)" size="81" pos="66" show="00:00:48:00:01:00:00:01:ff:5b:7b:0a:09:09:22:6f:70:22:3a:09:22:72:65:70:6c:61:63:65:22:2c:0a:09:09:22:70:61:74:68:22:3a:09:22:2f:6e:66:53:74:61:74:75:73:22:2c:0a:09:09:22:76:61:6c:75:65:22:3a:09:22:52:45:47:49:53:54:45:52:45:44:22:0a:09:7d:5d" value="0000480001000001ff5b7b0a0909226f70223a09227265706c616365222c0a09092270617468223a09222f6e66537461747573222c0a09092276616c7565223a092252454749535445524544220a097d5d"/>
    <field name="tcp.pdu.size" showname="PDU Size: 81" size="81" pos="66" show="81" value="0000480001000001ff5b7b0a0909226f70223a09227265706c616365222c0a09092270617468223a09222f6e66537461747573222c0a09092276616c7565223a092252454749535445524544220a097d5d"/>
  </proto>
  <proto name="http2" showname="HyperText Transfer Protocol 2" size="81" pos="66">
    <field name="filtered" value="http2" />
  </proto>
</packet>


<packet>
  <proto name="geninfo" pos="0" showname="General information" size="66">
    <field name="num" pos="0" show="20" showname="Number" value="14" size="66"/>
    <field name="len" pos="0" show="66" showname="Frame Length" value="42" size="66"/>
    <field name="caplen" pos="0" show="66" showname="Captured Length" value="42" size="66"/>
    <field name="timestamp" pos="0" show="May 24, 2023 20:26:31.340049438 CEST" showname="Captured Time" value="1684952791.340049438" size="66"/>
  </proto>
  <proto name="frame" showname="Frame 20: 66 bytes on wire (528 bits), 66 bytes captured (528 bits) on interface veth_nssf, id 0" size="66" pos="0">
    <field name="filtered" value="frame" />
  </proto>
  <proto name="eth" showname="Ethernet II, Src: da:73:09:fb:97:ae, Dst: 7a:24:b4:3d:64:76" size="14" pos="0">
    <field name="filtered" value="eth" />
  </proto>
  <proto name="ip" showname="Internet Protocol Version 4, Src: 10.0.8.1, Dst: 10.0.9.1" size="20" pos="14">
    <field name="filtered" value="ip" />
  </proto>
  <proto name="tcp" showname="Transmission Control Protocol, Src Port: 7777, Dst Port: 58294, Seq: 2327922220, Ack: 1434351630, Len: 0" size="32" pos="34">
    <field name="tcp.srcport" showname="Source Port: 7777" size="2" pos="34" show="7777" value="1e61"/>
    <field name="tcp.dstport" showname="Destination Port: 58294" size="2" pos="36" show="58294" value="e3b6"/>
    <field name="tcp.port" showname="Source or Destination Port: 7777" hide="yes" size="2" pos="34" show="7777" value="1e61"/>
    <field name="tcp.port" showname="Source or Destination Port: 58294" hide="yes" size="2" pos="36" show="58294" value="e3b6"/>
    <field name="tcp.stream" showname="Stream index: 1" size="0" pos="34" show="1"/>
    <field name="tcp.len" showname="TCP Segment Len: 0" size="1" pos="46" show="0" value="80"/>
    <field name="tcp.seq" showname="Sequence number: 2327922220" size="4" pos="38" show="2327922220" value="8ac1462c"/>
    <field name="tcp.seq_raw" showname="Sequence number (raw): 2327922220" hide="yes" size="4" pos="38" show="2327922220" value="8ac1462c"/>
    <field name="tcp.nxtseq" showname="Next sequence number: 2327922220" size="0" pos="34" show="2327922220"/>
    <field name="tcp.ack" showname="Acknowledgment number: 1434351630" size="4" pos="42" show="1434351630" value="557e780e"/>
    <field name="tcp.ack_raw" showname="Acknowledgment number (raw): 1434351630" hide="yes" size="4" pos="42" show="1434351630" value="557e780e"/>
    <field name="tcp.hdr_len" showname="1000 .... = Header Length: 32 bytes (8)" size="1" pos="46" show="32" value="80"/>
    <field name="tcp.flags" showname="Flags: 0x010 (ACK)" size="2" pos="46" show="0x00000010" value="10" unmaskedvalue="8010">
      <field name="tcp.flags.res" showname="000. .... .... = Reserved: Not set" size="1" pos="46" show="0" value="0" unmaskedvalue="80"/>
      <field name="tcp.flags.ns" showname="...0 .... .... = Nonce: Not set" size="1" pos="46" show="0" value="0" unmaskedvalue="80"/>
      <field name="tcp.flags.cwr" showname=".... 0... .... = Congestion Window Reduced (CWR): Not set" size="1" pos="47" show="0" value="0" unmaskedvalue="10"/>
      <field name="tcp.flags.ecn" showname=".... .0.. .... = ECN-Echo: Not set" size="1" pos="47" show="0" value="0" unmaskedvalue="10"/>
      <field name="tcp.flags.urg" showname=".... ..0. .... = Urgent: Not set" size="1" pos="47" show="0" value="0" unmaskedvalue="10"/>
      <field name="tcp.flags.ack" showname=".... ...1 .... = Acknowledgment: Set" size="1" pos="47" show="1" value="1" unmaskedvalue="10"/>
      <field name="tcp.flags.push" showname=".... .... 0... = Push: Not set" size="1" pos="47" show="0" value="0" unmaskedvalue="10"/>
      <field name="tcp.flags.reset" showname=".... .... .0.. = Reset: Not set" size="1" pos="47" show="0" value="0" unmaskedvalue="10"/>
      <field name="tcp.flags.syn" showname=".... .... ..0. = Syn: Not set" size="1" pos="47" show="0" value="0" unmaskedvalue="10"/>
      <field name="tcp.flags.fin" showname=".... .... ...0 = Fin: Not set" size="1" pos="47" show="0" value="0" unmaskedvalue="10"/>
      <field name="tcp.flags.str" showname="TCP Flags: \xc2\xb7\xc2\xb7\xc2\xb7\xc2\xb7\xc2\xb7\xc2\xb7\xc2\xb7A\xc2\xb7\xc2\xb7\xc2\xb7\xc2\xb7" size="2" pos="46" show="\xc2\xb7\xc2\xb7\xc2\xb7\xc2\xb7\xc2\xb7\xc2\xb7\xc2\xb7A\xc2\xb7\xc2\xb7\xc2\xb7\xc2\xb7" value="8010"/>
    </field>
    <field name="tcp.window_size_value" showname="Window size value: 501" size="2" pos="48" show="501" value="01f5"/>
    <field name="tcp.window_size" showname="Calculated window size: 501" size="2" pos="48" show="501" value="01f5"/>
    <field name="tcp.window_size_scalefactor" showname="Window size scaling factor: -1 (unknown)" size="2" pos="48" show="-1" value="01f5"/>
    <field name="tcp.checksum" showname="Checksum: 0x2528 [unverified]" size="2" pos="50" show="0x00002528" value="2528"/>
    <field name="tcp.checksum.status" showname="Checksum Status: Unverified" size="0" pos="50" show="2"/>
    <field name="tcp.urgent_pointer" showname="Urgent pointer: 0" size="2" pos="52" show="0" value="0000"/>
    <field name="tcp.options" showname="Options: (12 bytes), No-Operation (NOP), No-Operation (NOP), Timestamps" size="12" pos="54" show="01:01:08:0a:c6:a3:34:4d:c5:33:04:24" value="0101080ac6a3344dc5330424">
      <field name="tcp.options.nop" showname="TCP Option - No-Operation (NOP)" size="1" pos="54" show="01" value="01">
        <field name="tcp.option_kind" showname="Kind: No-Operation (1)" size="1" pos="54" show="1" value="01"/>
      </field>
      <field name="tcp.options.nop" showname="TCP Option - No-Operation (NOP)" size="1" pos="55" show="01" value="01">
        <field name="tcp.option_kind" showname="Kind: No-Operation (1)" size="1" pos="55" show="1" value="01"/>
      </field>
      <field name="tcp.options.timestamp" showname="TCP Option - Timestamps: TSval 3332584525, TSecr 3308454948" size="10" pos="56" show="08:0a:c6:a3:34:4d:c5:33:04:24" value="080ac6a3344dc5330424">
        <field name="tcp.option_kind" showname="Kind: Time Stamp Option (8)" size="1" pos="56" show="8" value="08"/>
        <field name="tcp.option_len" showname="Length: 10" size="1" pos="57" show="10" value="0a"/>
        <field name="tcp.options.timestamp.tsval" showname="Timestamp value: 3332584525" size="4" pos="58" show="3332584525" value="c6a3344d"/>
        <field name="tcp.options.timestamp.tsecr" showname="Timestamp echo reply: 3308454948" size="4" pos="62" show="3308454948" value="c5330424"/>
      </field>
    </field>
    <field name="" show="Timestamps" size="0" pos="34">
      <field name="tcp.time_relative" showname="Time since first frame in this TCP stream: 10.009298305 seconds" size="0" pos="34" show="10.009298305"/>
      <field name="tcp.time_delta" showname="Time since previous frame in this TCP stream: 0.000250398 seconds" size="0" pos="34" show="0.000250398"/>
    </field>
  </proto>
</packet>


<packet>
  <proto name="geninfo" pos="0" showname="General information" size="101">
    <field name="num" pos="0" show="21" showname="Number" value="15" size="101"/>
    <field name="len" pos="0" show="101" showname="Frame Length" value="65" size="101"/>
    <field name="caplen" pos="0" show="101" showname="Captured Length" value="65" size="101"/>
    <field name="timestamp" pos="0" show="May 24, 2023 20:26:31.340291639 CEST" showname="Captured Time" value="1684952791.340291639" size="101"/>
  </proto>
  <proto name="frame" showname="Frame 21: 101 bytes on wire (808 bits), 101 bytes captured (808 bits) on interface veth_nssf, id 0" size="101" pos="0">
    <field name="filtered" value="frame" />
  </proto>
  <proto name="eth" showname="Ethernet II, Src: da:73:09:fb:97:ae, Dst: 7a:24:b4:3d:64:76" size="14" pos="0">
    <field name="filtered" value="eth" />
  </proto>
  <proto name="ip" showname="Internet Protocol Version 4, Src: 10.0.8.1, Dst: 10.0.9.1" size="20" pos="14">
    <field name="filtered" value="ip" />
  </proto>
  <proto name="tcp" showname="Transmission Control Protocol, Src Port: 7777, Dst Port: 58294, Seq: 2327922220, Ack: 1434351630, Len: 35" size="32" pos="34">
    <field name="tcp.srcport" showname="Source Port: 7777" size="2" pos="34" show="7777" value="1e61"/>
    <field name="tcp.dstport" showname="Destination Port: 58294" size="2" pos="36" show="58294" value="e3b6"/>
    <field name="tcp.port" showname="Source or Destination Port: 7777" hide="yes" size="2" pos="34" show="7777" value="1e61"/>
    <field name="tcp.port" showname="Source or Destination Port: 58294" hide="yes" size="2" pos="36" show="58294" value="e3b6"/>
    <field name="tcp.stream" showname="Stream index: 1" size="0" pos="34" show="1"/>
    <field name="tcp.len" showname="TCP Segment Len: 35" size="1" pos="46" show="35" value="80"/>
    <field name="tcp.seq" showname="Sequence number: 2327922220" size="4" pos="38" show="2327922220" value="8ac1462c"/>
    <field name="tcp.seq_raw" showname="Sequence number (raw): 2327922220" hide="yes" size="4" pos="38" show="2327922220" value="8ac1462c"/>
    <field name="tcp.nxtseq" showname="Next sequence number: 2327922255" size="0" pos="34" show="2327922255"/>
    <field name="tcp.ack" showname="Acknowledgment number: 1434351630" size="4" pos="42" show="1434351630" value="557e780e"/>
    <field name="tcp.ack_raw" showname="Acknowledgment number (raw): 1434351630" hide="yes" size="4" pos="42" show="1434351630" value="557e780e"/>
    <field name="tcp.hdr_len" showname="1000 .... = Header Length: 32 bytes (8)" size="1" pos="46" show="32" value="80"/>
    <field name="tcp.flags" showname="Flags: 0x018 (PSH, ACK)" size="2" pos="46" show="0x00000018" value="18" unmaskedvalue="8018">
      <field name="tcp.flags.res" showname="000. .... .... = Reserved: Not set" size="1" pos="46" show="0" value="0" unmaskedvalue="80"/>
      <field name="tcp.flags.ns" showname="...0 .... .... = Nonce: Not set" size="1" pos="46" show="0" value="0" unmaskedvalue="80"/>
      <field name="tcp.flags.cwr" showname=".... 0... .... = Congestion Window Reduced (CWR): Not set" size="1" pos="47" show="0" value="0" unmaskedvalue="18"/>
      <field name="tcp.flags.ecn" showname=".... .0.. .... = ECN-Echo: Not set" size="1" pos="47" show="0" value="0" unmaskedvalue="18"/>
      <field name="tcp.flags.urg" showname=".... ..0. .... = Urgent: Not set" size="1" pos="47" show="0" value="0" unmaskedvalue="18"/>
      <field name="tcp.flags.ack" showname=".... ...1 .... = Acknowledgment: Set" size="1" pos="47" show="1" value="1" unmaskedvalue="18"/>
      <field name="tcp.flags.push" showname=".... .... 1... = Push: Set" size="1" pos="47" show="1" value="1" unmaskedvalue="18"/>
      <field name="tcp.flags.reset" showname=".... .... .0.. = Reset: Not set" size="1" pos="47" show="0" value="0" unmaskedvalue="18"/>
      <field name="tcp.flags.syn" showname=".... .... ..0. = Syn: Not set" size="1" pos="47" show="0" value="0" unmaskedvalue="18"/>
      <field name="tcp.flags.fin" showname=".... .... ...0 = Fin: Not set" size="1" pos="47" show="0" value="0" unmaskedvalue="18"/>
      <field name="tcp.flags.str" showname="TCP Flags: \xc2\xb7\xc2\xb7\xc2\xb7\xc2\xb7\xc2\xb7\xc2\xb7\xc2\xb7AP\xc2\xb7\xc2\xb7\xc2\xb7" size="2" pos="46" show="\xc2\xb7\xc2\xb7\xc2\xb7\xc2\xb7\xc2\xb7\xc2\xb7\xc2\xb7AP\xc2\xb7\xc2\xb7\xc2\xb7" value="8018"/>
    </field>
    <field name="tcp.window_size_value" showname="Window size value: 501" size="2" pos="48" show="501" value="01f5"/>
    <field name="tcp.window_size" showname="Calculated window size: 501" size="2" pos="48" show="501" value="01f5"/>
    <field name="tcp.window_size_scalefactor" showname="Window size scaling factor: -1 (unknown)" size="2" pos="48" show="-1" value="01f5"/>
    <field name="tcp.checksum" showname="Checksum: 0x254b [unverified]" size="2" pos="50" show="0x0000254b" value="254b"/>
    <field name="tcp.checksum.status" showname="Checksum Status: Unverified" size="0" pos="50" show="2"/>
    <field name="tcp.urgent_pointer" showname="Urgent pointer: 0" size="2" pos="52" show="0" value="0000"/>
    <field name="tcp.options" showname="Options: (12 bytes), No-Operation (NOP), No-Operation (NOP), Timestamps" size="12" pos="54" show="01:01:08:0a:c6:a3:34:4d:c5:33:04:24" value="0101080ac6a3344dc5330424">
      <field name="tcp.options.nop" showname="TCP Option - No-Operation (NOP)" size="1" pos="54" show="01" value="01">
        <field name="tcp.option_kind" showname="Kind: No-Operation (1)" size="1" pos="54" show="1" value="01"/>
      </field>
      <field name="tcp.options.nop" showname="TCP Option - No-Operation (NOP)" size="1" pos="55" show="01" value="01">
        <field name="tcp.option_kind" showname="Kind: No-Operation (1)" size="1" pos="55" show="1" value="01"/>
      </field>
      <field name="tcp.options.timestamp" showname="TCP Option - Timestamps: TSval 3332584525, TSecr 3308454948" size="10" pos="56" show="08:0a:c6:a3:34:4d:c5:33:04:24" value="080ac6a3344dc5330424">
        <field name="tcp.option_kind" showname="Kind: Time Stamp Option (8)" size="1" pos="56" show="8" value="08"/>
        <field name="tcp.option_len" showname="Length: 10" size="1" pos="57" show="10" value="0a"/>
        <field name="tcp.options.timestamp.tsval" showname="Timestamp value: 3332584525" size="4" pos="58" show="3332584525" value="c6a3344d"/>
        <field name="tcp.options.timestamp.tsecr" showname="Timestamp echo reply: 3308454948" size="4" pos="62" show="3308454948" value="c5330424"/>
      </field>
    </field>
    <field name="" show="Timestamps" size="0" pos="34">
      <field name="tcp.time_relative" showname="Time since first frame in this TCP stream: 10.009540506 seconds" size="0" pos="34" show="10.009540506"/>
      <field name="tcp.time_delta" showname="Time since previous frame in this TCP stream: 0.000242201 seconds" size="0" pos="34" show="0.000242201"/>
    </field>
    <field name="tcp.payload" showname="TCP payload (35 bytes)" size="35" pos="66" show="00:00:1a:01:05:00:00:01:ff:89:c1:61:96:e4:59:3e:94:13:4a:68:1f:a5:04:01:32:a0:5e:b8:27:2e:32:15:31:68:df" value="00001a0105000001ff89c16196e4593e94134a681fa5040132a05eb8272e32153168df"/>
    <field name="tcp.pdu.size" showname="PDU Size: 35" size="35" pos="66" show="35" value="00001a0105000001ff89c16196e4593e94134a681fa5040132a05eb8272e32153168df"/>
  </proto>
  <proto name="http2" showname="HyperText Transfer Protocol 2" size="35" pos="66">
    <field name="filtered" value="http2" />
  </proto>
</packet>


<packet>
  <proto name="geninfo" pos="0" showname="General information" size="66">
    <field name="num" pos="0" show="22" showname="Number" value="16" size="66"/>
    <field name="len" pos="0" show="66" showname="Frame Length" value="42" size="66"/>
    <field name="caplen" pos="0" show="66" showname="Captured Length" value="42" size="66"/>
    <field name="timestamp" pos="0" show="May 24, 2023 20:26:31.340295107 CEST" showname="Captured Time" value="1684952791.340295107" size="66"/>
  </proto>
  <proto name="frame" showname="Frame 22: 66 bytes on wire (528 bits), 66 bytes captured (528 bits) on interface veth_nssf, id 0" size="66" pos="0">
    <field name="filtered" value="frame" />
  </proto>
  <proto name="eth" showname="Ethernet II, Src: 7a:24:b4:3d:64:76, Dst: da:73:09:fb:97:ae" size="14" pos="0">
    <field name="filtered" value="eth" />
  </proto>
  <proto name="ip" showname="Internet Protocol Version 4, Src: 10.0.9.1, Dst: 10.0.8.1" size="20" pos="14">
    <field name="filtered" value="ip" />
  </proto>
  <proto name="tcp" showname="Transmission Control Protocol, Src Port: 58294, Dst Port: 7777, Seq: 1434351630, Ack: 2327922255, Len: 0" size="32" pos="34">
    <field name="tcp.srcport" showname="Source Port: 58294" size="2" pos="34" show="58294" value="e3b6"/>
    <field name="tcp.dstport" showname="Destination Port: 7777" size="2" pos="36" show="7777" value="1e61"/>
    <field name="tcp.port" showname="Source or Destination Port: 58294" hide="yes" size="2" pos="34" show="58294" value="e3b6"/>
    <field name="tcp.port" showname="Source or Destination Port: 7777" hide="yes" size="2" pos="36" show="7777" value="1e61"/>
    <field name="tcp.stream" showname="Stream index: 1" size="0" pos="34" show="1"/>
    <field name="tcp.len" showname="TCP Segment Len: 0" size="1" pos="46" show="0" value="80"/>
    <field name="tcp.seq" showname="Sequence number: 1434351630" size="4" pos="38" show="1434351630" value="557e780e"/>
    <field name="tcp.seq_raw" showname="Sequence number (raw): 1434351630" hide="yes" size="4" pos="38" show="1434351630" value="557e780e"/>
    <field name="tcp.nxtseq" showname="Next sequence number: 1434351630" size="0" pos="34" show="1434351630"/>
    <field name="tcp.ack" showname="Acknowledgment number: 2327922255" size="4" pos="42" show="2327922255" value="8ac1464f"/>
    <field name="tcp.ack_raw" showname="Acknowledgment number (raw): 2327922255" hide="yes" size="4" pos="42" show="2327922255" value="8ac1464f"/>
    <field name="tcp.hdr_len" showname="1000 .... = Header Length: 32 bytes (8)" size="1" pos="46" show="32" value="80"/>
    <field name="tcp.flags" showname="Flags: 0x010 (ACK)" size="2" pos="46" show="0x00000010" value="10" unmaskedvalue="8010">
      <field name="tcp.flags.res" showname="000. .... .... = Reserved: Not set" size="1" pos="46" show="0" value="0" unmaskedvalue="80"/>
      <field name="tcp.flags.ns" showname="...0 .... .... = Nonce: Not set" size="1" pos="46" show="0" value="0" unmaskedvalue="80"/>
      <field name="tcp.flags.cwr" showname=".... 0... .... = Congestion Window Reduced (CWR): Not set" size="1" pos="47" show="0" value="0" unmaskedvalue="10"/>
      <field name="tcp.flags.ecn" showname=".... .0.. .... = ECN-Echo: Not set" size="1" pos="47" show="0" value="0" unmaskedvalue="10"/>
      <field name="tcp.flags.urg" showname=".... ..0. .... = Urgent: Not set" size="1" pos="47" show="0" value="0" unmaskedvalue="10"/>
      <field name="tcp.flags.ack" showname=".... ...1 .... = Acknowledgment: Set" size="1" pos="47" show="1" value="1" unmaskedvalue="10"/>
      <field name="tcp.flags.push" showname=".... .... 0... = Push: Not set" size="1" pos="47" show="0" value="0" unmaskedvalue="10"/>
      <field name="tcp.flags.reset" showname=".... .... .0.. = Reset: Not set" size="1" pos="47" show="0" value="0" unmaskedvalue="10"/>
      <field name="tcp.flags.syn" showname=".... .... ..0. = Syn: Not set" size="1" pos="47" show="0" value="0" unmaskedvalue="10"/>
      <field name="tcp.flags.fin" showname=".... .... ...0 = Fin: Not set" size="1" pos="47" show="0" value="0" unmaskedvalue="10"/>
      <field name="tcp.flags.str" showname="TCP Flags: \xc2\xb7\xc2\xb7\xc2\xb7\xc2\xb7\xc2\xb7\xc2\xb7\xc2\xb7A\xc2\xb7\xc2\xb7\xc2\xb7\xc2\xb7" size="2" pos="46" show="\xc2\xb7\xc2\xb7\xc2\xb7\xc2\xb7\xc2\xb7\xc2\xb7\xc2\xb7A\xc2\xb7\xc2\xb7\xc2\xb7\xc2\xb7" value="8010"/>
    </field>
    <field name="tcp.window_size_value" showname="Window size value: 501" size="2" pos="48" show="501" value="01f5"/>
    <field name="tcp.window_size" showname="Calculated window size: 501" size="2" pos="48" show="501" value="01f5"/>
    <field name="tcp.window_size_scalefactor" showname="Window size scaling factor: -1 (unknown)" size="2" pos="48" show="-1" value="01f5"/>
    <field name="tcp.checksum" showname="Checksum: 0x2528 [unverified]" size="2" pos="50" show="0x00002528" value="2528"/>
    <field name="tcp.checksum.status" showname="Checksum Status: Unverified" size="0" pos="50" show="2"/>
    <field name="tcp.urgent_pointer" showname="Urgent pointer: 0" size="2" pos="52" show="0" value="0000"/>
    <field name="tcp.options" showname="Options: (12 bytes), No-Operation (NOP), No-Operation (NOP), Timestamps" size="12" pos="54" show="01:01:08:0a:c5:33:04:24:c6:a3:34:4d" value="0101080ac5330424c6a3344d">
      <field name="tcp.options.nop" showname="TCP Option - No-Operation (NOP)" size="1" pos="54" show="01" value="01">
        <field name="tcp.option_kind" showname="Kind: No-Operation (1)" size="1" pos="54" show="1" value="01"/>
      </field>
      <field name="tcp.options.nop" showname="TCP Option - No-Operation (NOP)" size="1" pos="55" show="01" value="01">
        <field name="tcp.option_kind" showname="Kind: No-Operation (1)" size="1" pos="55" show="1" value="01"/>
      </field>
      <field name="tcp.options.timestamp" showname="TCP Option - Timestamps: TSval 3308454948, TSecr 3332584525" size="10" pos="56" show="08:0a:c5:33:04:24:c6:a3:34:4d" value="080ac5330424c6a3344d">
        <field name="tcp.option_kind" showname="Kind: Time Stamp Option (8)" size="1" pos="56" show="8" value="08"/>
        <field name="tcp.option_len" showname="Length: 10" size="1" pos="57" show="10" value="0a"/>
        <field name="tcp.options.timestamp.tsval" showname="Timestamp value: 3308454948" size="4" pos="58" show="3308454948" value="c5330424"/>
        <field name="tcp.options.timestamp.tsecr" showname="Timestamp echo reply: 3332584525" size="4" pos="62" show="3332584525" value="c6a3344d"/>
      </field>
    </field>
    <field name="" show="Timestamps" size="0" pos="34">
      <field name="tcp.time_relative" showname="Time since first frame in this TCP stream: 10.009543974 seconds" size="0" pos="34" show="10.009543974"/>
      <field name="tcp.time_delta" showname="Time since previous frame in this TCP stream: 0.000003468 seconds" size="0" pos="34" show="0.000003468"/>
    </field>
  </proto>
</packet>


<packet>
  <proto name="geninfo" pos="0" showname="General information" size="132">
    <field name="num" pos="0" show="23" showname="Number" value="17" size="132"/>
    <field name="len" pos="0" show="132" showname="Frame Length" value="84" size="132"/>
    <field name="caplen" pos="0" show="132" showname="Captured Length" value="84" size="132"/>
    <field name="timestamp" pos="0" show="May 24, 2023 20:26:41.349241598 CEST" showname="Captured Time" value="1684952801.349241598" size="132"/>
  </proto>
  <proto name="frame" showname="Frame 23: 132 bytes on wire (1056 bits), 132 bytes captured (1056 bits) on interface veth_nssf, id 0" size="132" pos="0">
    <field name="filtered" value="frame" />
  </proto>
  <proto name="eth" showname="Ethernet II, Src: 7a:24:b4:3d:64:76, Dst: da:73:09:fb:97:ae" size="14" pos="0">
    <field name="filtered" value="eth" />
  </proto>
  <proto name="ip" showname="Internet Protocol Version 4, Src: 10.0.9.1, Dst: 10.0.8.1" size="20" pos="14">
    <field name="filtered" value="ip" />
  </proto>
  <proto name="tcp" showname="Transmission Control Protocol, Src Port: 58294, Dst Port: 7777, Seq: 1434351630, Ack: 2327922255, Len: 66" size="32" pos="34">
    <field name="tcp.srcport" showname="Source Port: 58294" size="2" pos="34" show="58294" value="e3b6"/>
    <field name="tcp.dstport" showname="Destination Port: 7777" size="2" pos="36" show="7777" value="1e61"/>
    <field name="tcp.port" showname="Source or Destination Port: 58294" hide="yes" size="2" pos="34" show="58294" value="e3b6"/>
    <field name="tcp.port" showname="Source or Destination Port: 7777" hide="yes" size="2" pos="36" show="7777" value="1e61"/>
    <field name="tcp.stream" showname="Stream index: 1" size="0" pos="34" show="1"/>
    <field name="tcp.len" showname="TCP Segment Len: 66" size="1" pos="46" show="66" value="80"/>
    <field name="tcp.seq" showname="Sequence number: 1434351630" size="4" pos="38" show="1434351630" value="557e780e"/>
    <field name="tcp.seq_raw" showname="Sequence number (raw): 1434351630" hide="yes" size="4" pos="38" show="1434351630" value="557e780e"/>
    <field name="tcp.nxtseq" showname="Next sequence number: 1434351696" size="0" pos="34" show="1434351696"/>
    <field name="tcp.ack" showname="Acknowledgment number: 2327922255" size="4" pos="42" show="2327922255" value="8ac1464f"/>
    <field name="tcp.ack_raw" showname="Acknowledgment number (raw): 2327922255" hide="yes" size="4" pos="42" show="2327922255" value="8ac1464f"/>
    <field name="tcp.hdr_len" showname="1000 .... = Header Length: 32 bytes (8)" size="1" pos="46" show="32" value="80"/>
    <field name="tcp.flags" showname="Flags: 0x018 (PSH, ACK)" size="2" pos="46" show="0x00000018" value="18" unmaskedvalue="8018">
      <field name="tcp.flags.res" showname="000. .... .... = Reserved: Not set" size="1" pos="46" show="0" value="0" unmaskedvalue="80"/>
      <field name="tcp.flags.ns" showname="...0 .... .... = Nonce: Not set" size="1" pos="46" show="0" value="0" unmaskedvalue="80"/>
      <field name="tcp.flags.cwr" showname=".... 0... .... = Congestion Window Reduced (CWR): Not set" size="1" pos="47" show="0" value="0" unmaskedvalue="18"/>
      <field name="tcp.flags.ecn" showname=".... .0.. .... = ECN-Echo: Not set" size="1" pos="47" show="0" value="0" unmaskedvalue="18"/>
      <field name="tcp.flags.urg" showname=".... ..0. .... = Urgent: Not set" size="1" pos="47" show="0" value="0" unmaskedvalue="18"/>
      <field name="tcp.flags.ack" showname=".... ...1 .... = Acknowledgment: Set" size="1" pos="47" show="1" value="1" unmaskedvalue="18"/>
      <field name="tcp.flags.push" showname=".... .... 1... = Push: Set" size="1" pos="47" show="1" value="1" unmaskedvalue="18"/>
      <field name="tcp.flags.reset" showname=".... .... .0.. = Reset: Not set" size="1" pos="47" show="0" value="0" unmaskedvalue="18"/>
      <field name="tcp.flags.syn" showname=".... .... ..0. = Syn: Not set" size="1" pos="47" show="0" value="0" unmaskedvalue="18"/>
      <field name="tcp.flags.fin" showname=".... .... ...0 = Fin: Not set" size="1" pos="47" show="0" value="0" unmaskedvalue="18"/>
      <field name="tcp.flags.str" showname="TCP Flags: \xc2\xb7\xc2\xb7\xc2\xb7\xc2\xb7\xc2\xb7\xc2\xb7\xc2\xb7AP\xc2\xb7\xc2\xb7\xc2\xb7" size="2" pos="46" show="\xc2\xb7\xc2\xb7\xc2\xb7\xc2\xb7\xc2\xb7\xc2\xb7\xc2\xb7AP\xc2\xb7\xc2\xb7\xc2\xb7" value="8018"/>
    </field>
    <field name="tcp.window_size_value" showname="Window size value: 501" size="2" pos="48" show="501" value="01f5"/>
    <field name="tcp.window_size" showname="Calculated window size: 501" size="2" pos="48" show="501" value="01f5"/>
    <field name="tcp.window_size_scalefactor" showname="Window size scaling factor: -1 (unknown)" size="2" pos="48" show="-1" value="01f5"/>
    <field name="tcp.checksum" showname="Checksum: 0x256a [unverified]" size="2" pos="50" show="0x0000256a" value="256a"/>
    <field name="tcp.checksum.status" showname="Checksum Status: Unverified" size="0" pos="50" show="2"/>
    <field name="tcp.urgent_pointer" showname="Urgent pointer: 0" size="2" pos="52" show="0" value="0000"/>
    <field name="tcp.options" showname="Options: (12 bytes), No-Operation (NOP), No-Operation (NOP), Timestamps" size="12" pos="54" show="01:01:08:0a:c5:33:2b:3d:c6:a3:34:4d" value="0101080ac5332b3dc6a3344d">
      <field name="tcp.options.nop" showname="TCP Option - No-Operation (NOP)" size="1" pos="54" show="01" value="01">
        <field name="tcp.option_kind" showname="Kind: No-Operation (1)" size="1" pos="54" show="1" value="01"/>
      </field>
      <field name="tcp.options.nop" showname="TCP Option - No-Operation (NOP)" size="1" pos="55" show="01" value="01">
        <field name="tcp.option_kind" showname="Kind: No-Operation (1)" size="1" pos="55" show="1" value="01"/>
      </field>
      <field name="tcp.options.timestamp" showname="TCP Option - Timestamps: TSval 3308464957, TSecr 3332584525" size="10" pos="56" show="08:0a:c5:33:2b:3d:c6:a3:34:4d" value="080ac5332b3dc6a3344d">
        <field name="tcp.option_kind" showname="Kind: Time Stamp Option (8)" size="1" pos="56" show="8" value="08"/>
        <field name="tcp.option_len" showname="Length: 10" size="1" pos="57" show="10" value="0a"/>
        <field name="tcp.options.timestamp.tsval" showname="Timestamp value: 3308464957" size="4" pos="58" show="3308464957" value="c5332b3d"/>
        <field name="tcp.options.timestamp.tsecr" showname="Timestamp echo reply: 3332584525" size="4" pos="62" show="3332584525" value="c6a3344d"/>
      </field>
    </field>
    <field name="" show="Timestamps" size="0" pos="34">
      <field name="tcp.time_relative" showname="Time since first frame in this TCP stream: 20.018490465 seconds" size="0" pos="34" show="20.018490465"/>
      <field name="tcp.time_delta" showname="Time since previous frame in this TCP stream: 10.008946491 seconds" size="0" pos="34" show="10.008946491"/>
    </field>
    <field name="tcp.payload" showname="TCP payload (66 bytes)" size="66" pos="66" show="00:00:39:01:04:00:00:02:01:c1:04:ad:62:aa:ac:95:6a:a5:a5:8e:e1:62:a9:56:35:48:48:ea:21:50:c3:6c:8a:49:1b:74:4b:4a:fc:ac:ac:d0:4b:22:d1:b6:fb:cb:47:20:c5:2c:63:78:24:96:4f:86:c4:c3:c0:0f:0d:02:37:32" value="000039010400000201c104ad62aaac956aa5a58ee162a956354848ea2150c36c8a491b744b4afcacacd04b22d1b6fbcb4720c52c637824964f86c4c3c00f0d023732"/>
    <field name="tcp.pdu.size" showname="PDU Size: 66" size="66" pos="66" show="66" value="000039010400000201c104ad62aaac956aa5a58ee162a956354848ea2150c36c8a491b744b4afcacacd04b22d1b6fbcb4720c52c637824964f86c4c3c00f0d023732"/>
  </proto>
  <proto name="http2" showname="HyperText Transfer Protocol 2" size="66" pos="66">
    <field name="filtered" value="http2" />
  </proto>
</packet>


<packet>
  <proto name="geninfo" pos="0" showname="General information" size="147">
    <field name="num" pos="0" show="24" showname="Number" value="18" size="147"/>
    <field name="len" pos="0" show="147" showname="Frame Length" value="93" size="147"/>
    <field name="caplen" pos="0" show="147" showname="Captured Length" value="93" size="147"/>
    <field name="timestamp" pos="0" show="May 24, 2023 20:26:41.349297513 CEST" showname="Captured Time" value="1684952801.349297513" size="147"/>
  </proto>
  <proto name="frame" showname="Frame 24: 147 bytes on wire (1176 bits), 147 bytes captured (1176 bits) on interface veth_nssf, id 0" size="147" pos="0">
    <field name="filtered" value="frame" />
  </proto>
  <proto name="eth" showname="Ethernet II, Src: 7a:24:b4:3d:64:76, Dst: da:73:09:fb:97:ae" size="14" pos="0">
    <field name="filtered" value="eth" />
  </proto>
  <proto name="ip" showname="Internet Protocol Version 4, Src: 10.0.9.1, Dst: 10.0.8.1" size="20" pos="14">
    <field name="filtered" value="ip" />
  </proto>
  <proto name="tcp" showname="Transmission Control Protocol, Src Port: 58294, Dst Port: 7777, Seq: 1434351696, Ack: 2327922255, Len: 81" size="32" pos="34">
    <field name="tcp.srcport" showname="Source Port: 58294" size="2" pos="34" show="58294" value="e3b6"/>
    <field name="tcp.dstport" showname="Destination Port: 7777" size="2" pos="36" show="7777" value="1e61"/>
    <field name="tcp.port" showname="Source or Destination Port: 58294" hide="yes" size="2" pos="34" show="58294" value="e3b6"/>
    <field name="tcp.port" showname="Source or Destination Port: 7777" hide="yes" size="2" pos="36" show="7777" value="1e61"/>
    <field name="tcp.stream" showname="Stream index: 1" size="0" pos="34" show="1"/>
    <field name="tcp.len" showname="TCP Segment Len: 81" size="1" pos="46" show="81" value="80"/>
    <field name="tcp.seq" showname="Sequence number: 1434351696" size="4" pos="38" show="1434351696" value="557e7850"/>
    <field name="tcp.seq_raw" showname="Sequence number (raw): 1434351696" hide="yes" size="4" pos="38" show="1434351696" value="557e7850"/>
    <field name="tcp.nxtseq" showname="Next sequence number: 1434351777" size="0" pos="34" show="1434351777"/>
    <field name="tcp.ack" showname="Acknowledgment number: 2327922255" size="4" pos="42" show="2327922255" value="8ac1464f"/>
    <field name="tcp.ack_raw" showname="Acknowledgment number (raw): 2327922255" hide="yes" size="4" pos="42" show="2327922255" value="8ac1464f"/>
    <field name="tcp.hdr_len" showname="1000 .... = Header Length: 32 bytes (8)" size="1" pos="46" show="32" value="80"/>
    <field name="tcp.flags" showname="Flags: 0x018 (PSH, ACK)" size="2" pos="46" show="0x00000018" value="18" unmaskedvalue="8018">
      <field name="tcp.flags.res" showname="000. .... .... = Reserved: Not set" size="1" pos="46" show="0" value="0" unmaskedvalue="80"/>
      <field name="tcp.flags.ns" showname="...0 .... .... = Nonce: Not set" size="1" pos="46" show="0" value="0" unmaskedvalue="80"/>
      <field name="tcp.flags.cwr" showname=".... 0... .... = Congestion Window Reduced (CWR): Not set" size="1" pos="47" show="0" value="0" unmaskedvalue="18"/>
      <field name="tcp.flags.ecn" showname=".... .0.. .... = ECN-Echo: Not set" size="1" pos="47" show="0" value="0" unmaskedvalue="18"/>
      <field name="tcp.flags.urg" showname=".... ..0. .... = Urgent: Not set" size="1" pos="47" show="0" value="0" unmaskedvalue="18"/>
      <field name="tcp.flags.ack" showname=".... ...1 .... = Acknowledgment: Set" size="1" pos="47" show="1" value="1" unmaskedvalue="18"/>
      <field name="tcp.flags.push" showname=".... .... 1... = Push: Set" size="1" pos="47" show="1" value="1" unmaskedvalue="18"/>
      <field name="tcp.flags.reset" showname=".... .... .0.. = Reset: Not set" size="1" pos="47" show="0" value="0" unmaskedvalue="18"/>
      <field name="tcp.flags.syn" showname=".... .... ..0. = Syn: Not set" size="1" pos="47" show="0" value="0" unmaskedvalue="18"/>
      <field name="tcp.flags.fin" showname=".... .... ...0 = Fin: Not set" size="1" pos="47" show="0" value="0" unmaskedvalue="18"/>
      <field name="tcp.flags.str" showname="TCP Flags: \xc2\xb7\xc2\xb7\xc2\xb7\xc2\xb7\xc2\xb7\xc2\xb7\xc2\xb7AP\xc2\xb7\xc2\xb7\xc2\xb7" size="2" pos="46" show="\xc2\xb7\xc2\xb7\xc2\xb7\xc2\xb7\xc2\xb7\xc2\xb7\xc2\xb7AP\xc2\xb7\xc2\xb7\xc2\xb7" value="8018"/>
    </field>
    <field name="tcp.window_size_value" showname="Window size value: 501" size="2" pos="48" show="501" value="01f5"/>
    <field name="tcp.window_size" showname="Calculated window size: 501" size="2" pos="48" show="501" value="01f5"/>
    <field name="tcp.window_size_scalefactor" showname="Window size scaling factor: -1 (unknown)" size="2" pos="48" show="-1" value="01f5"/>
    <field name="tcp.checksum" showname="Checksum: 0x2579 [unverified]" size="2" pos="50" show="0x00002579" value="2579"/>
    <field name="tcp.checksum.status" showname="Checksum Status: Unverified" size="0" pos="50" show="2"/>
    <field name="tcp.urgent_pointer" showname="Urgent pointer: 0" size="2" pos="52" show="0" value="0000"/>
    <field name="tcp.options" showname="Options: (12 bytes), No-Operation (NOP), No-Operation (NOP), Timestamps" size="12" pos="54" show="01:01:08:0a:c5:33:2b:3d:c6:a3:34:4d" value="0101080ac5332b3dc6a3344d">
      <field name="tcp.options.nop" showname="TCP Option - No-Operation (NOP)" size="1" pos="54" show="01" value="01">
        <field name="tcp.option_kind" showname="Kind: No-Operation (1)" size="1" pos="54" show="1" value="01"/>
      </field>
      <field name="tcp.options.nop" showname="TCP Option - No-Operation (NOP)" size="1" pos="55" show="01" value="01">
        <field name="tcp.option_kind" showname="Kind: No-Operation (1)" size="1" pos="55" show="1" value="01"/>
      </field>
      <field name="tcp.options.timestamp" showname="TCP Option - Timestamps: TSval 3308464957, TSecr 3332584525" size="10" pos="56" show="08:0a:c5:33:2b:3d:c6:a3:34:4d" value="080ac5332b3dc6a3344d">
        <field name="tcp.option_kind" showname="Kind: Time Stamp Option (8)" size="1" pos="56" show="8" value="08"/>
        <field name="tcp.option_len" showname="Length: 10" size="1" pos="57" show="10" value="0a"/>
        <field name="tcp.options.timestamp.tsval" showname="Timestamp value: 3308464957" size="4" pos="58" show="3308464957" value="c5332b3d"/>
        <field name="tcp.options.timestamp.tsecr" showname="Timestamp echo reply: 3332584525" size="4" pos="62" show="3332584525" value="c6a3344d"/>
      </field>
    </field>
    <field name="" show="Timestamps" size="0" pos="34">
      <field name="tcp.time_relative" showname="Time since first frame in this TCP stream: 20.018546380 seconds" size="0" pos="34" show="20.018546380"/>
      <field name="tcp.time_delta" showname="Time since previous frame in this TCP stream: 0.000055915 seconds" size="0" pos="34" show="0.000055915"/>
    </field>
    <field name="tcp.payload" showname="TCP payload (81 bytes)" size="81" pos="66" show="00:00:48:00:01:00:00:02:01:5b:7b:0a:09:09:22:6f:70:22:3a:09:22:72:65:70:6c:61:63:65:22:2c:0a:09:09:22:70:61:74:68:22:3a:09:22:2f:6e:66:53:74:61:74:75:73:22:2c:0a:09:09:22:76:61:6c:75:65:22:3a:09:22:52:45:47:49:53:54:45:52:45:44:22:0a:09:7d:5d" value="0000480001000002015b7b0a0909226f70223a09227265706c616365222c0a09092270617468223a09222f6e66537461747573222c0a09092276616c7565223a092252454749535445524544220a097d5d"/>
    <field name="tcp.pdu.size" showname="PDU Size: 81" size="81" pos="66" show="81" value="0000480001000002015b7b0a0909226f70223a09227265706c616365222c0a09092270617468223a09222f6e66537461747573222c0a09092276616c7565223a092252454749535445524544220a097d5d"/>
  </proto>
  <proto name="http2" showname="HyperText Transfer Protocol 2" size="81" pos="66">
    <field name="filtered" value="http2" />
  </proto>
</packet>


<packet>
  <proto name="geninfo" pos="0" showname="General information" size="66">
    <field name="num" pos="0" show="25" showname="Number" value="19" size="66"/>
    <field name="len" pos="0" show="66" showname="Frame Length" value="42" size="66"/>
    <field name="caplen" pos="0" show="66" showname="Captured Length" value="42" size="66"/>
    <field name="timestamp" pos="0" show="May 24, 2023 20:26:41.349623991 CEST" showname="Captured Time" value="1684952801.349623991" size="66"/>
  </proto>
  <proto name="frame" showname="Frame 25: 66 bytes on wire (528 bits), 66 bytes captured (528 bits) on interface veth_nssf, id 0" size="66" pos="0">
    <field name="filtered" value="frame" />
  </proto>
  <proto name="eth" showname="Ethernet II, Src: da:73:09:fb:97:ae, Dst: 7a:24:b4:3d:64:76" size="14" pos="0">
    <field name="filtered" value="eth" />
  </proto>
  <proto name="ip" showname="Internet Protocol Version 4, Src: 10.0.8.1, Dst: 10.0.9.1" size="20" pos="14">
    <field name="filtered" value="ip" />
  </proto>
  <proto name="tcp" showname="Transmission Control Protocol, Src Port: 7777, Dst Port: 58294, Seq: 2327922255, Ack: 1434351777, Len: 0" size="32" pos="34">
    <field name="tcp.srcport" showname="Source Port: 7777" size="2" pos="34" show="7777" value="1e61"/>
    <field name="tcp.dstport" showname="Destination Port: 58294" size="2" pos="36" show="58294" value="e3b6"/>
    <field name="tcp.port" showname="Source or Destination Port: 7777" hide="yes" size="2" pos="34" show="7777" value="1e61"/>
    <field name="tcp.port" showname="Source or Destination Port: 58294" hide="yes" size="2" pos="36" show="58294" value="e3b6"/>
    <field name="tcp.stream" showname="Stream index: 1" size="0" pos="34" show="1"/>
    <field name="tcp.len" showname="TCP Segment Len: 0" size="1" pos="46" show="0" value="80"/>
    <field name="tcp.seq" showname="Sequence number: 2327922255" size="4" pos="38" show="2327922255" value="8ac1464f"/>
    <field name="tcp.seq_raw" showname="Sequence number (raw): 2327922255" hide="yes" size="4" pos="38" show="2327922255" value="8ac1464f"/>
    <field name="tcp.nxtseq" showname="Next sequence number: 2327922255" size="0" pos="34" show="2327922255"/>
    <field name="tcp.ack" showname="Acknowledgment number: 1434351777" size="4" pos="42" show="1434351777" value="557e78a1"/>
    <field name="tcp.ack_raw" showname="Acknowledgment number (raw): 1434351777" hide="yes" size="4" pos="42" show="1434351777" value="557e78a1"/>
    <field name="tcp.hdr_len" showname="1000 .... = Header Length: 32 bytes (8)" size="1" pos="46" show="32" value="80"/>
    <field name="tcp.flags" showname="Flags: 0x010 (ACK)" size="2" pos="46" show="0x00000010" value="10" unmaskedvalue="8010">
      <field name="tcp.flags.res" showname="000. .... .... = Reserved: Not set" size="1" pos="46" show="0" value="0" unmaskedvalue="80"/>
      <field name="tcp.flags.ns" showname="...0 .... .... = Nonce: Not set" size="1" pos="46" show="0" value="0" unmaskedvalue="80"/>
      <field name="tcp.flags.cwr" showname=".... 0... .... = Congestion Window Reduced (CWR): Not set" size="1" pos="47" show="0" value="0" unmaskedvalue="10"/>
      <field name="tcp.flags.ecn" showname=".... .0.. .... = ECN-Echo: Not set" size="1" pos="47" show="0" value="0" unmaskedvalue="10"/>
      <field name="tcp.flags.urg" showname=".... ..0. .... = Urgent: Not set" size="1" pos="47" show="0" value="0" unmaskedvalue="10"/>
      <field name="tcp.flags.ack" showname=".... ...1 .... = Acknowledgment: Set" size="1" pos="47" show="1" value="1" unmaskedvalue="10"/>
      <field name="tcp.flags.push" showname=".... .... 0... = Push: Not set" size="1" pos="47" show="0" value="0" unmaskedvalue="10"/>
      <field name="tcp.flags.reset" showname=".... .... .0.. = Reset: Not set" size="1" pos="47" show="0" value="0" unmaskedvalue="10"/>
      <field name="tcp.flags.syn" showname=".... .... ..0. = Syn: Not set" size="1" pos="47" show="0" value="0" unmaskedvalue="10"/>
      <field name="tcp.flags.fin" showname=".... .... ...0 = Fin: Not set" size="1" pos="47" show="0" value="0" unmaskedvalue="10"/>
      <field name="tcp.flags.str" showname="TCP Flags: \xc2\xb7\xc2\xb7\xc2\xb7\xc2\xb7\xc2\xb7\xc2\xb7\xc2\xb7A\xc2\xb7\xc2\xb7\xc2\xb7\xc2\xb7" size="2" pos="46" show="\xc2\xb7\xc2\xb7\xc2\xb7\xc2\xb7\xc2\xb7\xc2\xb7\xc2\xb7A\xc2\xb7\xc2\xb7\xc2\xb7\xc2\xb7" value="8010"/>
    </field>
    <field name="tcp.window_size_value" showname="Window size value: 501" size="2" pos="48" show="501" value="01f5"/>
    <field name="tcp.window_size" showname="Calculated window size: 501" size="2" pos="48" show="501" value="01f5"/>
    <field name="tcp.window_size_scalefactor" showname="Window size scaling factor: -1 (unknown)" size="2" pos="48" show="-1" value="01f5"/>
    <field name="tcp.checksum" showname="Checksum: 0x2528 [unverified]" size="2" pos="50" show="0x00002528" value="2528"/>
    <field name="tcp.checksum.status" showname="Checksum Status: Unverified" size="0" pos="50" show="2"/>
    <field name="tcp.urgent_pointer" showname="Urgent pointer: 0" size="2" pos="52" show="0" value="0000"/>
    <field name="tcp.options" showname="Options: (12 bytes), No-Operation (NOP), No-Operation (NOP), Timestamps" size="12" pos="54" show="01:01:08:0a:c6:a3:5b:66:c5:33:2b:3d" value="0101080ac6a35b66c5332b3d">
      <field name="tcp.options.nop" showname="TCP Option - No-Operation (NOP)" size="1" pos="54" show="01" value="01">
        <field name="tcp.option_kind" showname="Kind: No-Operation (1)" size="1" pos="54" show="1" value="01"/>
      </field>
      <field name="tcp.options.nop" showname="TCP Option - No-Operation (NOP)" size="1" pos="55" show="01" value="01">
        <field name="tcp.option_kind" showname="Kind: No-Operation (1)" size="1" pos="55" show="1" value="01"/>
      </field>
      <field name="tcp.options.timestamp" showname="TCP Option - Timestamps: TSval 3332594534, TSecr 3308464957" size="10" pos="56" show="08:0a:c6:a3:5b:66:c5:33:2b:3d" value="080ac6a35b66c5332b3d">
        <field name="tcp.option_kind" showname="Kind: Time Stamp Option (8)" size="1" pos="56" show="8" value="08"/>
        <field name="tcp.option_len" showname="Length: 10" size="1" pos="57" show="10" value="0a"/>
        <field name="tcp.options.timestamp.tsval" showname="Timestamp value: 3332594534" size="4" pos="58" show="3332594534" value="c6a35b66"/>
        <field name="tcp.options.timestamp.tsecr" showname="Timestamp echo reply: 3308464957" size="4" pos="62" show="3308464957" value="c5332b3d"/>
      </field>
    </field>
    <field name="" show="Timestamps" size="0" pos="34">
      <field name="tcp.time_relative" showname="Time since first frame in this TCP stream: 20.018872858 seconds" size="0" pos="34" show="20.018872858"/>
      <field name="tcp.time_delta" showname="Time since previous frame in this TCP stream: 0.000326478 seconds" size="0" pos="34" show="0.000326478"/>
    </field>
  </proto>
</packet>


<packet>
  <proto name="geninfo" pos="0" showname="General information" size="101">
    <field name="num" pos="0" show="26" showname="Number" value="1a" size="101"/>
    <field name="len" pos="0" show="101" showname="Frame Length" value="65" size="101"/>
    <field name="caplen" pos="0" show="101" showname="Captured Length" value="65" size="101"/>
    <field name="timestamp" pos="0" show="May 24, 2023 20:26:41.350137102 CEST" showname="Captured Time" value="1684952801.350137102" size="101"/>
  </proto>
  <proto name="frame" showname="Frame 26: 101 bytes on wire (808 bits), 101 bytes captured (808 bits) on interface veth_nssf, id 0" size="101" pos="0">
    <field name="filtered" value="frame" />
  </proto>
  <proto name="eth" showname="Ethernet II, Src: da:73:09:fb:97:ae, Dst: 7a:24:b4:3d:64:76" size="14" pos="0">
    <field name="filtered" value="eth" />
  </proto>
  <proto name="ip" showname="Internet Protocol Version 4, Src: 10.0.8.1, Dst: 10.0.9.1" size="20" pos="14">
    <field name="filtered" value="ip" />
  </proto>
  <proto name="tcp" showname="Transmission Control Protocol, Src Port: 7777, Dst Port: 58294, Seq: 2327922255, Ack: 1434351777, Len: 35" size="32" pos="34">
    <field name="tcp.srcport" showname="Source Port: 7777" size="2" pos="34" show="7777" value="1e61"/>
    <field name="tcp.dstport" showname="Destination Port: 58294" size="2" pos="36" show="58294" value="e3b6"/>
    <field name="tcp.port" showname="Source or Destination Port: 7777" hide="yes" size="2" pos="34" show="7777" value="1e61"/>
    <field name="tcp.port" showname="Source or Destination Port: 58294" hide="yes" size="2" pos="36" show="58294" value="e3b6"/>
    <field name="tcp.stream" showname="Stream index: 1" size="0" pos="34" show="1"/>
    <field name="tcp.len" showname="TCP Segment Len: 35" size="1" pos="46" show="35" value="80"/>
    <field name="tcp.seq" showname="Sequence number: 2327922255" size="4" pos="38" show="2327922255" value="8ac1464f"/>
    <field name="tcp.seq_raw" showname="Sequence number (raw): 2327922255" hide="yes" size="4" pos="38" show="2327922255" value="8ac1464f"/>
    <field name="tcp.nxtseq" showname="Next sequence number: 2327922290" size="0" pos="34" show="2327922290"/>
    <field name="tcp.ack" showname="Acknowledgment number: 1434351777" size="4" pos="42" show="1434351777" value="557e78a1"/>
    <field name="tcp.ack_raw" showname="Acknowledgment number (raw): 1434351777" hide="yes" size="4" pos="42" show="1434351777" value="557e78a1"/>
    <field name="tcp.hdr_len" showname="1000 .... = Header Length: 32 bytes (8)" size="1" pos="46" show="32" value="80"/>
    <field name="tcp.flags" showname="Flags: 0x018 (PSH, ACK)" size="2" pos="46" show="0x00000018" value="18" unmaskedvalue="8018">
      <field name="tcp.flags.res" showname="000. .... .... = Reserved: Not set" size="1" pos="46" show="0" value="0" unmaskedvalue="80"/>
      <field name="tcp.flags.ns" showname="...0 .... .... = Nonce: Not set" size="1" pos="46" show="0" value="0" unmaskedvalue="80"/>
      <field name="tcp.flags.cwr" showname=".... 0... .... = Congestion Window Reduced (CWR): Not set" size="1" pos="47" show="0" value="0" unmaskedvalue="18"/>
      <field name="tcp.flags.ecn" showname=".... .0.. .... = ECN-Echo: Not set" size="1" pos="47" show="0" value="0" unmaskedvalue="18"/>
      <field name="tcp.flags.urg" showname=".... ..0. .... = Urgent: Not set" size="1" pos="47" show="0" value="0" unmaskedvalue="18"/>
      <field name="tcp.flags.ack" showname=".... ...1 .... = Acknowledgment: Set" size="1" pos="47" show="1" value="1" unmaskedvalue="18"/>
      <field name="tcp.flags.push" showname=".... .... 1... = Push: Set" size="1" pos="47" show="1" value="1" unmaskedvalue="18"/>
      <field name="tcp.flags.reset" showname=".... .... .0.. = Reset: Not set" size="1" pos="47" show="0" value="0" unmaskedvalue="18"/>
      <field name="tcp.flags.syn" showname=".... .... ..0. = Syn: Not set" size="1" pos="47" show="0" value="0" unmaskedvalue="18"/>
      <field name="tcp.flags.fin" showname=".... .... ...0 = Fin: Not set" size="1" pos="47" show="0" value="0" unmaskedvalue="18"/>
      <field name="tcp.flags.str" showname="TCP Flags: \xc2\xb7\xc2\xb7\xc2\xb7\xc2\xb7\xc2\xb7\xc2\xb7\xc2\xb7AP\xc2\xb7\xc2\xb7\xc2\xb7" size="2" pos="46" show="\xc2\xb7\xc2\xb7\xc2\xb7\xc2\xb7\xc2\xb7\xc2\xb7\xc2\xb7AP\xc2\xb7\xc2\xb7\xc2\xb7" value="8018"/>
    </field>
    <field name="tcp.window_size_value" showname="Window size value: 501" size="2" pos="48" show="501" value="01f5"/>
    <field name="tcp.window_size" showname="Calculated window size: 501" size="2" pos="48" show="501" value="01f5"/>
    <field name="tcp.window_size_scalefactor" showname="Window size scaling factor: -1 (unknown)" size="2" pos="48" show="-1" value="01f5"/>
    <field name="tcp.checksum" showname="Checksum: 0x254b [unverified]" size="2" pos="50" show="0x0000254b" value="254b"/>
    <field name="tcp.checksum.status" showname="Checksum Status: Unverified" size="0" pos="50" show="2"/>
    <field name="tcp.urgent_pointer" showname="Urgent pointer: 0" size="2" pos="52" show="0" value="0000"/>
    <field name="tcp.options" showname="Options: (12 bytes), No-Operation (NOP), No-Operation (NOP), Timestamps" size="12" pos="54" show="01:01:08:0a:c6:a3:5b:67:c5:33:2b:3d" value="0101080ac6a35b67c5332b3d">
      <field name="tcp.options.nop" showname="TCP Option - No-Operation (NOP)" size="1" pos="54" show="01" value="01">
        <field name="tcp.option_kind" showname="Kind: No-Operation (1)" size="1" pos="54" show="1" value="01"/>
      </field>
      <field name="tcp.options.nop" showname="TCP Option - No-Operation (NOP)" size="1" pos="55" show="01" value="01">
        <field name="tcp.option_kind" showname="Kind: No-Operation (1)" size="1" pos="55" show="1" value="01"/>
      </field>
      <field name="tcp.options.timestamp" showname="TCP Option - Timestamps: TSval 3332594535, TSecr 3308464957" size="10" pos="56" show="08:0a:c6:a3:5b:67:c5:33:2b:3d" value="080ac6a35b67c5332b3d">
        <field name="tcp.option_kind" showname="Kind: Time Stamp Option (8)" size="1" pos="56" show="8" value="08"/>
        <field name="tcp.option_len" showname="Length: 10" size="1" pos="57" show="10" value="0a"/>
        <field name="tcp.options.timestamp.tsval" showname="Timestamp value: 3332594535" size="4" pos="58" show="3332594535" value="c6a35b67"/>
        <field name="tcp.options.timestamp.tsecr" showname="Timestamp echo reply: 3308464957" size="4" pos="62" show="3308464957" value="c5332b3d"/>
      </field>
    </field>
    <field name="" show="Timestamps" size="0" pos="34">
      <field name="tcp.time_relative" showname="Time since first frame in this TCP stream: 20.019385969 seconds" size="0" pos="34" show="20.019385969"/>
      <field name="tcp.time_delta" showname="Time since previous frame in this TCP stream: 0.000513111 seconds" size="0" pos="34" show="0.000513111"/>
    </field>
    <field name="tcp.payload" showname="TCP payload (35 bytes)" size="35" pos="66" show="00:00:1a:01:05:00:00:02:01:89:c2:61:96:e4:59:3e:94:13:4a:68:1f:a5:04:01:32:a0:5e:b8:27:2e:34:15:31:68:df" value="00001a01050000020189c26196e4593e94134a681fa5040132a05eb8272e34153168df"/>
    <field name="tcp.pdu.size" showname="PDU Size: 35" size="35" pos="66" show="35" value="00001a01050000020189c26196e4593e94134a681fa5040132a05eb8272e34153168df"/>
  </proto>
  <proto name="http2" showname="HyperText Transfer Protocol 2" size="35" pos="66">
    <field name="filtered" value="http2" />
  </proto>
</packet>


<packet>
  <proto name="geninfo" pos="0" showname="General information" size="66">
    <field name="num" pos="0" show="27" showname="Number" value="1b" size="66"/>
    <field name="len" pos="0" show="66" showname="Frame Length" value="42" size="66"/>
    <field name="caplen" pos="0" show="66" showname="Captured Length" value="42" size="66"/>
    <field name="timestamp" pos="0" show="May 24, 2023 20:26:41.350153569 CEST" showname="Captured Time" value="1684952801.350153569" size="66"/>
  </proto>
  <proto name="frame" showname="Frame 27: 66 bytes on wire (528 bits), 66 bytes captured (528 bits) on interface veth_nssf, id 0" size="66" pos="0">
    <field name="filtered" value="frame" />
  </proto>
  <proto name="eth" showname="Ethernet II, Src: 7a:24:b4:3d:64:76, Dst: da:73:09:fb:97:ae" size="14" pos="0">
    <field name="filtered" value="eth" />
  </proto>
  <proto name="ip" showname="Internet Protocol Version 4, Src: 10.0.9.1, Dst: 10.0.8.1" size="20" pos="14">
    <field name="filtered" value="ip" />
  </proto>
  <proto name="tcp" showname="Transmission Control Protocol, Src Port: 58294, Dst Port: 7777, Seq: 1434351777, Ack: 2327922290, Len: 0" size="32" pos="34">
    <field name="tcp.srcport" showname="Source Port: 58294" size="2" pos="34" show="58294" value="e3b6"/>
    <field name="tcp.dstport" showname="Destination Port: 7777" size="2" pos="36" show="7777" value="1e61"/>
    <field name="tcp.port" showname="Source or Destination Port: 58294" hide="yes" size="2" pos="34" show="58294" value="e3b6"/>
    <field name="tcp.port" showname="Source or Destination Port: 7777" hide="yes" size="2" pos="36" show="7777" value="1e61"/>
    <field name="tcp.stream" showname="Stream index: 1" size="0" pos="34" show="1"/>
    <field name="tcp.len" showname="TCP Segment Len: 0" size="1" pos="46" show="0" value="80"/>
    <field name="tcp.seq" showname="Sequence number: 1434351777" size="4" pos="38" show="1434351777" value="557e78a1"/>
    <field name="tcp.seq_raw" showname="Sequence number (raw): 1434351777" hide="yes" size="4" pos="38" show="1434351777" value="557e78a1"/>
    <field name="tcp.nxtseq" showname="Next sequence number: 1434351777" size="0" pos="34" show="1434351777"/>
    <field name="tcp.ack" showname="Acknowledgment number: 2327922290" size="4" pos="42" show="2327922290" value="8ac14672"/>
    <field name="tcp.ack_raw" showname="Acknowledgment number (raw): 2327922290" hide="yes" size="4" pos="42" show="2327922290" value="8ac14672"/>
    <field name="tcp.hdr_len" showname="1000 .... = Header Length: 32 bytes (8)" size="1" pos="46" show="32" value="80"/>
    <field name="tcp.flags" showname="Flags: 0x010 (ACK)" size="2" pos="46" show="0x00000010" value="10" unmaskedvalue="8010">
      <field name="tcp.flags.res" showname="000. .... .... = Reserved: Not set" size="1" pos="46" show="0" value="0" unmaskedvalue="80"/>
      <field name="tcp.flags.ns" showname="...0 .... .... = Nonce: Not set" size="1" pos="46" show="0" value="0" unmaskedvalue="80"/>
      <field name="tcp.flags.cwr" showname=".... 0... .... = Congestion Window Reduced (CWR): Not set" size="1" pos="47" show="0" value="0" unmaskedvalue="10"/>
      <field name="tcp.flags.ecn" showname=".... .0.. .... = ECN-Echo: Not set" size="1" pos="47" show="0" value="0" unmaskedvalue="10"/>
      <field name="tcp.flags.urg" showname=".... ..0. .... = Urgent: Not set" size="1" pos="47" show="0" value="0" unmaskedvalue="10"/>
      <field name="tcp.flags.ack" showname=".... ...1 .... = Acknowledgment: Set" size="1" pos="47" show="1" value="1" unmaskedvalue="10"/>
      <field name="tcp.flags.push" showname=".... .... 0... = Push: Not set" size="1" pos="47" show="0" value="0" unmaskedvalue="10"/>
      <field name="tcp.flags.reset" showname=".... .... .0.. = Reset: Not set" size="1" pos="47" show="0" value="0" unmaskedvalue="10"/>
      <field name="tcp.flags.syn" showname=".... .... ..0. = Syn: Not set" size="1" pos="47" show="0" value="0" unmaskedvalue="10"/>
      <field name="tcp.flags.fin" showname=".... .... ...0 = Fin: Not set" size="1" pos="47" show="0" value="0" unmaskedvalue="10"/>
      <field name="tcp.flags.str" showname="TCP Flags: \xc2\xb7\xc2\xb7\xc2\xb7\xc2\xb7\xc2\xb7\xc2\xb7\xc2\xb7A\xc2\xb7\xc2\xb7\xc2\xb7\xc2\xb7" size="2" pos="46" show="\xc2\xb7\xc2\xb7\xc2\xb7\xc2\xb7\xc2\xb7\xc2\xb7\xc2\xb7A\xc2\xb7\xc2\xb7\xc2\xb7\xc2\xb7" value="8010"/>
    </field>
    <field name="tcp.window_size_value" showname="Window size value: 501" size="2" pos="48" show="501" value="01f5"/>
    <field name="tcp.window_size" showname="Calculated window size: 501" size="2" pos="48" show="501" value="01f5"/>
    <field name="tcp.window_size_scalefactor" showname="Window size scaling factor: -1 (unknown)" size="2" pos="48" show="-1" value="01f5"/>
    <field name="tcp.checksum" showname="Checksum: 0x2528 [unverified]" size="2" pos="50" show="0x00002528" value="2528"/>
    <field name="tcp.checksum.status" showname="Checksum Status: Unverified" size="0" pos="50" show="2"/>
    <field name="tcp.urgent_pointer" showname="Urgent pointer: 0" size="2" pos="52" show="0" value="0000"/>
    <field name="tcp.options" showname="Options: (12 bytes), No-Operation (NOP), No-Operation (NOP), Timestamps" size="12" pos="54" show="01:01:08:0a:c5:33:2b:3e:c6:a3:5b:67" value="0101080ac5332b3ec6a35b67">
      <field name="tcp.options.nop" showname="TCP Option - No-Operation (NOP)" size="1" pos="54" show="01" value="01">
        <field name="tcp.option_kind" showname="Kind: No-Operation (1)" size="1" pos="54" show="1" value="01"/>
      </field>
      <field name="tcp.options.nop" showname="TCP Option - No-Operation (NOP)" size="1" pos="55" show="01" value="01">
        <field name="tcp.option_kind" showname="Kind: No-Operation (1)" size="1" pos="55" show="1" value="01"/>
      </field>
      <field name="tcp.options.timestamp" showname="TCP Option - Timestamps: TSval 3308464958, TSecr 3332594535" size="10" pos="56" show="08:0a:c5:33:2b:3e:c6:a3:5b:67" value="080ac5332b3ec6a35b67">
        <field name="tcp.option_kind" showname="Kind: Time Stamp Option (8)" size="1" pos="56" show="8" value="08"/>
        <field name="tcp.option_len" showname="Length: 10" size="1" pos="57" show="10" value="0a"/>
        <field name="tcp.options.timestamp.tsval" showname="Timestamp value: 3308464958" size="4" pos="58" show="3308464958" value="c5332b3e"/>
        <field name="tcp.options.timestamp.tsecr" showname="Timestamp echo reply: 3332594535" size="4" pos="62" show="3332594535" value="c6a35b67"/>
      </field>
    </field>
    <field name="" show="Timestamps" size="0" pos="34">
      <field name="tcp.time_relative" showname="Time since first frame in this TCP stream: 20.019402436 seconds" size="0" pos="34" show="20.019402436"/>
      <field name="tcp.time_delta" showname="Time since previous frame in this TCP stream: 0.000016467 seconds" size="0" pos="34" show="0.000016467"/>
    </field>
  </proto>
</packet>


</pdml>
